
/home/yunhai/ysyx-workbench/am-kernels/benchmarks/microbench/build/microbench-riscv32e-npc.elf:     file format elf32-littleriscv


Disassembly of section .text:

80000000 <_start>:
80000000:	00000413          	li	s0,0
80000004:	00010117          	auipc	sp,0x10
80000008:	ffc10113          	addi	sp,sp,-4 # 80010000 <_end>
8000000c:	3ac050ef          	jal	800053b8 <_trm_init>

80000010 <bench_md5_prepare>:
80000010:	00008797          	auipc	a5,0x8
80000014:	b5c7a783          	lw	a5,-1188(a5) # 80007b6c <setting>
80000018:	ff410113          	addi	sp,sp,-12
8000001c:	00112423          	sw	ra,8(sp)
80000020:	0007a783          	lw	a5,0(a5)
80000024:	00912023          	sw	s1,0(sp)
80000028:	00100513          	li	a0,1
8000002c:	00008497          	auipc	s1,0x8
80000030:	b1848493          	addi	s1,s1,-1256 # 80007b44 <N>
80000034:	00f4a023          	sw	a5,0(s1)
80000038:	264020ef          	jal	8000229c <bench_srand>
8000003c:	0004a503          	lw	a0,0(s1)
80000040:	1b8020ef          	jal	800021f8 <bench_alloc>
80000044:	0004a783          	lw	a5,0(s1)
80000048:	00008697          	auipc	a3,0x8
8000004c:	af868693          	addi	a3,a3,-1288 # 80007b40 <str>
80000050:	00a6a023          	sw	a0,0(a3)
80000054:	02f05863          	blez	a5,80000084 <bench_md5_prepare+0x74>
80000058:	00812223          	sw	s0,4(sp)
8000005c:	00000413          	li	s0,0
80000060:	250020ef          	jal	800022b0 <bench_rand>
80000064:	00008797          	auipc	a5,0x8
80000068:	adc7a783          	lw	a5,-1316(a5) # 80007b40 <str>
8000006c:	0004a703          	lw	a4,0(s1)
80000070:	008787b3          	add	a5,a5,s0
80000074:	00a78023          	sb	a0,0(a5)
80000078:	00140413          	addi	s0,s0,1
8000007c:	fee442e3          	blt	s0,a4,80000060 <bench_md5_prepare+0x50>
80000080:	00412403          	lw	s0,4(sp)
80000084:	01000513          	li	a0,16
80000088:	170020ef          	jal	800021f8 <bench_alloc>
8000008c:	00812083          	lw	ra,8(sp)
80000090:	00008797          	auipc	a5,0x8
80000094:	aaa7a623          	sw	a0,-1364(a5) # 80007b3c <digest>
80000098:	00012483          	lw	s1,0(sp)
8000009c:	00c10113          	addi	sp,sp,12
800000a0:	00008067          	ret

800000a4 <bench_md5_run>:
800000a4:	00008517          	auipc	a0,0x8
800000a8:	aa052503          	lw	a0,-1376(a0) # 80007b44 <N>
800000ac:	00008797          	auipc	a5,0x8
800000b0:	a947a783          	lw	a5,-1388(a5) # 80007b40 <str>
800000b4:	f8c10113          	addi	sp,sp,-116
800000b8:	06812823          	sw	s0,112(sp)
800000bc:	00f12e23          	sw	a5,28(sp)
800000c0:	00150793          	addi	a5,a0,1
800000c4:	02f12023          	sw	a5,32(sp)
800000c8:	03f7f693          	andi	a3,a5,63
800000cc:	01c12783          	lw	a5,28(sp)
800000d0:	06912623          	sw	s1,108(sp)
800000d4:	03800593          	li	a1,56
800000d8:	00a78733          	add	a4,a5,a0
800000dc:	00008797          	auipc	a5,0x8
800000e0:	a607a783          	lw	a5,-1440(a5) # 80007b3c <digest>
800000e4:	04b68263          	beq	a3,a1,80000128 <bench_md5_run+0x84>
800000e8:	00150693          	addi	a3,a0,1
800000ec:	00168693          	addi	a3,a3,1
800000f0:	03f6f613          	andi	a2,a3,63
800000f4:	feb61ce3          	bne	a2,a1,800000ec <bench_md5_run+0x48>
800000f8:	f8000613          	li	a2,-128
800000fc:	00c70023          	sb	a2,0(a4)
80000100:	02012603          	lw	a2,32(sp)
80000104:	00d67e63          	bgeu	a2,a3,80000120 <bench_md5_run+0x7c>
80000108:	01c12603          	lw	a2,28(sp)
8000010c:	00170713          	addi	a4,a4,1
80000110:	00c68633          	add	a2,a3,a2
80000114:	00070023          	sb	zero,0(a4)
80000118:	00170713          	addi	a4,a4,1
8000011c:	fee61ce3          	bne	a2,a4,80000114 <bench_md5_run+0x70>
80000120:	02d12023          	sw	a3,32(sp)
80000124:	00c0006f          	j	80000130 <bench_md5_run+0x8c>
80000128:	f8000693          	li	a3,-128
8000012c:	00d70023          	sb	a3,0(a4)
80000130:	02012583          	lw	a1,32(sp)
80000134:	01c12703          	lw	a4,28(sp)
80000138:	00351693          	slli	a3,a0,0x3
8000013c:	0086d613          	srli	a2,a3,0x8
80000140:	00b70733          	add	a4,a4,a1
80000144:	00c700a3          	sb	a2,1(a4)
80000148:	0106d613          	srli	a2,a3,0x10
8000014c:	00c70123          	sb	a2,2(a4)
80000150:	00d70023          	sb	a3,0(a4)
80000154:	0186d613          	srli	a2,a3,0x18
80000158:	01c12683          	lw	a3,28(sp)
8000015c:	00c701a3          	sb	a2,3(a4)
80000160:	01d55513          	srli	a0,a0,0x1d
80000164:	00b68733          	add	a4,a3,a1
80000168:	00a70223          	sb	a0,4(a4)
8000016c:	000702a3          	sb	zero,5(a4)
80000170:	00070323          	sb	zero,6(a4)
80000174:	000703a3          	sb	zero,7(a4)
80000178:	98bae737          	lui	a4,0x98bae
8000017c:	cfe70713          	addi	a4,a4,-770 # 98badcfe <_end+0x18b9dcfe>
80000180:	00e12423          	sw	a4,8(sp)
80000184:	efcdb737          	lui	a4,0xefcdb
80000188:	b8970713          	addi	a4,a4,-1143 # efcdab89 <_end+0x6fccab89>
8000018c:	103253b7          	lui	t2,0x10325
80000190:	00e12223          	sw	a4,4(sp)
80000194:	67452737          	lui	a4,0x67452
80000198:	47638393          	addi	t2,t2,1142 # 10325476 <_entry_offset+0x10325476>
8000019c:	00000413          	li	s0,0
800001a0:	02f00493          	li	s1,47
800001a4:	02f12423          	sw	a5,40(sp)
800001a8:	30170713          	addi	a4,a4,769 # 67452301 <_entry_offset+0x67452301>
800001ac:	01c12783          	lw	a5,28(sp)
800001b0:	02c10693          	addi	a3,sp,44
800001b4:	008787b3          	add	a5,a5,s0
800001b8:	0017c603          	lbu	a2,1(a5)
800001bc:	0007c503          	lbu	a0,0(a5)
800001c0:	0027c583          	lbu	a1,2(a5)
800001c4:	00861613          	slli	a2,a2,0x8
800001c8:	00a66633          	or	a2,a2,a0
800001cc:	01059593          	slli	a1,a1,0x10
800001d0:	00c5e5b3          	or	a1,a1,a2
800001d4:	0037c603          	lbu	a2,3(a5)
800001d8:	00468693          	addi	a3,a3,4
800001dc:	00478793          	addi	a5,a5,4
800001e0:	01861613          	slli	a2,a2,0x18
800001e4:	00b66633          	or	a2,a2,a1
800001e8:	fec6ae23          	sw	a2,-4(a3)
800001ec:	06c10613          	addi	a2,sp,108
800001f0:	fcd614e3          	bne	a2,a3,800001b8 <bench_md5_run+0x114>
800001f4:	00412603          	lw	a2,4(sp)
800001f8:	00812683          	lw	a3,8(sp)
800001fc:	00e12623          	sw	a4,12(sp)
80000200:	00038593          	mv	a1,t2
80000204:	00100313          	li	t1,1
80000208:	00000293          	li	t0,0
8000020c:	00000513          	li	a0,0
80000210:	00712a23          	sw	t2,20(sp)
80000214:	00812c23          	sw	s0,24(sp)
80000218:	00e12823          	sw	a4,16(sp)
8000021c:	0940006f          	j	800002b0 <bench_md5_run+0x20c>
80000220:	00d7c7b3          	xor	a5,a5,a3
80000224:	00f37713          	andi	a4,t1,15
80000228:	00251393          	slli	t2,a0,0x2
8000022c:	00007417          	auipc	s0,0x7
80000230:	9b040413          	addi	s0,s0,-1616 # 80006bdc <k>
80000234:	00740433          	add	s0,s0,t2
80000238:	00812023          	sw	s0,0(sp)
8000023c:	00012403          	lw	s0,0(sp)
80000240:	00271713          	slli	a4,a4,0x2
80000244:	00270733          	add	a4,a4,sp
80000248:	00042403          	lw	s0,0(s0)
8000024c:	02c72703          	lw	a4,44(a4)
80000250:	00150513          	addi	a0,a0,1
80000254:	02812223          	sw	s0,36(sp)
80000258:	00007417          	auipc	s0,0x7
8000025c:	88440413          	addi	s0,s0,-1916 # 80006adc <_etext>
80000260:	007403b3          	add	t2,s0,t2
80000264:	02412403          	lw	s0,36(sp)
80000268:	0003a383          	lw	t2,0(t2)
8000026c:	00728293          	addi	t0,t0,7
80000270:	008787b3          	add	a5,a5,s0
80000274:	00e787b3          	add	a5,a5,a4
80000278:	00c12703          	lw	a4,12(sp)
8000027c:	00b12623          	sw	a1,12(sp)
80000280:	00530313          	addi	t1,t1,5
80000284:	00e787b3          	add	a5,a5,a4
80000288:	40700733          	neg	a4,t2
8000028c:	007793b3          	sll	t2,a5,t2
80000290:	00e7d7b3          	srl	a5,a5,a4
80000294:	00f3e3b3          	or	t2,t2,a5
80000298:	04000713          	li	a4,64
8000029c:	00c387b3          	add	a5,t2,a2
800002a0:	04e50e63          	beq	a0,a4,800002fc <bench_md5_run+0x258>
800002a4:	00068593          	mv	a1,a3
800002a8:	00060693          	mv	a3,a2
800002ac:	00078613          	mv	a2,a5
800002b0:	00f00793          	li	a5,15
800002b4:	12a7f063          	bgeu	a5,a0,800003d4 <bench_md5_run+0x330>
800002b8:	00d647b3          	xor	a5,a2,a3
800002bc:	01f00713          	li	a4,31
800002c0:	00b7f7b3          	and	a5,a5,a1
800002c4:	f4a77ee3          	bgeu	a4,a0,80000220 <bench_md5_run+0x17c>
800002c8:	00151713          	slli	a4,a0,0x1
800002cc:	00a70733          	add	a4,a4,a0
800002d0:	00b647b3          	xor	a5,a2,a1
800002d4:	00570713          	addi	a4,a4,5
800002d8:	00a4e863          	bltu	s1,a0,800002e8 <bench_md5_run+0x244>
800002dc:	00d7c7b3          	xor	a5,a5,a3
800002e0:	00f77713          	andi	a4,a4,15
800002e4:	f45ff06f          	j	80000228 <bench_md5_run+0x184>
800002e8:	fff5c793          	not	a5,a1
800002ec:	00c7e7b3          	or	a5,a5,a2
800002f0:	00d7c7b3          	xor	a5,a5,a3
800002f4:	00f2f713          	andi	a4,t0,15
800002f8:	f31ff06f          	j	80000228 <bench_md5_run+0x184>
800002fc:	01012703          	lw	a4,16(sp)
80000300:	01812403          	lw	s0,24(sp)
80000304:	01412383          	lw	t2,20(sp)
80000308:	00b70733          	add	a4,a4,a1
8000030c:	00412583          	lw	a1,4(sp)
80000310:	00a40433          	add	s0,s0,a0
80000314:	00d383b3          	add	t2,t2,a3
80000318:	00f587b3          	add	a5,a1,a5
8000031c:	00f12223          	sw	a5,4(sp)
80000320:	00812783          	lw	a5,8(sp)
80000324:	00c787b3          	add	a5,a5,a2
80000328:	00f12423          	sw	a5,8(sp)
8000032c:	02012783          	lw	a5,32(sp)
80000330:	e6f46ee3          	bltu	s0,a5,800001ac <bench_md5_run+0x108>
80000334:	02812783          	lw	a5,40(sp)
80000338:	00412303          	lw	t1,4(sp)
8000033c:	00070693          	mv	a3,a4
80000340:	00875713          	srli	a4,a4,0x8
80000344:	00d78023          	sb	a3,0(a5)
80000348:	00678223          	sb	t1,4(a5)
8000034c:	00e780a3          	sb	a4,1(a5)
80000350:	00812303          	lw	t1,8(sp)
80000354:	00412603          	lw	a2,4(sp)
80000358:	00412703          	lw	a4,4(sp)
8000035c:	0106d513          	srli	a0,a3,0x10
80000360:	0186d593          	srli	a1,a3,0x18
80000364:	00412683          	lw	a3,4(sp)
80000368:	00865613          	srli	a2,a2,0x8
8000036c:	01075713          	srli	a4,a4,0x10
80000370:	0186d293          	srli	t0,a3,0x18
80000374:	00030693          	mv	a3,t1
80000378:	00678423          	sb	t1,8(a5)
8000037c:	00a78123          	sb	a0,2(a5)
80000380:	00b781a3          	sb	a1,3(a5)
80000384:	00c782a3          	sb	a2,5(a5)
80000388:	00e78323          	sb	a4,6(a5)
8000038c:	0106d513          	srli	a0,a3,0x10
80000390:	00835313          	srli	t1,t1,0x8
80000394:	0186d693          	srli	a3,a3,0x18
80000398:	0083d593          	srli	a1,t2,0x8
8000039c:	0103d613          	srli	a2,t2,0x10
800003a0:	0183d713          	srli	a4,t2,0x18
800003a4:	00778623          	sb	t2,12(a5)
800003a8:	005783a3          	sb	t0,7(a5)
800003ac:	006784a3          	sb	t1,9(a5)
800003b0:	00a78523          	sb	a0,10(a5)
800003b4:	00d785a3          	sb	a3,11(a5)
800003b8:	00b786a3          	sb	a1,13(a5)
800003bc:	00c78723          	sb	a2,14(a5)
800003c0:	00e787a3          	sb	a4,15(a5)
800003c4:	07012403          	lw	s0,112(sp)
800003c8:	06c12483          	lw	s1,108(sp)
800003cc:	07410113          	addi	sp,sp,116
800003d0:	00008067          	ret
800003d4:	00d5c7b3          	xor	a5,a1,a3
800003d8:	00c7f7b3          	and	a5,a5,a2
800003dc:	00b7c7b3          	xor	a5,a5,a1
800003e0:	00050713          	mv	a4,a0
800003e4:	e45ff06f          	j	80000228 <bench_md5_run+0x184>

800003e8 <bench_md5_validate>:
800003e8:	00007517          	auipc	a0,0x7
800003ec:	75452503          	lw	a0,1876(a0) # 80007b3c <digest>
800003f0:	ffc10113          	addi	sp,sp,-4
800003f4:	00112023          	sw	ra,0(sp)
800003f8:	01050593          	addi	a1,a0,16
800003fc:	705010ef          	jal	80002300 <checksum>
80000400:	00007797          	auipc	a5,0x7
80000404:	76c7a783          	lw	a5,1900(a5) # 80007b6c <setting>
80000408:	00012083          	lw	ra,0(sp)
8000040c:	00c7a783          	lw	a5,12(a5)
80000410:	00410113          	addi	sp,sp,4
80000414:	40a78533          	sub	a0,a5,a0
80000418:	00153513          	seqz	a0,a0
8000041c:	00008067          	ret

80000420 <bench_fib_prepare>:
80000420:	00007797          	auipc	a5,0x7
80000424:	74c7a783          	lw	a5,1868(a5) # 80007b6c <setting>
80000428:	ff810113          	addi	sp,sp,-8
8000042c:	00112223          	sw	ra,4(sp)
80000430:	0007a783          	lw	a5,0(a5)
80000434:	00812023          	sw	s0,0(sp)
80000438:	00078593          	mv	a1,a5
8000043c:	00078513          	mv	a0,a5
80000440:	00007717          	auipc	a4,0x7
80000444:	70f72c23          	sw	a5,1816(a4) # 80007b58 <M>
80000448:	1c4050ef          	jal	8000560c <__mulsi3>
8000044c:	00251413          	slli	s0,a0,0x2
80000450:	00040513          	mv	a0,s0
80000454:	5a5010ef          	jal	800021f8 <bench_alloc>
80000458:	00007717          	auipc	a4,0x7
8000045c:	6ea72e23          	sw	a0,1788(a4) # 80007b54 <A>
80000460:	00040513          	mv	a0,s0
80000464:	595010ef          	jal	800021f8 <bench_alloc>
80000468:	00007717          	auipc	a4,0x7
8000046c:	6ea72223          	sw	a0,1764(a4) # 80007b4c <T>
80000470:	00040513          	mv	a0,s0
80000474:	585010ef          	jal	800021f8 <bench_alloc>
80000478:	00007717          	auipc	a4,0x7
8000047c:	6ca72c23          	sw	a0,1752(a4) # 80007b50 <ans>
80000480:	00040513          	mv	a0,s0
80000484:	575010ef          	jal	800021f8 <bench_alloc>
80000488:	00412083          	lw	ra,4(sp)
8000048c:	00012403          	lw	s0,0(sp)
80000490:	00007797          	auipc	a5,0x7
80000494:	6aa7ac23          	sw	a0,1720(a5) # 80007b48 <tmp>
80000498:	00810113          	addi	sp,sp,8
8000049c:	00008067          	ret

800004a0 <bench_fib_run>:
800004a0:	00007797          	auipc	a5,0x7
800004a4:	6ac7a783          	lw	a5,1708(a5) # 80007b4c <T>
800004a8:	fb010113          	addi	sp,sp,-80
800004ac:	00007397          	auipc	t2,0x7
800004b0:	6ac3a383          	lw	t2,1708(t2) # 80007b58 <M>
800004b4:	02f12423          	sw	a5,40(sp)
800004b8:	00007797          	auipc	a5,0x7
800004bc:	6987a783          	lw	a5,1688(a5) # 80007b50 <ans>
800004c0:	04112623          	sw	ra,76(sp)
800004c4:	04812423          	sw	s0,72(sp)
800004c8:	04912223          	sw	s1,68(sp)
800004cc:	02f12823          	sw	a5,48(sp)
800004d0:	08705663          	blez	t2,8000055c <bench_fib_run+0xbc>
800004d4:	00007417          	auipc	s0,0x7
800004d8:	68042403          	lw	s0,1664(s0) # 80007b54 <A>
800004dc:	fff38493          	addi	s1,t2,-1
800004e0:	00000693          	li	a3,0
800004e4:	00000593          	li	a1,0
800004e8:	02812783          	lw	a5,40(sp)
800004ec:	00269713          	slli	a4,a3,0x2
800004f0:	00158613          	addi	a2,a1,1
800004f4:	00e78333          	add	t1,a5,a4
800004f8:	03012783          	lw	a5,48(sp)
800004fc:	00e402b3          	add	t0,s0,a4
80000500:	00c12023          	sw	a2,0(sp)
80000504:	00e78733          	add	a4,a5,a4
80000508:	00812223          	sw	s0,4(sp)
8000050c:	00000793          	li	a5,0
80000510:	00012503          	lw	a0,0(sp)
80000514:	40b78633          	sub	a2,a5,a1
80000518:	00163613          	seqz	a2,a2
8000051c:	40f50433          	sub	s0,a0,a5
80000520:	00178793          	addi	a5,a5,1
80000524:	00100513          	li	a0,1
80000528:	00b48463          	beq	s1,a1,80000530 <bench_fib_run+0x90>
8000052c:	00143513          	seqz	a0,s0
80000530:	00a2a023          	sw	a0,0(t0)
80000534:	00a32023          	sw	a0,0(t1)
80000538:	00c72023          	sw	a2,0(a4)
8000053c:	00428293          	addi	t0,t0,4
80000540:	00430313          	addi	t1,t1,4
80000544:	00470713          	addi	a4,a4,4
80000548:	fc7794e3          	bne	a5,t2,80000510 <bench_fib_run+0x70>
8000054c:	00012583          	lw	a1,0(sp)
80000550:	00412403          	lw	s0,4(sp)
80000554:	007686b3          	add	a3,a3,t2
80000558:	f87598e3          	bne	a1,t2,800004e8 <bench_fib_run+0x48>
8000055c:	00007497          	auipc	s1,0x7
80000560:	5ec4a483          	lw	s1,1516(s1) # 80007b48 <tmp>
80000564:	00239293          	slli	t0,t2,0x2
80000568:	80000437          	lui	s0,0x80000
8000056c:	00548733          	add	a4,s1,t0
80000570:	02e12a23          	sw	a4,52(sp)
80000574:	02812703          	lw	a4,40(sp)
80000578:	fd340413          	addi	s0,s0,-45 # 7fffffd3 <_entry_offset+0x7fffffd3>
8000057c:	01f00593          	li	a1,31
80000580:	00570733          	add	a4,a4,t0
80000584:	02e12c23          	sw	a4,56(sp)
80000588:	2a705463          	blez	t2,80000830 <bench_fib_run+0x390>
8000058c:	03012783          	lw	a5,48(sp)
80000590:	00000513          	li	a0,0
80000594:	02912623          	sw	s1,44(sp)
80000598:	00f286b3          	add	a3,t0,a5
8000059c:	00078313          	mv	t1,a5
800005a0:	02b12e23          	sw	a1,60(sp)
800005a4:	00000793          	li	a5,0
800005a8:	04812023          	sw	s0,64(sp)
800005ac:	02c12603          	lw	a2,44(sp)
800005b0:	00279713          	slli	a4,a5,0x2
800005b4:	02812583          	lw	a1,40(sp)
800005b8:	00c70733          	add	a4,a4,a2
800005bc:	02f12223          	sw	a5,36(sp)
800005c0:	00000613          	li	a2,0
800005c4:	02a12023          	sw	a0,32(sp)
800005c8:	00712c23          	sw	t2,24(sp)
800005cc:	00612e23          	sw	t1,28(sp)
800005d0:	00512423          	sw	t0,8(sp)
800005d4:	00070793          	mv	a5,a4
800005d8:	00d12623          	sw	a3,12(sp)
800005dc:	01c12703          	lw	a4,28(sp)
800005e0:	00000413          	li	s0,0
800005e4:	00040493          	mv	s1,s0
800005e8:	0007a023          	sw	zero,0(a5)
800005ec:	00058313          	mv	t1,a1
800005f0:	00c12823          	sw	a2,16(sp)
800005f4:	00f12223          	sw	a5,4(sp)
800005f8:	00b12a23          	sw	a1,20(sp)
800005fc:	00070413          	mv	s0,a4
80000600:	00032583          	lw	a1,0(t1)
80000604:	00042503          	lw	a0,0(s0)
80000608:	00612023          	sw	t1,0(sp)
8000060c:	00440413          	addi	s0,s0,4
80000610:	7fd040ef          	jal	8000560c <__mulsi3>
80000614:	00412783          	lw	a5,4(sp)
80000618:	00a484b3          	add	s1,s1,a0
8000061c:	00012303          	lw	t1,0(sp)
80000620:	0097a023          	sw	s1,0(a5)
80000624:	00812783          	lw	a5,8(sp)
80000628:	00f30333          	add	t1,t1,a5
8000062c:	00c12783          	lw	a5,12(sp)
80000630:	fcf418e3          	bne	s0,a5,80000600 <bench_fib_run+0x160>
80000634:	01012603          	lw	a2,16(sp)
80000638:	00412783          	lw	a5,4(sp)
8000063c:	01412583          	lw	a1,20(sp)
80000640:	01812703          	lw	a4,24(sp)
80000644:	00160613          	addi	a2,a2,1
80000648:	00478793          	addi	a5,a5,4
8000064c:	00458593          	addi	a1,a1,4
80000650:	f8e616e3          	bne	a2,a4,800005dc <bench_fib_run+0x13c>
80000654:	02012503          	lw	a0,32(sp)
80000658:	00812283          	lw	t0,8(sp)
8000065c:	01c12303          	lw	t1,28(sp)
80000660:	02412783          	lw	a5,36(sp)
80000664:	00150513          	addi	a0,a0,1
80000668:	00060393          	mv	t2,a2
8000066c:	00530333          	add	t1,t1,t0
80000670:	00c787b3          	add	a5,a5,a2
80000674:	005406b3          	add	a3,s0,t0
80000678:	f2c51ae3          	bne	a0,a2,800005ac <bench_fib_run+0x10c>
8000067c:	02c12483          	lw	s1,44(sp)
80000680:	03c12583          	lw	a1,60(sp)
80000684:	04012403          	lw	s0,64(sp)
80000688:	03412683          	lw	a3,52(sp)
8000068c:	00000513          	li	a0,0
80000690:	00000613          	li	a2,0
80000694:	03012303          	lw	t1,48(sp)
80000698:	00251713          	slli	a4,a0,0x2
8000069c:	00e487b3          	add	a5,s1,a4
800006a0:	00e30733          	add	a4,t1,a4
800006a4:	0007a303          	lw	t1,0(a5)
800006a8:	00478793          	addi	a5,a5,4
800006ac:	00470713          	addi	a4,a4,4
800006b0:	fe672e23          	sw	t1,-4(a4)
800006b4:	fed798e3          	bne	a5,a3,800006a4 <bench_fib_run+0x204>
800006b8:	00160613          	addi	a2,a2,1
800006bc:	00750533          	add	a0,a0,t2
800006c0:	005686b3          	add	a3,a3,t0
800006c4:	fc7618e3          	bne	a2,t2,80000694 <bench_fib_run+0x1f4>
800006c8:	03812683          	lw	a3,56(sp)
800006cc:	02812303          	lw	t1,40(sp)
800006d0:	00000793          	li	a5,0
800006d4:	00000513          	li	a0,0
800006d8:	02912623          	sw	s1,44(sp)
800006dc:	02b12e23          	sw	a1,60(sp)
800006e0:	04812023          	sw	s0,64(sp)
800006e4:	02c12603          	lw	a2,44(sp)
800006e8:	00279713          	slli	a4,a5,0x2
800006ec:	02812583          	lw	a1,40(sp)
800006f0:	00c70733          	add	a4,a4,a2
800006f4:	02f12023          	sw	a5,32(sp)
800006f8:	00000613          	li	a2,0
800006fc:	00d12623          	sw	a3,12(sp)
80000700:	00612c23          	sw	t1,24(sp)
80000704:	02a12223          	sw	a0,36(sp)
80000708:	00070793          	mv	a5,a4
8000070c:	00712e23          	sw	t2,28(sp)
80000710:	00512423          	sw	t0,8(sp)
80000714:	01812403          	lw	s0,24(sp)
80000718:	0007a023          	sw	zero,0(a5)
8000071c:	00000713          	li	a4,0
80000720:	00040493          	mv	s1,s0
80000724:	00c12823          	sw	a2,16(sp)
80000728:	00058413          	mv	s0,a1
8000072c:	00b12a23          	sw	a1,20(sp)
80000730:	00f12223          	sw	a5,4(sp)
80000734:	00042583          	lw	a1,0(s0)
80000738:	0004a503          	lw	a0,0(s1)
8000073c:	00e12023          	sw	a4,0(sp)
80000740:	00448493          	addi	s1,s1,4
80000744:	6c9040ef          	jal	8000560c <__mulsi3>
80000748:	00012703          	lw	a4,0(sp)
8000074c:	00412783          	lw	a5,4(sp)
80000750:	00a70733          	add	a4,a4,a0
80000754:	00e7a023          	sw	a4,0(a5)
80000758:	00812783          	lw	a5,8(sp)
8000075c:	00f40433          	add	s0,s0,a5
80000760:	00c12783          	lw	a5,12(sp)
80000764:	fcf498e3          	bne	s1,a5,80000734 <bench_fib_run+0x294>
80000768:	01012603          	lw	a2,16(sp)
8000076c:	01412583          	lw	a1,20(sp)
80000770:	00412783          	lw	a5,4(sp)
80000774:	01c12703          	lw	a4,28(sp)
80000778:	00160613          	addi	a2,a2,1
8000077c:	00478793          	addi	a5,a5,4
80000780:	00458593          	addi	a1,a1,4
80000784:	f8e618e3          	bne	a2,a4,80000714 <bench_fib_run+0x274>
80000788:	02412503          	lw	a0,36(sp)
8000078c:	00812283          	lw	t0,8(sp)
80000790:	02012783          	lw	a5,32(sp)
80000794:	01812303          	lw	t1,24(sp)
80000798:	00150513          	addi	a0,a0,1
8000079c:	00060393          	mv	t2,a2
800007a0:	00530333          	add	t1,t1,t0
800007a4:	00c787b3          	add	a5,a5,a2
800007a8:	005486b3          	add	a3,s1,t0
800007ac:	f2c51ce3          	bne	a0,a2,800006e4 <bench_fib_run+0x244>
800007b0:	02c12483          	lw	s1,44(sp)
800007b4:	03c12583          	lw	a1,60(sp)
800007b8:	04012403          	lw	s0,64(sp)
800007bc:	03412683          	lw	a3,52(sp)
800007c0:	02812303          	lw	t1,40(sp)
800007c4:	00000513          	li	a0,0
800007c8:	00000613          	li	a2,0
800007cc:	00251713          	slli	a4,a0,0x2
800007d0:	009707b3          	add	a5,a4,s1
800007d4:	00c12023          	sw	a2,0(sp)
800007d8:	00e30733          	add	a4,t1,a4
800007dc:	0007a603          	lw	a2,0(a5)
800007e0:	00478793          	addi	a5,a5,4
800007e4:	00470713          	addi	a4,a4,4
800007e8:	fec72e23          	sw	a2,-4(a4)
800007ec:	fef698e3          	bne	a3,a5,800007dc <bench_fib_run+0x33c>
800007f0:	00012603          	lw	a2,0(sp)
800007f4:	00750533          	add	a0,a0,t2
800007f8:	005686b3          	add	a3,a3,t0
800007fc:	00160613          	addi	a2,a2,1
80000800:	fc7616e3          	bne	a2,t2,800007cc <bench_fib_run+0x32c>
80000804:	fff58593          	addi	a1,a1,-1
80000808:	06058663          	beqz	a1,80000874 <bench_fib_run+0x3d4>
8000080c:	40145413          	srai	s0,s0,0x1
80000810:	00147793          	andi	a5,s0,1
80000814:	ea078ae3          	beqz	a5,800006c8 <bench_fib_run+0x228>
80000818:	d75ff06f          	j	8000058c <bench_fib_run+0xec>
8000081c:	40145413          	srai	s0,s0,0x1
80000820:	fff58593          	addi	a1,a1,-1
80000824:	00147793          	andi	a5,s0,1
80000828:	04058663          	beqz	a1,80000874 <bench_fib_run+0x3d4>
8000082c:	fe0788e3          	beqz	a5,8000081c <bench_fib_run+0x37c>
80000830:	00058713          	mv	a4,a1
80000834:	00040793          	mv	a5,s0
80000838:	fff58593          	addi	a1,a1,-1
8000083c:	40145413          	srai	s0,s0,0x1
80000840:	00147693          	andi	a3,s0,1
80000844:	02058863          	beqz	a1,80000874 <bench_fib_run+0x3d4>
80000848:	fe0694e3          	bnez	a3,80000830 <bench_fib_run+0x390>
8000084c:	4027d413          	srai	s0,a5,0x2
80000850:	ffe70593          	addi	a1,a4,-2
80000854:	00147793          	andi	a5,s0,1
80000858:	00058e63          	beqz	a1,80000874 <bench_fib_run+0x3d4>
8000085c:	fc079ae3          	bnez	a5,80000830 <bench_fib_run+0x390>
80000860:	fa705ee3          	blez	t2,8000081c <bench_fib_run+0x37c>
80000864:	02812783          	lw	a5,40(sp)
80000868:	005787b3          	add	a5,a5,t0
8000086c:	02f12c23          	sw	a5,56(sp)
80000870:	e59ff06f          	j	800006c8 <bench_fib_run+0x228>
80000874:	04c12083          	lw	ra,76(sp)
80000878:	04812403          	lw	s0,72(sp)
8000087c:	04412483          	lw	s1,68(sp)
80000880:	05010113          	addi	sp,sp,80
80000884:	00008067          	ret

80000888 <bench_fib_validate>:
80000888:	00007517          	auipc	a0,0x7
8000088c:	2d052503          	lw	a0,720(a0) # 80007b58 <M>
80000890:	ff810113          	addi	sp,sp,-8
80000894:	00112223          	sw	ra,4(sp)
80000898:	fff50593          	addi	a1,a0,-1
8000089c:	00b12023          	sw	a1,0(sp)
800008a0:	56d040ef          	jal	8000560c <__mulsi3>
800008a4:	00012583          	lw	a1,0(sp)
800008a8:	00007797          	auipc	a5,0x7
800008ac:	2a87a783          	lw	a5,680(a5) # 80007b50 <ans>
800008b0:	00007717          	auipc	a4,0x7
800008b4:	2bc72703          	lw	a4,700(a4) # 80007b6c <setting>
800008b8:	00b50533          	add	a0,a0,a1
800008bc:	00251513          	slli	a0,a0,0x2
800008c0:	00a787b3          	add	a5,a5,a0
800008c4:	0007a503          	lw	a0,0(a5)
800008c8:	00c72783          	lw	a5,12(a4)
800008cc:	00412083          	lw	ra,4(sp)
800008d0:	40f50533          	sub	a0,a0,a5
800008d4:	00153513          	seqz	a0,a0
800008d8:	00810113          	addi	sp,sp,8
800008dc:	00008067          	ret

800008e0 <_ZNK14Updatable_heapI8N_puzzleILi4EEE7pointerERKS1_.isra.0>:
800008e0:	00064283          	lbu	t0,0(a2)
800008e4:	00028c63          	beqz	t0,800008fc <_ZNK14Updatable_heapI8N_puzzleILi4EEE7pointerERKS1_.isra.0+0x1c>
800008e8:	01462703          	lw	a4,20(a2)
800008ec:	fff50793          	addi	a5,a0,-1
800008f0:	00e7f7b3          	and	a5,a5,a4
800008f4:	00279793          	slli	a5,a5,0x2
800008f8:	00f585b3          	add	a1,a1,a5
800008fc:	0005a503          	lw	a0,0(a1)
80000900:	08050e63          	beqz	a0,8000099c <_ZNK14Updatable_heapI8N_puzzleILi4EEE7pointerERKS1_.isra.0+0xbc>
80000904:	00400393          	li	t2,4
80000908:	00054783          	lbu	a5,0(a0)
8000090c:	08078263          	beqz	a5,80000990 <_ZNK14Updatable_heapI8N_puzzleILi4EEE7pointerERKS1_.isra.0+0xb0>
80000910:	08028063          	beqz	t0,80000990 <_ZNK14Updatable_heapI8N_puzzleILi4EEE7pointerERKS1_.isra.0+0xb0>
80000914:	01452703          	lw	a4,20(a0)
80000918:	01462783          	lw	a5,20(a2)
8000091c:	06f71a63          	bne	a4,a5,80000990 <_ZNK14Updatable_heapI8N_puzzleILi4EEE7pointerERKS1_.isra.0+0xb0>
80000920:	ffc10113          	addi	sp,sp,-4
80000924:	00812023          	sw	s0,0(sp)
80000928:	00050593          	mv	a1,a0
8000092c:	00060313          	mv	t1,a2
80000930:	01050413          	addi	s0,a0,16
80000934:	00000793          	li	a5,0
80000938:	00f586b3          	add	a3,a1,a5
8000093c:	00f30733          	add	a4,t1,a5
80000940:	00468683          	lb	a3,4(a3)
80000944:	00470703          	lb	a4,4(a4)
80000948:	00178793          	addi	a5,a5,1
8000094c:	02e69063          	bne	a3,a4,8000096c <_ZNK14Updatable_heapI8N_puzzleILi4EEE7pointerERKS1_.isra.0+0x8c>
80000950:	fe7794e3          	bne	a5,t2,80000938 <_ZNK14Updatable_heapI8N_puzzleILi4EEE7pointerERKS1_.isra.0+0x58>
80000954:	00458593          	addi	a1,a1,4
80000958:	00430313          	addi	t1,t1,4
8000095c:	fc859ce3          	bne	a1,s0,80000934 <_ZNK14Updatable_heapI8N_puzzleILi4EEE7pointerERKS1_.isra.0+0x54>
80000960:	00012403          	lw	s0,0(sp)
80000964:	00410113          	addi	sp,sp,4
80000968:	00008067          	ret
8000096c:	01852503          	lw	a0,24(a0)
80000970:	fe0508e3          	beqz	a0,80000960 <_ZNK14Updatable_heapI8N_puzzleILi4EEE7pointerERKS1_.isra.0+0x80>
80000974:	00054783          	lbu	a5,0(a0)
80000978:	fe078ae3          	beqz	a5,8000096c <_ZNK14Updatable_heapI8N_puzzleILi4EEE7pointerERKS1_.isra.0+0x8c>
8000097c:	fe0288e3          	beqz	t0,8000096c <_ZNK14Updatable_heapI8N_puzzleILi4EEE7pointerERKS1_.isra.0+0x8c>
80000980:	01452703          	lw	a4,20(a0)
80000984:	01462783          	lw	a5,20(a2)
80000988:	fef712e3          	bne	a4,a5,8000096c <_ZNK14Updatable_heapI8N_puzzleILi4EEE7pointerERKS1_.isra.0+0x8c>
8000098c:	f9dff06f          	j	80000928 <_ZNK14Updatable_heapI8N_puzzleILi4EEE7pointerERKS1_.isra.0+0x48>
80000990:	01852503          	lw	a0,24(a0)
80000994:	f6051ae3          	bnez	a0,80000908 <_ZNK14Updatable_heapI8N_puzzleILi4EEE7pointerERKS1_.isra.0+0x28>
80000998:	00008067          	ret
8000099c:	00008067          	ret

800009a0 <bench_15pz_prepare>:
800009a0:	00008067          	ret

800009a4 <bench_15pz_validate>:
800009a4:	00007717          	auipc	a4,0x7
800009a8:	1c872703          	lw	a4,456(a4) # 80007b6c <setting>
800009ac:	00007797          	auipc	a5,0x7
800009b0:	1b07a783          	lw	a5,432(a5) # 80007b5c <_ZL3ans>
800009b4:	00c72503          	lw	a0,12(a4)
800009b8:	40f50533          	sub	a0,a0,a5
800009bc:	00153513          	seqz	a0,a0
800009c0:	00008067          	ret

800009c4 <_ZN8N_puzzleILi4EEC1Ev>:
800009c4:	fa410113          	addi	sp,sp,-92
800009c8:	04912823          	sw	s1,80(sp)
800009cc:	00100793          	li	a5,1
800009d0:	04112c23          	sw	ra,88(sp)
800009d4:	04812a23          	sw	s0,84(sp)
800009d8:	01010293          	addi	t0,sp,16
800009dc:	00f52023          	sw	a5,0(a0)
800009e0:	00050493          	mv	s1,a0
800009e4:	00028693          	mv	a3,t0
800009e8:	00000793          	li	a5,0
800009ec:	01000613          	li	a2,16
800009f0:	00f6a023          	sw	a5,0(a3)
800009f4:	00178793          	addi	a5,a5,1
800009f8:	00468693          	addi	a3,a3,4
800009fc:	fec79ae3          	bne	a5,a2,800009f0 <_ZN8N_puzzleILi4EEC1Ev+0x2c>
80000a00:	00000713          	li	a4,0
80000a04:	00271793          	slli	a5,a4,0x2
80000a08:	00f12623          	sw	a5,12(sp)
80000a0c:	00471313          	slli	t1,a4,0x4
80000a10:	00f487b3          	add	a5,s1,a5
80000a14:	00f12423          	sw	a5,8(sp)
80000a18:	40628333          	sub	t1,t0,t1
80000a1c:	00000413          	li	s0,0
80000a20:	00e12223          	sw	a4,4(sp)
80000a24:	00612023          	sw	t1,0(sp)
80000a28:	089010ef          	jal	800022b0 <bench_rand>
80000a2c:	00c12783          	lw	a5,12(sp)
80000a30:	01000593          	li	a1,16
80000a34:	40f585b3          	sub	a1,a1,a5
80000a38:	408585b3          	sub	a1,a1,s0
80000a3c:	36d040ef          	jal	800055a8 <__umodsi3>
80000a40:	00251513          	slli	a0,a0,0x2
80000a44:	01010293          	addi	t0,sp,16
80000a48:	00a287b3          	add	a5,t0,a0
80000a4c:	0007a583          	lw	a1,0(a5)
80000a50:	00812783          	lw	a5,8(sp)
80000a54:	00012303          	lw	t1,0(sp)
80000a58:	fff58693          	addi	a3,a1,-1
80000a5c:	008787b3          	add	a5,a5,s0
80000a60:	00b78223          	sb	a1,4(a5)
80000a64:	00412703          	lw	a4,4(sp)
80000a68:	41f6d793          	srai	a5,a3,0x1f
80000a6c:	08059863          	bnez	a1,80000afc <_ZN8N_puzzleILi4EEC1Ev+0x138>
80000a70:	00e480a3          	sb	a4,1(s1)
80000a74:	00848123          	sb	s0,2(s1)
80000a78:	03c32783          	lw	a5,60(t1)
80000a7c:	00a28533          	add	a0,t0,a0
80000a80:	00140413          	addi	s0,s0,1
80000a84:	00f52023          	sw	a5,0(a0)
80000a88:	00400793          	li	a5,4
80000a8c:	ffc30313          	addi	t1,t1,-4
80000a90:	f8f418e3          	bne	s0,a5,80000a20 <_ZN8N_puzzleILi4EEC1Ev+0x5c>
80000a94:	00170713          	addi	a4,a4,1
80000a98:	f68716e3          	bne	a4,s0,80000a04 <_ZN8N_puzzleILi4EEC1Ev+0x40>
80000a9c:	00848633          	add	a2,s1,s0
80000aa0:	01448593          	addi	a1,s1,20
80000aa4:	00000513          	li	a0,0
80000aa8:	ffc60693          	addi	a3,a2,-4
80000aac:	00551793          	slli	a5,a0,0x5
80000ab0:	40a787b3          	sub	a5,a5,a0
80000ab4:	00279793          	slli	a5,a5,0x2
80000ab8:	40a787b3          	sub	a5,a5,a0
80000abc:	00279793          	slli	a5,a5,0x2
80000ac0:	00468303          	lb	t1,4(a3)
80000ac4:	00a787b3          	add	a5,a5,a0
80000ac8:	00279793          	slli	a5,a5,0x2
80000acc:	00a787b3          	add	a5,a5,a0
80000ad0:	00168693          	addi	a3,a3,1
80000ad4:	00678533          	add	a0,a5,t1
80000ad8:	fcd61ae3          	bne	a2,a3,80000aac <_ZN8N_puzzleILi4EEC1Ev+0xe8>
80000adc:	00460613          	addi	a2,a2,4
80000ae0:	fcc594e3          	bne	a1,a2,80000aa8 <_ZN8N_puzzleILi4EEC1Ev+0xe4>
80000ae4:	05812083          	lw	ra,88(sp)
80000ae8:	05412403          	lw	s0,84(sp)
80000aec:	00a4aa23          	sw	a0,20(s1)
80000af0:	05012483          	lw	s1,80(sp)
80000af4:	05c10113          	addi	sp,sp,92
80000af8:	00008067          	ret
80000afc:	01e7d593          	srli	a1,a5,0x1e
80000b00:	0037f793          	andi	a5,a5,3
80000b04:	00d787b3          	add	a5,a5,a3
80000b08:	00b686b3          	add	a3,a3,a1
80000b0c:	0036f693          	andi	a3,a3,3
80000b10:	40b686b3          	sub	a3,a3,a1
80000b14:	408686b3          	sub	a3,a3,s0
80000b18:	41f6d593          	srai	a1,a3,0x1f
80000b1c:	4027d793          	srai	a5,a5,0x2
80000b20:	40e787b3          	sub	a5,a5,a4
80000b24:	00d5c6b3          	xor	a3,a1,a3
80000b28:	40b686b3          	sub	a3,a3,a1
80000b2c:	41f7d593          	srai	a1,a5,0x1f
80000b30:	00f5c7b3          	xor	a5,a1,a5
80000b34:	40b787b3          	sub	a5,a5,a1
80000b38:	0034c583          	lbu	a1,3(s1)
80000b3c:	00d787b3          	add	a5,a5,a3
80000b40:	00b787b3          	add	a5,a5,a1
80000b44:	00f481a3          	sb	a5,3(s1)
80000b48:	f31ff06f          	j	80000a78 <_ZN8N_puzzleILi4EEC1Ev+0xb4>

80000b4c <_ZN8N_puzzleILi4EEC1EPi>:
80000b4c:	fe010113          	addi	sp,sp,-32
80000b50:	00812e23          	sw	s0,28(sp)
80000b54:	00100413          	li	s0,1
80000b58:	00912c23          	sw	s1,24(sp)
80000b5c:	00012423          	sw	zero,8(sp)
80000b60:	00012623          	sw	zero,12(sp)
80000b64:	00012823          	sw	zero,16(sp)
80000b68:	00012a23          	sw	zero,20(sp)
80000b6c:	00852023          	sw	s0,0(a0)
80000b70:	00050493          	mv	s1,a0
80000b74:	00000393          	li	t2,0
80000b78:	00000313          	li	t1,0
80000b7c:	00b12223          	sw	a1,4(sp)
80000b80:	00412783          	lw	a5,4(sp)
80000b84:	00231593          	slli	a1,t1,0x2
80000b88:	00000693          	li	a3,0
80000b8c:	00b785b3          	add	a1,a5,a1
80000b90:	00612023          	sw	t1,0(sp)
80000b94:	0005a603          	lw	a2,0(a1)
80000b98:	00d487b3          	add	a5,s1,a3
80000b9c:	fff60293          	addi	t0,a2,-1
80000ba0:	00c78223          	sb	a2,4(a5)
80000ba4:	41f2d793          	srai	a5,t0,0x1f
80000ba8:	01e7d313          	srli	t1,a5,0x1e
80000bac:	00628733          	add	a4,t0,t1
80000bb0:	00377713          	andi	a4,a4,3
80000bb4:	40670733          	sub	a4,a4,t1
80000bb8:	0037f793          	andi	a5,a5,3
80000bbc:	005787b3          	add	a5,a5,t0
80000bc0:	40d70733          	sub	a4,a4,a3
80000bc4:	41f75313          	srai	t1,a4,0x1f
80000bc8:	4027d793          	srai	a5,a5,0x2
80000bcc:	407787b3          	sub	a5,a5,t2
80000bd0:	00e34733          	xor	a4,t1,a4
80000bd4:	41f7d293          	srai	t0,a5,0x1f
80000bd8:	40670733          	sub	a4,a4,t1
80000bdc:	00260333          	add	t1,a2,sp
80000be0:	00f2c7b3          	xor	a5,t0,a5
80000be4:	00830423          	sb	s0,8(t1)
80000be8:	405787b3          	sub	a5,a5,t0
80000bec:	0a061463          	bnez	a2,80000c94 <_ZN8N_puzzleILi4EEC1EPi+0x148>
80000bf0:	007500a3          	sb	t2,1(a0)
80000bf4:	00d50123          	sb	a3,2(a0)
80000bf8:	00168693          	addi	a3,a3,1
80000bfc:	00400793          	li	a5,4
80000c00:	00458593          	addi	a1,a1,4
80000c04:	f8f698e3          	bne	a3,a5,80000b94 <_ZN8N_puzzleILi4EEC1EPi+0x48>
80000c08:	00012303          	lw	t1,0(sp)
80000c0c:	01000793          	li	a5,16
80000c10:	00138393          	addi	t2,t2,1
80000c14:	00d30333          	add	t1,t1,a3
80000c18:	00d484b3          	add	s1,s1,a3
80000c1c:	f6f312e3          	bne	t1,a5,80000b80 <_ZN8N_puzzleILi4EEC1EPi+0x34>
80000c20:	00810793          	addi	a5,sp,8
80000c24:	0007c703          	lbu	a4,0(a5)
80000c28:	00178793          	addi	a5,a5,1
80000c2c:	06070e63          	beqz	a4,80000ca8 <_ZN8N_puzzleILi4EEC1EPi+0x15c>
80000c30:	01810713          	addi	a4,sp,24
80000c34:	fee798e3          	bne	a5,a4,80000c24 <_ZN8N_puzzleILi4EEC1EPi+0xd8>
80000c38:	00450613          	addi	a2,a0,4
80000c3c:	01450593          	addi	a1,a0,20
80000c40:	00000693          	li	a3,0
80000c44:	ffc60713          	addi	a4,a2,-4
80000c48:	00569793          	slli	a5,a3,0x5
80000c4c:	40d787b3          	sub	a5,a5,a3
80000c50:	00279793          	slli	a5,a5,0x2
80000c54:	40d787b3          	sub	a5,a5,a3
80000c58:	00279793          	slli	a5,a5,0x2
80000c5c:	00470303          	lb	t1,4(a4)
80000c60:	00d787b3          	add	a5,a5,a3
80000c64:	00279793          	slli	a5,a5,0x2
80000c68:	00d787b3          	add	a5,a5,a3
80000c6c:	00170713          	addi	a4,a4,1
80000c70:	006786b3          	add	a3,a5,t1
80000c74:	fce61ae3          	bne	a2,a4,80000c48 <_ZN8N_puzzleILi4EEC1EPi+0xfc>
80000c78:	00460613          	addi	a2,a2,4
80000c7c:	fcc594e3          	bne	a1,a2,80000c44 <_ZN8N_puzzleILi4EEC1EPi+0xf8>
80000c80:	01c12403          	lw	s0,28(sp)
80000c84:	00d52a23          	sw	a3,20(a0)
80000c88:	01812483          	lw	s1,24(sp)
80000c8c:	02010113          	addi	sp,sp,32
80000c90:	00008067          	ret
80000c94:	00e787b3          	add	a5,a5,a4
80000c98:	00354703          	lbu	a4,3(a0)
80000c9c:	00e787b3          	add	a5,a5,a4
80000ca0:	00f501a3          	sb	a5,3(a0)
80000ca4:	f55ff06f          	j	80000bf8 <_ZN8N_puzzleILi4EEC1EPi+0xac>
80000ca8:	01c12403          	lw	s0,28(sp)
80000cac:	00050023          	sb	zero,0(a0)
80000cb0:	01812483          	lw	s1,24(sp)
80000cb4:	02010113          	addi	sp,sp,32
80000cb8:	00008067          	ret

80000cbc <_ZN14Updatable_heapI8N_puzzleILi4EEE12percolate_upEi>:
80000cbc:	00100313          	li	t1,1
80000cc0:	06658a63          	beq	a1,t1,80000d34 <_ZN14Updatable_heapI8N_puzzleILi4EEE12percolate_upEi+0x78>
80000cc4:	00852683          	lw	a3,8(a0)
80000cc8:	00259793          	slli	a5,a1,0x2
80000ccc:	ffc10113          	addi	sp,sp,-4
80000cd0:	00f687b3          	add	a5,a3,a5
80000cd4:	0007a603          	lw	a2,0(a5)
80000cd8:	00812023          	sw	s0,0(sp)
80000cdc:	02462503          	lw	a0,36(a2)
80000ce0:	01c0006f          	j	80000cfc <_ZN14Updatable_heapI8N_puzzleILi4EEE12percolate_upEi+0x40>
80000ce4:	00772023          	sw	t2,0(a4)
80000ce8:	00c7a023          	sw	a2,0(a5)
80000cec:	00072783          	lw	a5,0(a4)
80000cf0:	00b62e23          	sw	a1,28(a2)
80000cf4:	0057ae23          	sw	t0,28(a5)
80000cf8:	02658863          	beq	a1,t1,80000d28 <_ZN14Updatable_heapI8N_puzzleILi4EEE12percolate_upEi+0x6c>
80000cfc:	01f5d793          	srli	a5,a1,0x1f
80000d00:	00b787b3          	add	a5,a5,a1
80000d04:	00058293          	mv	t0,a1
80000d08:	4017d593          	srai	a1,a5,0x1
80000d0c:	00259793          	slli	a5,a1,0x2
80000d10:	00f687b3          	add	a5,a3,a5
80000d14:	0007a383          	lw	t2,0(a5)
80000d18:	00229713          	slli	a4,t0,0x2
80000d1c:	00e68733          	add	a4,a3,a4
80000d20:	0243a403          	lw	s0,36(t2)
80000d24:	fc8540e3          	blt	a0,s0,80000ce4 <_ZN14Updatable_heapI8N_puzzleILi4EEE12percolate_upEi+0x28>
80000d28:	00012403          	lw	s0,0(sp)
80000d2c:	00410113          	addi	sp,sp,4
80000d30:	00008067          	ret
80000d34:	00008067          	ret

80000d38 <_ZN14Updatable_heapI8N_puzzleILi4EEE4pushERKS1_i>:
80000d38:	fe810113          	addi	sp,sp,-24
80000d3c:	00812823          	sw	s0,16(sp)
80000d40:	00052403          	lw	s0,0(a0)
80000d44:	00058793          	mv	a5,a1
80000d48:	00b12023          	sw	a1,0(sp)
80000d4c:	00452583          	lw	a1,4(a0)
80000d50:	00912623          	sw	s1,12(sp)
80000d54:	00c12223          	sw	a2,4(sp)
80000d58:	00050493          	mv	s1,a0
80000d5c:	00078613          	mv	a2,a5
80000d60:	00040513          	mv	a0,s0
80000d64:	00112a23          	sw	ra,20(sp)
80000d68:	b79ff0ef          	jal	800008e0 <_ZNK14Updatable_heapI8N_puzzleILi4EEE7pointerERKS1_.isra.0>
80000d6c:	04050063          	beqz	a0,80000dac <_ZN14Updatable_heapI8N_puzzleILi4EEE4pushERKS1_i+0x74>
80000d70:	02854783          	lbu	a5,40(a0)
80000d74:	02079263          	bnez	a5,80000d98 <_ZN14Updatable_heapI8N_puzzleILi4EEE4pushERKS1_i+0x60>
80000d78:	00054703          	lbu	a4,0(a0)
80000d7c:	04000793          	li	a5,64
80000d80:	00070463          	beqz	a4,80000d88 <_ZN14Updatable_heapI8N_puzzleILi4EEE4pushERKS1_i+0x50>
80000d84:	00350783          	lb	a5,3(a0)
80000d88:	00412683          	lw	a3,4(sp)
80000d8c:	02452703          	lw	a4,36(a0)
80000d90:	00f687b3          	add	a5,a3,a5
80000d94:	12e7ce63          	blt	a5,a4,80000ed0 <_ZN14Updatable_heapI8N_puzzleILi4EEE4pushERKS1_i+0x198>
80000d98:	01412083          	lw	ra,20(sp)
80000d9c:	01012403          	lw	s0,16(sp)
80000da0:	00c12483          	lw	s1,12(sp)
80000da4:	01810113          	addi	sp,sp,24
80000da8:	00008067          	ret
80000dac:	00c4a783          	lw	a5,12(s1)
80000db0:	14f44a63          	blt	s0,a5,80000f04 <_ZN14Updatable_heapI8N_puzzleILi4EEE4pushERKS1_i+0x1cc>
80000db4:	00178793          	addi	a5,a5,1
80000db8:	00f4a623          	sw	a5,12(s1)
80000dbc:	03000513          	li	a0,48
80000dc0:	438010ef          	jal	800021f8 <bench_alloc>
80000dc4:	00012783          	lw	a5,0(sp)
80000dc8:	0004a683          	lw	a3,0(s1)
80000dcc:	0044a583          	lw	a1,4(s1)
80000dd0:	0007c383          	lbu	t2,0(a5)
80000dd4:	0147a283          	lw	t0,20(a5)
80000dd8:	fff68713          	addi	a4,a3,-1
80000ddc:	007037b3          	snez	a5,t2
80000de0:	40f007b3          	neg	a5,a5
80000de4:	00f2f7b3          	and	a5,t0,a5
80000de8:	00f777b3          	and	a5,a4,a5
80000dec:	00279793          	slli	a5,a5,0x2
80000df0:	00f587b3          	add	a5,a1,a5
80000df4:	0007a783          	lw	a5,0(a5)
80000df8:	00c4a403          	lw	s0,12(s1)
80000dfc:	00750023          	sb	t2,0(a0)
80000e00:	00f12423          	sw	a5,8(sp)
80000e04:	00012783          	lw	a5,0(sp)
80000e08:	0017c603          	lbu	a2,1(a5)
80000e0c:	00478693          	addi	a3,a5,4
80000e10:	00450793          	addi	a5,a0,4
80000e14:	00c500a3          	sb	a2,1(a0)
80000e18:	00012603          	lw	a2,0(sp)
80000e1c:	00264303          	lbu	t1,2(a2)
80000e20:	01450613          	addi	a2,a0,20
80000e24:	00650123          	sb	t1,2(a0)
80000e28:	00012303          	lw	t1,0(sp)
80000e2c:	00330303          	lb	t1,3(t1)
80000e30:	00552a23          	sw	t0,20(a0)
80000e34:	006501a3          	sb	t1,3(a0)
80000e38:	0006a283          	lw	t0,0(a3)
80000e3c:	00478793          	addi	a5,a5,4
80000e40:	00468693          	addi	a3,a3,4
80000e44:	fe57ae23          	sw	t0,-4(a5)
80000e48:	fec798e3          	bne	a5,a2,80000e38 <_ZN14Updatable_heapI8N_puzzleILi4EEE4pushERKS1_i+0x100>
80000e4c:	00812783          	lw	a5,8(sp)
80000e50:	00852e23          	sw	s0,28(a0)
80000e54:	00f52c23          	sw	a5,24(a0)
80000e58:	00412783          	lw	a5,4(sp)
80000e5c:	02f52023          	sw	a5,32(a0)
80000e60:	08038863          	beqz	t2,80000ef0 <_ZN14Updatable_heapI8N_puzzleILi4EEE4pushERKS1_i+0x1b8>
80000e64:	00012783          	lw	a5,0(sp)
80000e68:	00412683          	lw	a3,4(sp)
80000e6c:	0147a783          	lw	a5,20(a5)
80000e70:	00d30333          	add	t1,t1,a3
80000e74:	02652223          	sw	t1,36(a0)
80000e78:	00f777b3          	and	a5,a4,a5
80000e7c:	00279793          	slli	a5,a5,0x2
80000e80:	00f585b3          	add	a1,a1,a5
80000e84:	02050423          	sb	zero,40(a0)
80000e88:	02052623          	sw	zero,44(a0)
80000e8c:	0084a783          	lw	a5,8(s1)
80000e90:	00241713          	slli	a4,s0,0x2
80000e94:	00a5a023          	sw	a0,0(a1)
80000e98:	00e787b3          	add	a5,a5,a4
80000e9c:	00a7a023          	sw	a0,0(a5)
80000ea0:	00040593          	mv	a1,s0
80000ea4:	00048513          	mv	a0,s1
80000ea8:	e15ff0ef          	jal	80000cbc <_ZN14Updatable_heapI8N_puzzleILi4EEE12percolate_upEi>
80000eac:	0104a783          	lw	a5,16(s1)
80000eb0:	0087d463          	bge	a5,s0,80000eb8 <_ZN14Updatable_heapI8N_puzzleILi4EEE4pushERKS1_i+0x180>
80000eb4:	00040793          	mv	a5,s0
80000eb8:	01412083          	lw	ra,20(sp)
80000ebc:	01012403          	lw	s0,16(sp)
80000ec0:	00f4a823          	sw	a5,16(s1)
80000ec4:	00c12483          	lw	s1,12(sp)
80000ec8:	01810113          	addi	sp,sp,24
80000ecc:	00008067          	ret
80000ed0:	01012403          	lw	s0,16(sp)
80000ed4:	01c52583          	lw	a1,28(a0)
80000ed8:	01412083          	lw	ra,20(sp)
80000edc:	02f52223          	sw	a5,36(a0)
80000ee0:	00048513          	mv	a0,s1
80000ee4:	00c12483          	lw	s1,12(sp)
80000ee8:	01810113          	addi	sp,sp,24
80000eec:	dd1ff06f          	j	80000cbc <_ZN14Updatable_heapI8N_puzzleILi4EEE12percolate_upEi>
80000ef0:	04078793          	addi	a5,a5,64
80000ef4:	02f52223          	sw	a5,36(a0)
80000ef8:	02050423          	sb	zero,40(a0)
80000efc:	02052623          	sw	zero,44(a0)
80000f00:	f8dff06f          	j	80000e8c <_ZN14Updatable_heapI8N_puzzleILi4EEE4pushERKS1_i+0x154>
80000f04:	09800613          	li	a2,152
80000f08:	00006597          	auipc	a1,0x6
80000f0c:	dd458593          	addi	a1,a1,-556 # 80006cdc <k+0x100>
80000f10:	00006517          	auipc	a0,0x6
80000f14:	e1c50513          	addi	a0,a0,-484 # 80006d2c <k+0x150>
80000f18:	7cc040ef          	jal	800056e4 <printf>
80000f1c:	00100513          	li	a0,1
80000f20:	48c040ef          	jal	800053ac <halt>

80000f24 <_ZN14Updatable_heapI8N_puzzleILi4EEE14percolate_downEv>:
80000f24:	00c52783          	lw	a5,12(a0)
80000f28:	ff010113          	addi	sp,sp,-16
80000f2c:	00200713          	li	a4,2
80000f30:	00f12023          	sw	a5,0(sp)
80000f34:	12f75263          	bge	a4,a5,80001058 <_ZN14Updatable_heapI8N_puzzleILi4EEE14percolate_downEv+0x134>
80000f38:	00852583          	lw	a1,8(a0)
80000f3c:	00812623          	sw	s0,12(sp)
80000f40:	00912423          	sw	s1,8(sp)
80000f44:	00100693          	li	a3,1
80000f48:	00a12223          	sw	a0,4(sp)
80000f4c:	00269513          	slli	a0,a3,0x2
80000f50:	00a58333          	add	t1,a1,a0
80000f54:	00a30533          	add	a0,t1,a0
80000f58:	00052283          	lw	t0,0(a0)
80000f5c:	00032403          	lw	s0,0(t1)
80000f60:	00369513          	slli	a0,a3,0x3
80000f64:	00a58533          	add	a0,a1,a0
80000f68:	00452503          	lw	a0,4(a0)
80000f6c:	0242a283          	lw	t0,36(t0)
80000f70:	02442483          	lw	s1,36(s0)
80000f74:	00170393          	addi	t2,a4,1
80000f78:	00271793          	slli	a5,a4,0x2
80000f7c:	00239613          	slli	a2,t2,0x2
80000f80:	02452503          	lw	a0,36(a0)
80000f84:	00f587b3          	add	a5,a1,a5
80000f88:	00c58633          	add	a2,a1,a2
80000f8c:	0054d463          	bge	s1,t0,80000f94 <_ZN14Updatable_heapI8N_puzzleILi4EEE14percolate_downEv+0x70>
80000f90:	06a4c663          	blt	s1,a0,80000ffc <_ZN14Updatable_heapI8N_puzzleILi4EEE14percolate_downEv+0xd8>
80000f94:	04a2d463          	bge	t0,a0,80000fdc <_ZN14Updatable_heapI8N_puzzleILi4EEE14percolate_downEv+0xb8>
80000f98:	0007a603          	lw	a2,0(a5)
80000f9c:	0087a023          	sw	s0,0(a5)
80000fa0:	00c32023          	sw	a2,0(t1)
80000fa4:	0007a783          	lw	a5,0(a5)
80000fa8:	00d62e23          	sw	a3,28(a2)
80000fac:	00070693          	mv	a3,a4
80000fb0:	00e7ae23          	sw	a4,28(a5)
80000fb4:	00012783          	lw	a5,0(sp)
80000fb8:	00169713          	slli	a4,a3,0x1
80000fbc:	f8f748e3          	blt	a4,a5,80000f4c <_ZN14Updatable_heapI8N_puzzleILi4EEE14percolate_downEv+0x28>
80000fc0:	00412503          	lw	a0,4(sp)
80000fc4:	00c12403          	lw	s0,12(sp)
80000fc8:	00812483          	lw	s1,8(sp)
80000fcc:	00012783          	lw	a5,0(sp)
80000fd0:	02f70e63          	beq	a4,a5,8000100c <_ZN14Updatable_heapI8N_puzzleILi4EEE14percolate_downEv+0xe8>
80000fd4:	01010113          	addi	sp,sp,16
80000fd8:	00008067          	ret
80000fdc:	00062783          	lw	a5,0(a2)
80000fe0:	00862023          	sw	s0,0(a2)
80000fe4:	00f32023          	sw	a5,0(t1)
80000fe8:	00062703          	lw	a4,0(a2)
80000fec:	00d7ae23          	sw	a3,28(a5)
80000ff0:	00038693          	mv	a3,t2
80000ff4:	00772e23          	sw	t2,28(a4)
80000ff8:	fbdff06f          	j	80000fb4 <_ZN14Updatable_heapI8N_puzzleILi4EEE14percolate_downEv+0x90>
80000ffc:	00c12403          	lw	s0,12(sp)
80001000:	00812483          	lw	s1,8(sp)
80001004:	01010113          	addi	sp,sp,16
80001008:	00008067          	ret
8000100c:	00852583          	lw	a1,8(a0)
80001010:	00269793          	slli	a5,a3,0x2
80001014:	00369613          	slli	a2,a3,0x3
80001018:	00c58633          	add	a2,a1,a2
8000101c:	00f587b3          	add	a5,a1,a5
80001020:	00062303          	lw	t1,0(a2)
80001024:	0007a503          	lw	a0,0(a5)
80001028:	02432303          	lw	t1,36(t1)
8000102c:	02452603          	lw	a2,36(a0)
80001030:	fac352e3          	bge	t1,a2,80000fd4 <_ZN14Updatable_heapI8N_puzzleILi4EEE14percolate_downEv+0xb0>
80001034:	00271613          	slli	a2,a4,0x2
80001038:	00c58633          	add	a2,a1,a2
8000103c:	00062583          	lw	a1,0(a2)
80001040:	00a62023          	sw	a0,0(a2)
80001044:	00b7a023          	sw	a1,0(a5)
80001048:	00062783          	lw	a5,0(a2)
8000104c:	00d5ae23          	sw	a3,28(a1)
80001050:	00e7ae23          	sw	a4,28(a5)
80001054:	f81ff06f          	j	80000fd4 <_ZN14Updatable_heapI8N_puzzleILi4EEE14percolate_downEv+0xb0>
80001058:	00100693          	li	a3,1
8000105c:	f71ff06f          	j	80000fcc <_ZN14Updatable_heapI8N_puzzleILi4EEE14percolate_downEv+0xa8>

80001060 <bench_15pz_run>:
80001060:	f4810113          	addi	sp,sp,-184
80001064:	02410513          	addi	a0,sp,36
80001068:	0a112a23          	sw	ra,180(sp)
8000106c:	0a812823          	sw	s0,176(sp)
80001070:	0a912623          	sw	s1,172(sp)
80001074:	951ff0ef          	jal	800009c4 <_ZN8N_puzzleILi4EEC1Ev>
80001078:	00007797          	auipc	a5,0x7
8000107c:	af47a783          	lw	a5,-1292(a5) # 80007b6c <setting>
80001080:	00200713          	li	a4,2
80001084:	0007a783          	lw	a5,0(a5)
80001088:	1ee780e3          	beq	a5,a4,80001a68 <bench_15pz_run+0xa08>
8000108c:	16f74ce3          	blt	a4,a5,80001a04 <bench_15pz_run+0x9a4>
80001090:	32078463          	beqz	a5,800013b8 <bench_15pz_run+0x358>
80001094:	00100713          	li	a4,1
80001098:	24e796e3          	bne	a5,a4,80001ae4 <bench_15pz_run+0xa84>
8000109c:	06c10793          	addi	a5,sp,108
800010a0:	00078513          	mv	a0,a5
800010a4:	00006597          	auipc	a1,0x6
800010a8:	4a458593          	addi	a1,a1,1188 # 80007548 <_ZL8PUZZLE_M>
800010ac:	00078413          	mv	s0,a5
800010b0:	00f12023          	sw	a5,0(sp)
800010b4:	a99ff0ef          	jal	80000b4c <_ZN8N_puzzleILi4EEC1EPi>
800010b8:	06c12703          	lw	a4,108(sp)
800010bc:	08012783          	lw	a5,128(sp)
800010c0:	06c14683          	lbu	a3,108(sp)
800010c4:	02e12223          	sw	a4,36(sp)
800010c8:	02f12c23          	sw	a5,56(sp)
800010cc:	02810713          	addi	a4,sp,40
800010d0:	00040793          	mv	a5,s0
800010d4:	07c10613          	addi	a2,sp,124
800010d8:	0047a583          	lw	a1,4(a5)
800010dc:	00478793          	addi	a5,a5,4
800010e0:	00470713          	addi	a4,a4,4
800010e4:	feb72e23          	sw	a1,-4(a4)
800010e8:	fec798e3          	bne	a5,a2,800010d8 <bench_15pz_run+0x78>
800010ec:	000017b7          	lui	a5,0x1
800010f0:	80078793          	addi	a5,a5,-2048 # 800 <_entry_offset+0x800>
800010f4:	00f12a23          	sw	a5,20(sp)
800010f8:	30068e63          	beqz	a3,80001414 <bench_15pz_run+0x3b4>
800010fc:	02410513          	addi	a0,sp,36
80001100:	00000593          	li	a1,0
80001104:	01000313          	li	t1,16
80001108:	ff060793          	addi	a5,a2,-16
8000110c:	00050693          	mv	a3,a0
80001110:	00468703          	lb	a4,4(a3)
80001114:	00071463          	bnez	a4,8000111c <bench_15pz_run+0xbc>
80001118:	01000713          	li	a4,16
8000111c:	00e7a023          	sw	a4,0(a5)
80001120:	00478793          	addi	a5,a5,4
80001124:	00168693          	addi	a3,a3,1
80001128:	fef614e3          	bne	a2,a5,80001110 <bench_15pz_run+0xb0>
8000112c:	00458593          	addi	a1,a1,4
80001130:	01060613          	addi	a2,a2,16
80001134:	00450513          	addi	a0,a0,4
80001138:	fc6598e3          	bne	a1,t1,80001108 <bench_15pz_run+0xa8>
8000113c:	00012783          	lw	a5,0(sp)
80001140:	00000693          	li	a3,0
80001144:	00100313          	li	t1,1
80001148:	00478513          	addi	a0,a5,4
8000114c:	04078593          	addi	a1,a5,64
80001150:	01000293          	li	t0,16
80001154:	ffc52603          	lw	a2,-4(a0)
80001158:	00050793          	mv	a5,a0
8000115c:	0007a703          	lw	a4,0(a5)
80001160:	00478793          	addi	a5,a5,4
80001164:	00c72733          	slt	a4,a4,a2
80001168:	00e686b3          	add	a3,a3,a4
8000116c:	fef598e3          	bne	a1,a5,8000115c <bench_15pz_run+0xfc>
80001170:	00130313          	addi	t1,t1,1
80001174:	00450513          	addi	a0,a0,4
80001178:	fc531ee3          	bne	t1,t0,80001154 <bench_15pz_run+0xf4>
8000117c:	02514603          	lbu	a2,37(sp)
80001180:	02614703          	lbu	a4,38(sp)
80001184:	00600793          	li	a5,6
80001188:	40c787b3          	sub	a5,a5,a2
8000118c:	40e787b3          	sub	a5,a5,a4
80001190:	00d787b3          	add	a5,a5,a3
80001194:	01f79713          	slli	a4,a5,0x1f
80001198:	01f75793          	srli	a5,a4,0x1f
8000119c:	26079c63          	bnez	a5,80001414 <bench_15pz_run+0x3b4>
800011a0:	01400513          	li	a0,20
800011a4:	054010ef          	jal	800021f8 <bench_alloc>
800011a8:	01412783          	lw	a5,20(sp)
800011ac:	00050493          	mv	s1,a0
800011b0:	00f52023          	sw	a5,0(a0)
800011b4:	00279513          	slli	a0,a5,0x2
800011b8:	040010ef          	jal	800021f8 <bench_alloc>
800011bc:	00a4a423          	sw	a0,8(s1)
800011c0:	0004a503          	lw	a0,0(s1)
800011c4:	00150513          	addi	a0,a0,1
800011c8:	00251513          	slli	a0,a0,0x2
800011cc:	02c010ef          	jal	800021f8 <bench_alloc>
800011d0:	0004a703          	lw	a4,0(s1)
800011d4:	0004a623          	sw	zero,12(s1)
800011d8:	0004a823          	sw	zero,16(s1)
800011dc:	00271793          	slli	a5,a4,0x2
800011e0:	00a4a223          	sw	a0,4(s1)
800011e4:	00f507b3          	add	a5,a0,a5
800011e8:	00e05863          	blez	a4,800011f8 <bench_15pz_run+0x198>
800011ec:	00052023          	sw	zero,0(a0)
800011f0:	00450513          	addi	a0,a0,4
800011f4:	fea79ce3          	bne	a5,a0,800011ec <bench_15pz_run+0x18c>
800011f8:	00048513          	mv	a0,s1
800011fc:	02410593          	addi	a1,sp,36
80001200:	00000613          	li	a2,0
80001204:	b35ff0ef          	jal	80000d38 <_ZN14Updatable_heapI8N_puzzleILi4EEE4pushERKS1_i>
80001208:	00c4a503          	lw	a0,12(s1)
8000120c:	fff00793          	li	a5,-1
80001210:	00007717          	auipc	a4,0x7
80001214:	94f72623          	sw	a5,-1716(a4) # 80007b5c <_ZL3ans>
80001218:	00012223          	sw	zero,4(sp)
8000121c:	18050463          	beqz	a0,800013a4 <bench_15pz_run+0x344>
80001220:	0084a583          	lw	a1,8(s1)
80001224:	00012783          	lw	a5,0(sp)
80001228:	07010613          	addi	a2,sp,112
8000122c:	0045a683          	lw	a3,4(a1)
80001230:	0016c703          	lbu	a4,1(a3)
80001234:	0006c403          	lbu	s0,0(a3)
80001238:	0006a303          	lw	t1,0(a3)
8000123c:	00e12623          	sw	a4,12(sp)
80001240:	0026c703          	lbu	a4,2(a3)
80001244:	00e12423          	sw	a4,8(sp)
80001248:	00368703          	lb	a4,3(a3)
8000124c:	00e12c23          	sw	a4,24(sp)
80001250:	0146a703          	lw	a4,20(a3)
80001254:	00e12823          	sw	a4,16(sp)
80001258:	00468713          	addi	a4,a3,4
8000125c:	01468693          	addi	a3,a3,20
80001260:	00072283          	lw	t0,0(a4)
80001264:	00470713          	addi	a4,a4,4
80001268:	00460613          	addi	a2,a2,4
8000126c:	fe562e23          	sw	t0,-4(a2)
80001270:	fee698e3          	bne	a3,a4,80001260 <bench_15pz_run+0x200>
80001274:	00100713          	li	a4,1
80001278:	76e50263          	beq	a0,a4,800019dc <bench_15pz_run+0x97c>
8000127c:	04a754e3          	bge	a4,a0,80001ac4 <bench_15pz_run+0xa64>
80001280:	00251693          	slli	a3,a0,0x2
80001284:	00d586b3          	add	a3,a1,a3
80001288:	0006a683          	lw	a3,0(a3)
8000128c:	fff50613          	addi	a2,a0,-1
80001290:	00048513          	mv	a0,s1
80001294:	00d5a223          	sw	a3,4(a1)
80001298:	00e6ae23          	sw	a4,28(a3)
8000129c:	00c4a623          	sw	a2,12(s1)
800012a0:	02612023          	sw	t1,32(sp)
800012a4:	00f12e23          	sw	a5,28(sp)
800012a8:	c7dff0ef          	jal	80000f24 <_ZN14Updatable_heapI8N_puzzleILi4EEE14percolate_downEv>
800012ac:	02012303          	lw	t1,32(sp)
800012b0:	01c12783          	lw	a5,28(sp)
800012b4:	01012703          	lw	a4,16(sp)
800012b8:	00012683          	lw	a3,0(sp)
800012bc:	02612e23          	sw	t1,60(sp)
800012c0:	04e12823          	sw	a4,80(sp)
800012c4:	03c10713          	addi	a4,sp,60
800012c8:	00e12e23          	sw	a4,28(sp)
800012cc:	01068613          	addi	a2,a3,16
800012d0:	04010713          	addi	a4,sp,64
800012d4:	0047a683          	lw	a3,4(a5)
800012d8:	00478793          	addi	a5,a5,4
800012dc:	00470713          	addi	a4,a4,4
800012e0:	fed72e23          	sw	a3,-4(a4)
800012e4:	fec798e3          	bne	a5,a2,800012d4 <bench_15pz_run+0x274>
800012e8:	00412783          	lw	a5,4(sp)
800012ec:	00012703          	lw	a4,0(sp)
800012f0:	00f00693          	li	a3,15
800012f4:	00178793          	addi	a5,a5,1
800012f8:	00f12223          	sw	a5,4(sp)
800012fc:	00000793          	li	a5,0
80001300:	00178793          	addi	a5,a5,1
80001304:	00f72023          	sw	a5,0(a4)
80001308:	00470713          	addi	a4,a4,4
8000130c:	fed79ae3          	bne	a5,a3,80001300 <bench_15pz_run+0x2a0>
80001310:	00012583          	lw	a1,0(sp)
80001314:	05410513          	addi	a0,sp,84
80001318:	0a012423          	sw	zero,168(sp)
8000131c:	831ff0ef          	jal	80000b4c <_ZN8N_puzzleILi4EEC1EPi>
80001320:	52040a63          	beqz	s0,80001854 <bench_15pz_run+0x7f4>
80001324:	05414783          	lbu	a5,84(sp)
80001328:	0e078a63          	beqz	a5,8000141c <bench_15pz_run+0x3bc>
8000132c:	06812783          	lw	a5,104(sp)
80001330:	01012703          	lw	a4,16(sp)
80001334:	0ef71463          	bne	a4,a5,8000141c <bench_15pz_run+0x3bc>
80001338:	05410593          	addi	a1,sp,84
8000133c:	04c10413          	addi	s0,sp,76
80001340:	03c10613          	addi	a2,sp,60
80001344:	00400513          	li	a0,4
80001348:	00000793          	li	a5,0
8000134c:	00f606b3          	add	a3,a2,a5
80001350:	00f58733          	add	a4,a1,a5
80001354:	00468683          	lb	a3,4(a3)
80001358:	00470703          	lb	a4,4(a4)
8000135c:	0ce69263          	bne	a3,a4,80001420 <bench_15pz_run+0x3c0>
80001360:	00178793          	addi	a5,a5,1
80001364:	fea794e3          	bne	a5,a0,8000134c <bench_15pz_run+0x2ec>
80001368:	00460613          	addi	a2,a2,4
8000136c:	00458593          	addi	a1,a1,4
80001370:	fc861ce3          	bne	a2,s0,80001348 <bench_15pz_run+0x2e8>
80001374:	0044a583          	lw	a1,4(s1)
80001378:	0004a503          	lw	a0,0(s1)
8000137c:	03c10613          	addi	a2,sp,60
80001380:	d60ff0ef          	jal	800008e0 <_ZNK14Updatable_heapI8N_puzzleILi4EEE7pointerERKS1_.isra.0>
80001384:	800005b7          	lui	a1,0x80000
80001388:	fff58593          	addi	a1,a1,-1 # 7fffffff <_entry_offset+0x7fffffff>
8000138c:	00050463          	beqz	a0,80001394 <bench_15pz_run+0x334>
80001390:	02052583          	lw	a1,32(a0)
80001394:	00412503          	lw	a0,4(sp)
80001398:	274040ef          	jal	8000560c <__mulsi3>
8000139c:	00006797          	auipc	a5,0x6
800013a0:	7ca7a023          	sw	a0,1984(a5) # 80007b5c <_ZL3ans>
800013a4:	0b412083          	lw	ra,180(sp)
800013a8:	0b012403          	lw	s0,176(sp)
800013ac:	0ac12483          	lw	s1,172(sp)
800013b0:	0b810113          	addi	sp,sp,184
800013b4:	00008067          	ret
800013b8:	06c10793          	addi	a5,sp,108
800013bc:	00078513          	mv	a0,a5
800013c0:	00006597          	auipc	a1,0x6
800013c4:	1c858593          	addi	a1,a1,456 # 80007588 <_ZL8PUZZLE_S>
800013c8:	00078413          	mv	s0,a5
800013cc:	00f12023          	sw	a5,0(sp)
800013d0:	f7cff0ef          	jal	80000b4c <_ZN8N_puzzleILi4EEC1EPi>
800013d4:	06c12703          	lw	a4,108(sp)
800013d8:	08012783          	lw	a5,128(sp)
800013dc:	06c14683          	lbu	a3,108(sp)
800013e0:	02e12223          	sw	a4,36(sp)
800013e4:	02f12c23          	sw	a5,56(sp)
800013e8:	02810713          	addi	a4,sp,40
800013ec:	00040793          	mv	a5,s0
800013f0:	07c10613          	addi	a2,sp,124
800013f4:	0047a583          	lw	a1,4(a5)
800013f8:	00478793          	addi	a5,a5,4
800013fc:	00470713          	addi	a4,a4,4
80001400:	feb72e23          	sw	a1,-4(a4)
80001404:	fec798e3          	bne	a5,a2,800013f4 <bench_15pz_run+0x394>
80001408:	00a00793          	li	a5,10
8000140c:	00f12a23          	sw	a5,20(sp)
80001410:	ce0696e3          	bnez	a3,800010fc <bench_15pz_run+0x9c>
80001414:	03500613          	li	a2,53
80001418:	6d00006f          	j	80001ae8 <bench_15pz_run+0xa88>
8000141c:	04c10413          	addi	s0,sp,76
80001420:	00812703          	lw	a4,8(sp)
80001424:	00300793          	li	a5,3
80001428:	44f70a63          	beq	a4,a5,8000187c <bench_15pz_run+0x81c>
8000142c:	00012583          	lw	a1,0(sp)
80001430:	07010613          	addi	a2,sp,112
80001434:	03c10793          	addi	a5,sp,60
80001438:	00060713          	mv	a4,a2
8000143c:	0047a683          	lw	a3,4(a5)
80001440:	00478793          	addi	a5,a5,4
80001444:	00470713          	addi	a4,a4,4
80001448:	fed72e23          	sw	a3,-4(a4)
8000144c:	fef418e3          	bne	s0,a5,8000143c <bench_15pz_run+0x3dc>
80001450:	00c12783          	lw	a5,12(sp)
80001454:	00812683          	lw	a3,8(sp)
80001458:	00279793          	slli	a5,a5,0x2
8000145c:	00278733          	add	a4,a5,sp
80001460:	02f12023          	sw	a5,32(sp)
80001464:	00812783          	lw	a5,8(sp)
80001468:	00d70533          	add	a0,a4,a3
8000146c:	00178293          	addi	t0,a5,1
80001470:	005707b3          	add	a5,a4,t0
80001474:	04078783          	lb	a5,64(a5)
80001478:	0ff2f693          	zext.b	a3,t0
8000147c:	00d70733          	add	a4,a4,a3
80001480:	06f50823          	sb	a5,112(a0)
80001484:	fff78793          	addi	a5,a5,-1
80001488:	06070823          	sb	zero,112(a4)
8000148c:	41f7d713          	srai	a4,a5,0x1f
80001490:	01e75713          	srli	a4,a4,0x1e
80001494:	00e787b3          	add	a5,a5,a4
80001498:	0037f793          	andi	a5,a5,3
8000149c:	40e787b3          	sub	a5,a5,a4
800014a0:	00812703          	lw	a4,8(sp)
800014a4:	40e78733          	sub	a4,a5,a4
800014a8:	41f75693          	srai	a3,a4,0x1f
800014ac:	405787b3          	sub	a5,a5,t0
800014b0:	00e6c533          	xor	a0,a3,a4
800014b4:	41f7d713          	srai	a4,a5,0x1f
800014b8:	00f747b3          	xor	a5,a4,a5
800014bc:	40e787b3          	sub	a5,a5,a4
800014c0:	40d50533          	sub	a0,a0,a3
800014c4:	40f50533          	sub	a0,a0,a5
800014c8:	01812783          	lw	a5,24(sp)
800014cc:	00a78533          	add	a0,a5,a0
800014d0:	00012783          	lw	a5,0(sp)
800014d4:	01478313          	addi	t1,a5,20
800014d8:	00000793          	li	a5,0
800014dc:	ffc60693          	addi	a3,a2,-4
800014e0:	00579713          	slli	a4,a5,0x5
800014e4:	40f70733          	sub	a4,a4,a5
800014e8:	00271713          	slli	a4,a4,0x2
800014ec:	40f70733          	sub	a4,a4,a5
800014f0:	00271713          	slli	a4,a4,0x2
800014f4:	00f70733          	add	a4,a4,a5
800014f8:	00271713          	slli	a4,a4,0x2
800014fc:	00f707b3          	add	a5,a4,a5
80001500:	00468703          	lb	a4,4(a3)
80001504:	00168693          	addi	a3,a3,1
80001508:	00e787b3          	add	a5,a5,a4
8000150c:	fcc69ae3          	bne	a3,a2,800014e0 <bench_15pz_run+0x480>
80001510:	00468613          	addi	a2,a3,4
80001514:	fcc314e3          	bne	t1,a2,800014dc <bench_15pz_run+0x47c>
80001518:	00c12703          	lw	a4,12(sp)
8000151c:	06f12423          	sw	a5,104(sp)
80001520:	00100793          	li	a5,1
80001524:	04e10aa3          	sb	a4,85(sp)
80001528:	00012703          	lw	a4,0(sp)
8000152c:	04f10a23          	sb	a5,84(sp)
80001530:	05810793          	addi	a5,sp,88
80001534:	04510b23          	sb	t0,86(sp)
80001538:	04a10ba3          	sb	a0,87(sp)
8000153c:	00f12823          	sw	a5,16(sp)
80001540:	01070693          	addi	a3,a4,16
80001544:	0045a703          	lw	a4,4(a1)
80001548:	00458593          	addi	a1,a1,4
8000154c:	00478793          	addi	a5,a5,4
80001550:	fee7ae23          	sw	a4,-4(a5)
80001554:	feb698e3          	bne	a3,a1,80001544 <bench_15pz_run+0x4e4>
80001558:	0044a583          	lw	a1,4(s1)
8000155c:	0004a503          	lw	a0,0(s1)
80001560:	03c10613          	addi	a2,sp,60
80001564:	b7cff0ef          	jal	800008e0 <_ZNK14Updatable_heapI8N_puzzleILi4EEE7pointerERKS1_.isra.0>
80001568:	48050263          	beqz	a0,800019ec <bench_15pz_run+0x98c>
8000156c:	02052603          	lw	a2,32(a0)
80001570:	00160613          	addi	a2,a2,1
80001574:	05410593          	addi	a1,sp,84
80001578:	00048513          	mv	a0,s1
8000157c:	fbcff0ef          	jal	80000d38 <_ZN14Updatable_heapI8N_puzzleILi4EEE4pushERKS1_i>
80001580:	00812783          	lw	a5,8(sp)
80001584:	30079663          	bnez	a5,80001890 <bench_15pz_run+0x830>
80001588:	00c12703          	lw	a4,12(sp)
8000158c:	00300793          	li	a5,3
80001590:	16f70463          	beq	a4,a5,800016f8 <bench_15pz_run+0x698>
80001594:	00012583          	lw	a1,0(sp)
80001598:	07010613          	addi	a2,sp,112
8000159c:	03c10793          	addi	a5,sp,60
800015a0:	00060713          	mv	a4,a2
800015a4:	0047a683          	lw	a3,4(a5)
800015a8:	00478793          	addi	a5,a5,4
800015ac:	00470713          	addi	a4,a4,4
800015b0:	fed72e23          	sw	a3,-4(a4)
800015b4:	fe8798e3          	bne	a5,s0,800015a4 <bench_15pz_run+0x544>
800015b8:	00c12783          	lw	a5,12(sp)
800015bc:	00812703          	lw	a4,8(sp)
800015c0:	00812683          	lw	a3,8(sp)
800015c4:	00178293          	addi	t0,a5,1
800015c8:	00229793          	slli	a5,t0,0x2
800015cc:	002787b3          	add	a5,a5,sp
800015d0:	00e787b3          	add	a5,a5,a4
800015d4:	04078703          	lb	a4,64(a5)
800015d8:	02012783          	lw	a5,32(sp)
800015dc:	002787b3          	add	a5,a5,sp
800015e0:	00d787b3          	add	a5,a5,a3
800015e4:	06e78823          	sb	a4,112(a5)
800015e8:	fff70713          	addi	a4,a4,-1
800015ec:	41f75793          	srai	a5,a4,0x1f
800015f0:	0037f793          	andi	a5,a5,3
800015f4:	00e787b3          	add	a5,a5,a4
800015f8:	00c12703          	lw	a4,12(sp)
800015fc:	4027d793          	srai	a5,a5,0x2
80001600:	40e78733          	sub	a4,a5,a4
80001604:	41f75693          	srai	a3,a4,0x1f
80001608:	405787b3          	sub	a5,a5,t0
8000160c:	00e6c533          	xor	a0,a3,a4
80001610:	41f7d713          	srai	a4,a5,0x1f
80001614:	00f747b3          	xor	a5,a4,a5
80001618:	40e787b3          	sub	a5,a5,a4
8000161c:	40d50533          	sub	a0,a0,a3
80001620:	40f50533          	sub	a0,a0,a5
80001624:	00812703          	lw	a4,8(sp)
80001628:	0ff2f793          	zext.b	a5,t0
8000162c:	00279793          	slli	a5,a5,0x2
80001630:	002787b3          	add	a5,a5,sp
80001634:	00e787b3          	add	a5,a5,a4
80001638:	06078823          	sb	zero,112(a5)
8000163c:	01812783          	lw	a5,24(sp)
80001640:	00a78533          	add	a0,a5,a0
80001644:	00012783          	lw	a5,0(sp)
80001648:	01478313          	addi	t1,a5,20
8000164c:	00000793          	li	a5,0
80001650:	ffc60693          	addi	a3,a2,-4
80001654:	00579713          	slli	a4,a5,0x5
80001658:	40f70733          	sub	a4,a4,a5
8000165c:	00271713          	slli	a4,a4,0x2
80001660:	40f70733          	sub	a4,a4,a5
80001664:	00271713          	slli	a4,a4,0x2
80001668:	00f70733          	add	a4,a4,a5
8000166c:	00271713          	slli	a4,a4,0x2
80001670:	00f707b3          	add	a5,a4,a5
80001674:	00468703          	lb	a4,4(a3)
80001678:	00168693          	addi	a3,a3,1
8000167c:	00e787b3          	add	a5,a5,a4
80001680:	fcc69ae3          	bne	a3,a2,80001654 <bench_15pz_run+0x5f4>
80001684:	00468613          	addi	a2,a3,4
80001688:	fcc314e3          	bne	t1,a2,80001650 <bench_15pz_run+0x5f0>
8000168c:	00100713          	li	a4,1
80001690:	00812683          	lw	a3,8(sp)
80001694:	04e10a23          	sb	a4,84(sp)
80001698:	00012703          	lw	a4,0(sp)
8000169c:	06f12423          	sw	a5,104(sp)
800016a0:	01012783          	lw	a5,16(sp)
800016a4:	04d10b23          	sb	a3,86(sp)
800016a8:	04510aa3          	sb	t0,85(sp)
800016ac:	04a10ba3          	sb	a0,87(sp)
800016b0:	01070693          	addi	a3,a4,16
800016b4:	0045a703          	lw	a4,4(a1)
800016b8:	00458593          	addi	a1,a1,4
800016bc:	00478793          	addi	a5,a5,4
800016c0:	fee7ae23          	sw	a4,-4(a5)
800016c4:	fed598e3          	bne	a1,a3,800016b4 <bench_15pz_run+0x654>
800016c8:	0044a583          	lw	a1,4(s1)
800016cc:	0004a503          	lw	a0,0(s1)
800016d0:	03c10613          	addi	a2,sp,60
800016d4:	a0cff0ef          	jal	800008e0 <_ZNK14Updatable_heapI8N_puzzleILi4EEE7pointerERKS1_.isra.0>
800016d8:	30050663          	beqz	a0,800019e4 <bench_15pz_run+0x984>
800016dc:	02052603          	lw	a2,32(a0)
800016e0:	00160613          	addi	a2,a2,1
800016e4:	05410593          	addi	a1,sp,84
800016e8:	00048513          	mv	a0,s1
800016ec:	e4cff0ef          	jal	80000d38 <_ZN14Updatable_heapI8N_puzzleILi4EEE4pushERKS1_i>
800016f0:	00c12783          	lw	a5,12(sp)
800016f4:	16078063          	beqz	a5,80001854 <bench_15pz_run+0x7f4>
800016f8:	00012583          	lw	a1,0(sp)
800016fc:	01c12703          	lw	a4,28(sp)
80001700:	07010613          	addi	a2,sp,112
80001704:	00060793          	mv	a5,a2
80001708:	00472683          	lw	a3,4(a4)
8000170c:	00470713          	addi	a4,a4,4
80001710:	00478793          	addi	a5,a5,4
80001714:	fed7ae23          	sw	a3,-4(a5)
80001718:	fe8718e3          	bne	a4,s0,80001708 <bench_15pz_run+0x6a8>
8000171c:	00c12783          	lw	a5,12(sp)
80001720:	00812703          	lw	a4,8(sp)
80001724:	00812683          	lw	a3,8(sp)
80001728:	fff78313          	addi	t1,a5,-1
8000172c:	00231793          	slli	a5,t1,0x2
80001730:	002787b3          	add	a5,a5,sp
80001734:	00e787b3          	add	a5,a5,a4
80001738:	04078703          	lb	a4,64(a5)
8000173c:	02012783          	lw	a5,32(sp)
80001740:	002787b3          	add	a5,a5,sp
80001744:	00d787b3          	add	a5,a5,a3
80001748:	06e78823          	sb	a4,112(a5)
8000174c:	fff70713          	addi	a4,a4,-1
80001750:	41f75793          	srai	a5,a4,0x1f
80001754:	0037f793          	andi	a5,a5,3
80001758:	00e787b3          	add	a5,a5,a4
8000175c:	00c12703          	lw	a4,12(sp)
80001760:	4027d793          	srai	a5,a5,0x2
80001764:	40e78733          	sub	a4,a5,a4
80001768:	41f75693          	srai	a3,a4,0x1f
8000176c:	406787b3          	sub	a5,a5,t1
80001770:	00e6c733          	xor	a4,a3,a4
80001774:	40d70533          	sub	a0,a4,a3
80001778:	41f7d713          	srai	a4,a5,0x1f
8000177c:	00f747b3          	xor	a5,a4,a5
80001780:	40e787b3          	sub	a5,a5,a4
80001784:	40f50533          	sub	a0,a0,a5
80001788:	0ff37313          	zext.b	t1,t1
8000178c:	00812783          	lw	a5,8(sp)
80001790:	00231713          	slli	a4,t1,0x2
80001794:	00270733          	add	a4,a4,sp
80001798:	00f707b3          	add	a5,a4,a5
8000179c:	06078823          	sb	zero,112(a5)
800017a0:	01812703          	lw	a4,24(sp)
800017a4:	00012783          	lw	a5,0(sp)
800017a8:	00a70533          	add	a0,a4,a0
800017ac:	01478293          	addi	t0,a5,20
800017b0:	00000793          	li	a5,0
800017b4:	ffc60693          	addi	a3,a2,-4
800017b8:	00579713          	slli	a4,a5,0x5
800017bc:	40f70733          	sub	a4,a4,a5
800017c0:	00271713          	slli	a4,a4,0x2
800017c4:	40f70733          	sub	a4,a4,a5
800017c8:	00271713          	slli	a4,a4,0x2
800017cc:	00f70733          	add	a4,a4,a5
800017d0:	00271713          	slli	a4,a4,0x2
800017d4:	00f707b3          	add	a5,a4,a5
800017d8:	00468703          	lb	a4,4(a3)
800017dc:	00168693          	addi	a3,a3,1
800017e0:	00e787b3          	add	a5,a5,a4
800017e4:	fcd61ae3          	bne	a2,a3,800017b8 <bench_15pz_run+0x758>
800017e8:	00460613          	addi	a2,a2,4
800017ec:	fcc294e3          	bne	t0,a2,800017b4 <bench_15pz_run+0x754>
800017f0:	00100713          	li	a4,1
800017f4:	00812683          	lw	a3,8(sp)
800017f8:	04e10a23          	sb	a4,84(sp)
800017fc:	00012703          	lw	a4,0(sp)
80001800:	06f12423          	sw	a5,104(sp)
80001804:	01012783          	lw	a5,16(sp)
80001808:	04d10b23          	sb	a3,86(sp)
8000180c:	04610aa3          	sb	t1,85(sp)
80001810:	04a10ba3          	sb	a0,87(sp)
80001814:	01070693          	addi	a3,a4,16
80001818:	0045a703          	lw	a4,4(a1)
8000181c:	00458593          	addi	a1,a1,4
80001820:	00478793          	addi	a5,a5,4
80001824:	fee7ae23          	sw	a4,-4(a5)
80001828:	fed598e3          	bne	a1,a3,80001818 <bench_15pz_run+0x7b8>
8000182c:	0044a583          	lw	a1,4(s1)
80001830:	0004a503          	lw	a0,0(s1)
80001834:	03c10613          	addi	a2,sp,60
80001838:	8a8ff0ef          	jal	800008e0 <_ZNK14Updatable_heapI8N_puzzleILi4EEE7pointerERKS1_.isra.0>
8000183c:	1a050c63          	beqz	a0,800019f4 <bench_15pz_run+0x994>
80001840:	02052603          	lw	a2,32(a0)
80001844:	00160613          	addi	a2,a2,1
80001848:	05410593          	addi	a1,sp,84
8000184c:	00048513          	mv	a0,s1
80001850:	ce8ff0ef          	jal	80000d38 <_ZN14Updatable_heapI8N_puzzleILi4EEE4pushERKS1_i>
80001854:	00c4a503          	lw	a0,12(s1)
80001858:	b40506e3          	beqz	a0,800013a4 <bench_15pz_run+0x344>
8000185c:	01412783          	lw	a5,20(sp)
80001860:	00412703          	lw	a4,4(sp)
80001864:	9ae79ee3          	bne	a5,a4,80001220 <bench_15pz_run+0x1c0>
80001868:	0b412083          	lw	ra,180(sp)
8000186c:	0b012403          	lw	s0,176(sp)
80001870:	0ac12483          	lw	s1,172(sp)
80001874:	0b810113          	addi	sp,sp,184
80001878:	00008067          	ret
8000187c:	00c12783          	lw	a5,12(sp)
80001880:	00279793          	slli	a5,a5,0x2
80001884:	02f12023          	sw	a5,32(sp)
80001888:	05810793          	addi	a5,sp,88
8000188c:	00f12823          	sw	a5,16(sp)
80001890:	00012583          	lw	a1,0(sp)
80001894:	07010613          	addi	a2,sp,112
80001898:	03c10793          	addi	a5,sp,60
8000189c:	00060713          	mv	a4,a2
800018a0:	0047a683          	lw	a3,4(a5)
800018a4:	00478793          	addi	a5,a5,4
800018a8:	00470713          	addi	a4,a4,4
800018ac:	fed72e23          	sw	a3,-4(a4)
800018b0:	fef418e3          	bne	s0,a5,800018a0 <bench_15pz_run+0x840>
800018b4:	00812783          	lw	a5,8(sp)
800018b8:	00812503          	lw	a0,8(sp)
800018bc:	fff78693          	addi	a3,a5,-1
800018c0:	02012783          	lw	a5,32(sp)
800018c4:	0ff6f293          	zext.b	t0,a3
800018c8:	00278733          	add	a4,a5,sp
800018cc:	00d707b3          	add	a5,a4,a3
800018d0:	04078783          	lb	a5,64(a5)
800018d4:	00a70533          	add	a0,a4,a0
800018d8:	00570733          	add	a4,a4,t0
800018dc:	06f50823          	sb	a5,112(a0)
800018e0:	fff78793          	addi	a5,a5,-1
800018e4:	41f7d513          	srai	a0,a5,0x1f
800018e8:	01e55513          	srli	a0,a0,0x1e
800018ec:	00a787b3          	add	a5,a5,a0
800018f0:	0037f793          	andi	a5,a5,3
800018f4:	40a787b3          	sub	a5,a5,a0
800018f8:	00812503          	lw	a0,8(sp)
800018fc:	06070823          	sb	zero,112(a4)
80001900:	40a78533          	sub	a0,a5,a0
80001904:	41f55713          	srai	a4,a0,0x1f
80001908:	40d787b3          	sub	a5,a5,a3
8000190c:	00a74533          	xor	a0,a4,a0
80001910:	40e50533          	sub	a0,a0,a4
80001914:	41f7d713          	srai	a4,a5,0x1f
80001918:	00f747b3          	xor	a5,a4,a5
8000191c:	40e787b3          	sub	a5,a5,a4
80001920:	40f50533          	sub	a0,a0,a5
80001924:	01812783          	lw	a5,24(sp)
80001928:	00a78533          	add	a0,a5,a0
8000192c:	00012783          	lw	a5,0(sp)
80001930:	01478313          	addi	t1,a5,20
80001934:	00000793          	li	a5,0
80001938:	ffc60693          	addi	a3,a2,-4
8000193c:	00579713          	slli	a4,a5,0x5
80001940:	40f70733          	sub	a4,a4,a5
80001944:	00271713          	slli	a4,a4,0x2
80001948:	40f70733          	sub	a4,a4,a5
8000194c:	00271713          	slli	a4,a4,0x2
80001950:	00f70733          	add	a4,a4,a5
80001954:	00271713          	slli	a4,a4,0x2
80001958:	00f707b3          	add	a5,a4,a5
8000195c:	00468703          	lb	a4,4(a3)
80001960:	00168693          	addi	a3,a3,1
80001964:	00e787b3          	add	a5,a5,a4
80001968:	fcd61ae3          	bne	a2,a3,8000193c <bench_15pz_run+0x8dc>
8000196c:	00460613          	addi	a2,a2,4
80001970:	fc6614e3          	bne	a2,t1,80001938 <bench_15pz_run+0x8d8>
80001974:	00c12703          	lw	a4,12(sp)
80001978:	06f12423          	sw	a5,104(sp)
8000197c:	01012783          	lw	a5,16(sp)
80001980:	04e10aa3          	sb	a4,85(sp)
80001984:	00100713          	li	a4,1
80001988:	04e10a23          	sb	a4,84(sp)
8000198c:	00012703          	lw	a4,0(sp)
80001990:	04510b23          	sb	t0,86(sp)
80001994:	04a10ba3          	sb	a0,87(sp)
80001998:	01070693          	addi	a3,a4,16
8000199c:	0045a703          	lw	a4,4(a1)
800019a0:	00458593          	addi	a1,a1,4
800019a4:	00478793          	addi	a5,a5,4
800019a8:	fee7ae23          	sw	a4,-4(a5)
800019ac:	fed598e3          	bne	a1,a3,8000199c <bench_15pz_run+0x93c>
800019b0:	0044a583          	lw	a1,4(s1)
800019b4:	0004a503          	lw	a0,0(s1)
800019b8:	03c10613          	addi	a2,sp,60
800019bc:	f25fe0ef          	jal	800008e0 <_ZNK14Updatable_heapI8N_puzzleILi4EEE7pointerERKS1_.isra.0>
800019c0:	02050e63          	beqz	a0,800019fc <bench_15pz_run+0x99c>
800019c4:	02052603          	lw	a2,32(a0)
800019c8:	00160613          	addi	a2,a2,1
800019cc:	05410593          	addi	a1,sp,84
800019d0:	00048513          	mv	a0,s1
800019d4:	b64ff0ef          	jal	80000d38 <_ZN14Updatable_heapI8N_puzzleILi4EEE4pushERKS1_i>
800019d8:	bb1ff06f          	j	80001588 <bench_15pz_run+0x528>
800019dc:	0004a623          	sw	zero,12(s1)
800019e0:	8d5ff06f          	j	800012b4 <bench_15pz_run+0x254>
800019e4:	80000637          	lui	a2,0x80000
800019e8:	cfdff06f          	j	800016e4 <bench_15pz_run+0x684>
800019ec:	80000637          	lui	a2,0x80000
800019f0:	b85ff06f          	j	80001574 <bench_15pz_run+0x514>
800019f4:	80000637          	lui	a2,0x80000
800019f8:	e51ff06f          	j	80001848 <bench_15pz_run+0x7e8>
800019fc:	80000637          	lui	a2,0x80000
80001a00:	fcdff06f          	j	800019cc <bench_15pz_run+0x96c>
80001a04:	00300713          	li	a4,3
80001a08:	0ce79e63          	bne	a5,a4,80001ae4 <bench_15pz_run+0xa84>
80001a0c:	06c10793          	addi	a5,sp,108
80001a10:	00078513          	mv	a0,a5
80001a14:	00006597          	auipc	a1,0x6
80001a18:	ab458593          	addi	a1,a1,-1356 # 800074c8 <_ZL8PUZZLE_H>
80001a1c:	00078413          	mv	s0,a5
80001a20:	00f12023          	sw	a5,0(sp)
80001a24:	928ff0ef          	jal	80000b4c <_ZN8N_puzzleILi4EEC1EPi>
80001a28:	06c12703          	lw	a4,108(sp)
80001a2c:	08012783          	lw	a5,128(sp)
80001a30:	06c14683          	lbu	a3,108(sp)
80001a34:	02e12223          	sw	a4,36(sp)
80001a38:	02f12c23          	sw	a5,56(sp)
80001a3c:	02810713          	addi	a4,sp,40
80001a40:	00040793          	mv	a5,s0
80001a44:	07c10613          	addi	a2,sp,124
80001a48:	0047a583          	lw	a1,4(a5)
80001a4c:	00478793          	addi	a5,a5,4
80001a50:	00470713          	addi	a4,a4,4
80001a54:	feb72e23          	sw	a1,-4(a4)
80001a58:	fec798e3          	bne	a5,a2,80001a48 <bench_15pz_run+0x9e8>
80001a5c:	000c07b7          	lui	a5,0xc0
80001a60:	00f12a23          	sw	a5,20(sp)
80001a64:	e94ff06f          	j	800010f8 <bench_15pz_run+0x98>
80001a68:	06c10793          	addi	a5,sp,108
80001a6c:	00078513          	mv	a0,a5
80001a70:	00006597          	auipc	a1,0x6
80001a74:	a9858593          	addi	a1,a1,-1384 # 80007508 <_ZL8PUZZLE_L>
80001a78:	00078413          	mv	s0,a5
80001a7c:	00f12023          	sw	a5,0(sp)
80001a80:	8ccff0ef          	jal	80000b4c <_ZN8N_puzzleILi4EEC1EPi>
80001a84:	06c12703          	lw	a4,108(sp)
80001a88:	08012783          	lw	a5,128(sp)
80001a8c:	06c14683          	lbu	a3,108(sp)
80001a90:	02e12223          	sw	a4,36(sp)
80001a94:	02f12c23          	sw	a5,56(sp)
80001a98:	02810713          	addi	a4,sp,40
80001a9c:	00040793          	mv	a5,s0
80001aa0:	07c10613          	addi	a2,sp,124
80001aa4:	0047a583          	lw	a1,4(a5) # c0004 <_entry_offset+0xc0004>
80001aa8:	00478793          	addi	a5,a5,4
80001aac:	00470713          	addi	a4,a4,4
80001ab0:	feb72e23          	sw	a1,-4(a4)
80001ab4:	fec798e3          	bne	a5,a2,80001aa4 <bench_15pz_run+0xa44>
80001ab8:	000047b7          	lui	a5,0x4
80001abc:	00f12a23          	sw	a5,20(sp)
80001ac0:	e38ff06f          	j	800010f8 <bench_15pz_run+0x98>
80001ac4:	05600613          	li	a2,86
80001ac8:	00005597          	auipc	a1,0x5
80001acc:	21458593          	addi	a1,a1,532 # 80006cdc <k+0x100>
80001ad0:	00005517          	auipc	a0,0x5
80001ad4:	25c50513          	addi	a0,a0,604 # 80006d2c <k+0x150>
80001ad8:	40d030ef          	jal	800056e4 <printf>
80001adc:	00100513          	li	a0,1
80001ae0:	0cd030ef          	jal	800053ac <halt>
80001ae4:	03300613          	li	a2,51
80001ae8:	00005597          	auipc	a1,0x5
80001aec:	26058593          	addi	a1,a1,608 # 80006d48 <k+0x16c>
80001af0:	00005517          	auipc	a0,0x5
80001af4:	23c50513          	addi	a0,a0,572 # 80006d2c <k+0x150>
80001af8:	3ed030ef          	jal	800056e4 <printf>
80001afc:	00100513          	li	a0,1
80001b00:	0ad030ef          	jal	800053ac <halt>

80001b04 <dfs>:
80001b04:	00006717          	auipc	a4,0x6
80001b08:	06072703          	lw	a4,96(a4) # 80007b64 <FULL>
80001b0c:	fe810113          	addi	sp,sp,-24
80001b10:	00812823          	sw	s0,16(sp)
80001b14:	00112a23          	sw	ra,20(sp)
80001b18:	00100413          	li	s0,1
80001b1c:	06a70463          	beq	a4,a0,80001b84 <dfs+0x80>
80001b20:	00c5e7b3          	or	a5,a1,a2
80001b24:	00a7e7b3          	or	a5,a5,a0
80001b28:	fff7c793          	not	a5,a5
80001b2c:	00912623          	sw	s1,12(sp)
80001b30:	00c12423          	sw	a2,8(sp)
80001b34:	00b12223          	sw	a1,4(sp)
80001b38:	00a12023          	sw	a0,0(sp)
80001b3c:	00e7f4b3          	and	s1,a5,a4
80001b40:	00000413          	li	s0,0
80001b44:	02048e63          	beqz	s1,80001b80 <dfs+0x7c>
80001b48:	00812783          	lw	a5,8(sp)
80001b4c:	40900733          	neg	a4,s1
80001b50:	00977733          	and	a4,a4,s1
80001b54:	00e7e633          	or	a2,a5,a4
80001b58:	00412783          	lw	a5,4(sp)
80001b5c:	00165613          	srli	a2,a2,0x1
80001b60:	40e484b3          	sub	s1,s1,a4
80001b64:	00e7e5b3          	or	a1,a5,a4
80001b68:	00012783          	lw	a5,0(sp)
80001b6c:	00159593          	slli	a1,a1,0x1
80001b70:	00e7e533          	or	a0,a5,a4
80001b74:	f91ff0ef          	jal	80001b04 <dfs>
80001b78:	00a40433          	add	s0,s0,a0
80001b7c:	fc0496e3          	bnez	s1,80001b48 <dfs+0x44>
80001b80:	00c12483          	lw	s1,12(sp)
80001b84:	01412083          	lw	ra,20(sp)
80001b88:	00040513          	mv	a0,s0
80001b8c:	01012403          	lw	s0,16(sp)
80001b90:	01810113          	addi	sp,sp,24
80001b94:	00008067          	ret

80001b98 <bench_queen_prepare>:
80001b98:	00006717          	auipc	a4,0x6
80001b9c:	fd472703          	lw	a4,-44(a4) # 80007b6c <setting>
80001ba0:	00100793          	li	a5,1
80001ba4:	00006697          	auipc	a3,0x6
80001ba8:	fa06ae23          	sw	zero,-68(a3) # 80007b60 <ans>
80001bac:	00072703          	lw	a4,0(a4)
80001bb0:	00e797b3          	sll	a5,a5,a4
80001bb4:	fff78793          	addi	a5,a5,-1 # 3fff <_entry_offset+0x3fff>
80001bb8:	00006717          	auipc	a4,0x6
80001bbc:	faf72623          	sw	a5,-84(a4) # 80007b64 <FULL>
80001bc0:	00008067          	ret

80001bc4 <bench_queen_run>:
80001bc4:	ff410113          	addi	sp,sp,-12
80001bc8:	00812223          	sw	s0,4(sp)
80001bcc:	00006417          	auipc	s0,0x6
80001bd0:	f9842403          	lw	s0,-104(s0) # 80007b64 <FULL>
80001bd4:	00912023          	sw	s1,0(sp)
80001bd8:	00112423          	sw	ra,8(sp)
80001bdc:	00100493          	li	s1,1
80001be0:	02040463          	beqz	s0,80001c08 <bench_queen_run+0x44>
80001be4:	00000493          	li	s1,0
80001be8:	40800533          	neg	a0,s0
80001bec:	00857533          	and	a0,a0,s0
80001bf0:	00155613          	srli	a2,a0,0x1
80001bf4:	00151593          	slli	a1,a0,0x1
80001bf8:	40a40433          	sub	s0,s0,a0
80001bfc:	f09ff0ef          	jal	80001b04 <dfs>
80001c00:	00a484b3          	add	s1,s1,a0
80001c04:	fe0412e3          	bnez	s0,80001be8 <bench_queen_run+0x24>
80001c08:	00812083          	lw	ra,8(sp)
80001c0c:	00412403          	lw	s0,4(sp)
80001c10:	00006797          	auipc	a5,0x6
80001c14:	f497a823          	sw	s1,-176(a5) # 80007b60 <ans>
80001c18:	00012483          	lw	s1,0(sp)
80001c1c:	00c10113          	addi	sp,sp,12
80001c20:	00008067          	ret

80001c24 <bench_queen_validate>:
80001c24:	00006717          	auipc	a4,0x6
80001c28:	f4872703          	lw	a4,-184(a4) # 80007b6c <setting>
80001c2c:	00006797          	auipc	a5,0x6
80001c30:	f347a783          	lw	a5,-204(a5) # 80007b60 <ans>
80001c34:	00c72503          	lw	a0,12(a4)
80001c38:	40f50533          	sub	a0,a0,a5
80001c3c:	00153513          	seqz	a0,a0
80001c40:	00008067          	ret

80001c44 <format_time>:
80001c44:	fec10113          	addi	sp,sp,-20
80001c48:	3e800613          	li	a2,1000
80001c4c:	00000693          	li	a3,0
80001c50:	00112823          	sw	ra,16(sp)
80001c54:	00812623          	sw	s0,12(sp)
80001c58:	00912423          	sw	s1,8(sp)
80001c5c:	00050413          	mv	s0,a0
80001c60:	00058493          	mv	s1,a1
80001c64:	4fd040ef          	jal	80006960 <__umoddi3>
80001c68:	00050793          	mv	a5,a0
80001c6c:	3e800613          	li	a2,1000
80001c70:	00000693          	li	a3,0
80001c74:	00b12023          	sw	a1,0(sp)
80001c78:	00040513          	mv	a0,s0
80001c7c:	00048593          	mv	a1,s1
80001c80:	00078493          	mv	s1,a5
80001c84:	4d5040ef          	jal	80006958 <__udivdi3>
80001c88:	00058693          	mv	a3,a1
80001c8c:	00050613          	mv	a2,a0
80001c90:	00005597          	auipc	a1,0x5
80001c94:	10858593          	addi	a1,a1,264 # 80006d98 <k+0x1bc>
80001c98:	00006517          	auipc	a0,0x6
80001c9c:	e8450513          	addi	a0,a0,-380 # 80007b1c <buf.0>
80001ca0:	0e1040ef          	jal	80006580 <sprintf>
80001ca4:	00012703          	lw	a4,0(sp)
80001ca8:	009766b3          	or	a3,a4,s1
80001cac:	06068663          	beqz	a3,80001d18 <format_time+0xd4>
80001cb0:	00006417          	auipc	s0,0x6
80001cb4:	e6b40413          	addi	s0,s0,-405 # 80007b1b <lut+0x1ff>
80001cb8:	00a40433          	add	s0,s0,a0
80001cbc:	00a00613          	li	a2,10
80001cc0:	00000693          	li	a3,0
80001cc4:	00048513          	mv	a0,s1
80001cc8:	00070593          	mv	a1,a4
80001ccc:	00e12023          	sw	a4,0(sp)
80001cd0:	491040ef          	jal	80006960 <__umoddi3>
80001cd4:	00012703          	lw	a4,0(sp)
80001cd8:	03050513          	addi	a0,a0,48
80001cdc:	00a40023          	sb	a0,0(s0)
80001ce0:	00070593          	mv	a1,a4
80001ce4:	00048513          	mv	a0,s1
80001ce8:	00a00613          	li	a2,10
80001cec:	00000693          	li	a3,0
80001cf0:	00912223          	sw	s1,4(sp)
80001cf4:	465040ef          	jal	80006958 <__udivdi3>
80001cf8:	00012303          	lw	t1,0(sp)
80001cfc:	fff40413          	addi	s0,s0,-1
80001d00:	00050493          	mv	s1,a0
80001d04:	00058713          	mv	a4,a1
80001d08:	fa031ae3          	bnez	t1,80001cbc <format_time+0x78>
80001d0c:	00412783          	lw	a5,4(sp)
80001d10:	00900693          	li	a3,9
80001d14:	faf6e4e3          	bltu	a3,a5,80001cbc <format_time+0x78>
80001d18:	01012083          	lw	ra,16(sp)
80001d1c:	00c12403          	lw	s0,12(sp)
80001d20:	00812483          	lw	s1,8(sp)
80001d24:	00006517          	auipc	a0,0x6
80001d28:	df850513          	addi	a0,a0,-520 # 80007b1c <buf.0>
80001d2c:	01410113          	addi	sp,sp,20
80001d30:	00008067          	ret

80001d34 <main>:
80001d34:	fb810113          	addi	sp,sp,-72
80001d38:	03710793          	addi	a5,sp,55
80001d3c:	ff87f793          	andi	a5,a5,-8
80001d40:	04112223          	sw	ra,68(sp)
80001d44:	04812023          	sw	s0,64(sp)
80001d48:	02912e23          	sw	s1,60(sp)
80001d4c:	00f12023          	sw	a5,0(sp)
80001d50:	3e050863          	beqz	a0,80002140 <main+0x40c>
80001d54:	00005597          	auipc	a1,0x5
80001d58:	53858593          	addi	a1,a1,1336 # 8000728c <k+0x6b0>
80001d5c:	00050413          	mv	s0,a0
80001d60:	539040ef          	jal	80006a98 <strcmp>
80001d64:	3c050e63          	beqz	a0,80002140 <main+0x40c>
80001d68:	00005597          	auipc	a1,0x5
80001d6c:	07458593          	addi	a1,a1,116 # 80006ddc <k+0x200>
80001d70:	00040513          	mv	a0,s0
80001d74:	525040ef          	jal	80006a98 <strcmp>
80001d78:	00a12c23          	sw	a0,24(sp)
80001d7c:	02050063          	beqz	a0,80001d9c <main+0x68>
80001d80:	00005597          	auipc	a1,0x5
80001d84:	06458593          	addi	a1,a1,100 # 80006de4 <k+0x208>
80001d88:	00040513          	mv	a0,s0
80001d8c:	50d040ef          	jal	80006a98 <strcmp>
80001d90:	00100793          	li	a5,1
80001d94:	00f12c23          	sw	a5,24(sp)
80001d98:	40051863          	bnez	a0,800021a8 <main+0x474>
80001d9c:	6e4030ef          	jal	80005480 <ioe_init>
80001da0:	00040593          	mv	a1,s0
80001da4:	00005517          	auipc	a0,0x5
80001da8:	09050513          	addi	a0,a0,144 # 80006e34 <k+0x258>
80001dac:	139030ef          	jal	800056e4 <printf>
80001db0:	00012403          	lw	s0,0(sp)
80001db4:	00600513          	li	a0,6
80001db8:	00006497          	auipc	s1,0x6
80001dbc:	b5c48493          	addi	s1,s1,-1188 # 80007914 <heap>
80001dc0:	00040593          	mv	a1,s0
80001dc4:	710030ef          	jal	800054d4 <ioe_read>
80001dc8:	00042783          	lw	a5,0(s0)
80001dcc:	00006717          	auipc	a4,0x6
80001dd0:	81470713          	addi	a4,a4,-2028 # 800075e0 <benchmarks+0x14>
80001dd4:	00005417          	auipc	s0,0x5
80001dd8:	7f840413          	addi	s0,s0,2040 # 800075cc <benchmarks>
80001ddc:	02f12423          	sw	a5,40(sp)
80001de0:	00012783          	lw	a5,0(sp)
80001de4:	00012423          	sw	zero,8(sp)
80001de8:	00012823          	sw	zero,16(sp)
80001dec:	0047a783          	lw	a5,4(a5)
80001df0:	02012223          	sw	zero,36(sp)
80001df4:	02f12623          	sw	a5,44(sp)
80001df8:	01812783          	lw	a5,24(sp)
80001dfc:	00479793          	slli	a5,a5,0x4
80001e00:	00f70733          	add	a4,a4,a5
80001e04:	00100793          	li	a5,1
80001e08:	00f12e23          	sw	a5,28(sp)
80001e0c:	00040793          	mv	a5,s0
80001e10:	00070413          	mv	s0,a4
80001e14:	0400006f          	j	80001e54 <main+0x120>
80001e18:	00005517          	auipc	a0,0x5
80001e1c:	05050513          	addi	a0,a0,80 # 80006e68 <k+0x28c>
80001e20:	00f12223          	sw	a5,4(sp)
80001e24:	0c1030ef          	jal	800056e4 <printf>
80001e28:	00005597          	auipc	a1,0x5
80001e2c:	04c58593          	addi	a1,a1,76 # 80006e74 <k+0x298>
80001e30:	00005517          	auipc	a0,0x5
80001e34:	05c50513          	addi	a0,a0,92 # 80006e8c <k+0x2b0>
80001e38:	0ad030ef          	jal	800056e4 <printf>
80001e3c:	00412783          	lw	a5,4(sp)
80001e40:	05478793          	addi	a5,a5,84
80001e44:	00006717          	auipc	a4,0x6
80001e48:	ad070713          	addi	a4,a4,-1328 # 80007914 <heap>
80001e4c:	05440413          	addi	s0,s0,84
80001e50:	1ef70e63          	beq	a4,a5,8000204c <main+0x318>
80001e54:	0004a603          	lw	a2,0(s1)
80001e58:	0044a683          	lw	a3,4(s1)
80001e5c:	00442503          	lw	a0,4(s0)
80001e60:	00006717          	auipc	a4,0x6
80001e64:	d1070713          	addi	a4,a4,-752 # 80007b70 <current>
80001e68:	40c686b3          	sub	a3,a3,a2
80001e6c:	00f72023          	sw	a5,0(a4)
80001e70:	00006617          	auipc	a2,0x6
80001e74:	ce862e23          	sw	s0,-772(a2) # 80007b6c <setting>
80001e78:	00c7a583          	lw	a1,12(a5)
80001e7c:	0107a603          	lw	a2,16(a5)
80001e80:	f8a6ece3          	bltu	a3,a0,80001e18 <main+0xe4>
80001e84:	00005517          	auipc	a0,0x5
80001e88:	fe450513          	addi	a0,a0,-28 # 80006e68 <k+0x28c>
80001e8c:	00f12a23          	sw	a5,20(sp)
80001e90:	055030ef          	jal	800056e4 <printf>
80001e94:	00006617          	auipc	a2,0x6
80001e98:	cdc62603          	lw	a2,-804(a2) # 80007b70 <current>
80001e9c:	0004a683          	lw	a3,0(s1)
80001ea0:	00062603          	lw	a2,0(a2)
80001ea4:	00768693          	addi	a3,a3,7
80001ea8:	ff86f693          	andi	a3,a3,-8
80001eac:	00006597          	auipc	a1,0x6
80001eb0:	cad5ae23          	sw	a3,-836(a1) # 80007b68 <hbrk>
80001eb4:	000600e7          	jalr	a2
80001eb8:	00012583          	lw	a1,0(sp)
80001ebc:	00600513          	li	a0,6
80001ec0:	614030ef          	jal	800054d4 <ioe_read>
80001ec4:	00012783          	lw	a5,0(sp)
80001ec8:	00006697          	auipc	a3,0x6
80001ecc:	ca86a683          	lw	a3,-856(a3) # 80007b70 <current>
80001ed0:	0007a703          	lw	a4,0(a5)
80001ed4:	0047a303          	lw	t1,4(a5)
80001ed8:	0046a683          	lw	a3,4(a3)
80001edc:	00e12623          	sw	a4,12(sp)
80001ee0:	00612223          	sw	t1,4(sp)
80001ee4:	000680e7          	jalr	a3
80001ee8:	00012583          	lw	a1,0(sp)
80001eec:	00600513          	li	a0,6
80001ef0:	5e4030ef          	jal	800054d4 <ioe_read>
80001ef4:	00012783          	lw	a5,0(sp)
80001ef8:	00c12703          	lw	a4,12(sp)
80001efc:	00006597          	auipc	a1,0x6
80001f00:	c745a583          	lw	a1,-908(a1) # 80007b70 <current>
80001f04:	0007a683          	lw	a3,0(a5)
80001f08:	0047a603          	lw	a2,4(a5)
80001f0c:	00412303          	lw	t1,4(sp)
80001f10:	40e687b3          	sub	a5,a3,a4
80001f14:	0085a583          	lw	a1,8(a1)
80001f18:	40660633          	sub	a2,a2,t1
80001f1c:	00f6b6b3          	sltu	a3,a3,a5
80001f20:	00f12223          	sw	a5,4(sp)
80001f24:	40d607b3          	sub	a5,a2,a3
80001f28:	00f12623          	sw	a5,12(sp)
80001f2c:	000580e7          	jalr	a1
80001f30:	00812783          	lw	a5,8(sp)
80001f34:	00412703          	lw	a4,4(sp)
80001f38:	00050613          	mv	a2,a0
80001f3c:	00e786b3          	add	a3,a5,a4
80001f40:	01012783          	lw	a5,16(sp)
80001f44:	00c12703          	lw	a4,12(sp)
80001f48:	00e785b3          	add	a1,a5,a4
80001f4c:	00812783          	lw	a5,8(sp)
80001f50:	00d12423          	sw	a3,8(sp)
80001f54:	00f6b533          	sltu	a0,a3,a5
80001f58:	00b507b3          	add	a5,a0,a1
80001f5c:	00f12823          	sw	a5,16(sp)
80001f60:	01412783          	lw	a5,20(sp)
80001f64:	1e060a63          	beqz	a2,80002158 <main+0x424>
80001f68:	00005517          	auipc	a0,0x5
80001f6c:	f3450513          	addi	a0,a0,-204 # 80006e9c <k+0x2c0>
80001f70:	02f12023          	sw	a5,32(sp)
80001f74:	00c12a23          	sw	a2,20(sp)
80001f78:	76c030ef          	jal	800056e4 <printf>
80001f7c:	01412603          	lw	a2,20(sp)
80001f80:	02012783          	lw	a5,32(sp)
80001f84:	00167613          	andi	a2,a2,1
80001f88:	1e060263          	beqz	a2,8000216c <main+0x438>
80001f8c:	00005517          	auipc	a0,0x5
80001f90:	f1450513          	addi	a0,a0,-236 # 80006ea0 <k+0x2c4>
80001f94:	00f12a23          	sw	a5,20(sp)
80001f98:	74c030ef          	jal	800056e4 <printf>
80001f9c:	00412783          	lw	a5,4(sp)
80001fa0:	00c12703          	lw	a4,12(sp)
80001fa4:	02012023          	sw	zero,32(sp)
80001fa8:	00e7e6b3          	or	a3,a5,a4
80001fac:	01412783          	lw	a5,20(sp)
80001fb0:	04068463          	beqz	a3,80001ff8 <main+0x2c4>
80001fb4:	00006517          	auipc	a0,0x6
80001fb8:	bb852503          	lw	a0,-1096(a0) # 80007b6c <setting>
80001fbc:	00018637          	lui	a2,0x18
80001fc0:	6a060613          	addi	a2,a2,1696 # 186a0 <_entry_offset+0x186a0>
80001fc4:	00852503          	lw	a0,8(a0)
80001fc8:	00000693          	li	a3,0
80001fcc:	00000593          	li	a1,0
80001fd0:	00f12a23          	sw	a5,20(sp)
80001fd4:	65c030ef          	jal	80005630 <__muldi3>
80001fd8:	00412603          	lw	a2,4(sp)
80001fdc:	00c12683          	lw	a3,12(sp)
80001fe0:	179040ef          	jal	80006958 <__udivdi3>
80001fe4:	02412703          	lw	a4,36(sp)
80001fe8:	02a12023          	sw	a0,32(sp)
80001fec:	00a707b3          	add	a5,a4,a0
80001ff0:	02f12223          	sw	a5,36(sp)
80001ff4:	01412783          	lw	a5,20(sp)
80001ff8:	00005517          	auipc	a0,0x5
80001ffc:	f6850513          	addi	a0,a0,-152 # 80006f60 <k+0x384>
80002000:	00f12a23          	sw	a5,20(sp)
80002004:	6e0030ef          	jal	800056e4 <printf>
80002008:	01812703          	lw	a4,24(sp)
8000200c:	01412783          	lw	a5,20(sp)
80002010:	e20708e3          	beqz	a4,80001e40 <main+0x10c>
80002014:	00c12583          	lw	a1,12(sp)
80002018:	00412503          	lw	a0,4(sp)
8000201c:	05440413          	addi	s0,s0,84
80002020:	c25ff0ef          	jal	80001c44 <format_time>
80002024:	02012603          	lw	a2,32(sp)
80002028:	00050593          	mv	a1,a0
8000202c:	00005517          	auipc	a0,0x5
80002030:	e8c50513          	addi	a0,a0,-372 # 80006eb8 <k+0x2dc>
80002034:	6b0030ef          	jal	800056e4 <printf>
80002038:	01412783          	lw	a5,20(sp)
8000203c:	00006717          	auipc	a4,0x6
80002040:	8d870713          	addi	a4,a4,-1832 # 80007914 <heap>
80002044:	05478793          	addi	a5,a5,84
80002048:	e0f716e3          	bne	a4,a5,80001e54 <main+0x120>
8000204c:	00012403          	lw	s0,0(sp)
80002050:	00600513          	li	a0,6
80002054:	00040593          	mv	a1,s0
80002058:	47c030ef          	jal	800054d4 <ioe_read>
8000205c:	00012703          	lw	a4,0(sp)
80002060:	00042783          	lw	a5,0(s0)
80002064:	00005517          	auipc	a0,0x5
80002068:	e6c50513          	addi	a0,a0,-404 # 80006ed0 <k+0x2f4>
8000206c:	00472403          	lw	s0,4(a4)
80002070:	02812703          	lw	a4,40(sp)
80002074:	40e784b3          	sub	s1,a5,a4
80002078:	02c12703          	lw	a4,44(sp)
8000207c:	0097b7b3          	sltu	a5,a5,s1
80002080:	40e40433          	sub	s0,s0,a4
80002084:	40f40433          	sub	s0,s0,a5
80002088:	65c030ef          	jal	800056e4 <printf>
8000208c:	01c12783          	lw	a5,28(sp)
80002090:	00005597          	auipc	a1,0x5
80002094:	d1c58593          	addi	a1,a1,-740 # 80006dac <k+0x1d0>
80002098:	0e079a63          	bnez	a5,8000218c <main+0x458>
8000209c:	00005517          	auipc	a0,0x5
800020a0:	e6850513          	addi	a0,a0,-408 # 80006f04 <k+0x328>
800020a4:	640030ef          	jal	800056e4 <printf>
800020a8:	01812703          	lw	a4,24(sp)
800020ac:	00100793          	li	a5,1
800020b0:	0ee7d463          	bge	a5,a4,80002198 <main+0x464>
800020b4:	02412503          	lw	a0,36(sp)
800020b8:	00a00593          	li	a1,10
800020bc:	4a4030ef          	jal	80005560 <__hidden___udivsi3>
800020c0:	00050593          	mv	a1,a0
800020c4:	00005517          	auipc	a0,0x5
800020c8:	e5050513          	addi	a0,a0,-432 # 80006f14 <k+0x338>
800020cc:	618030ef          	jal	800056e4 <printf>
800020d0:	000185b7          	lui	a1,0x18
800020d4:	6a058593          	addi	a1,a1,1696 # 186a0 <_entry_offset+0x186a0>
800020d8:	00005617          	auipc	a2,0x5
800020dc:	e5060613          	addi	a2,a2,-432 # 80006f28 <k+0x34c>
800020e0:	00005517          	auipc	a0,0x5
800020e4:	e5c50513          	addi	a0,a0,-420 # 80006f3c <k+0x360>
800020e8:	5fc030ef          	jal	800056e4 <printf>
800020ec:	01012583          	lw	a1,16(sp)
800020f0:	00812503          	lw	a0,8(sp)
800020f4:	b51ff0ef          	jal	80001c44 <format_time>
800020f8:	00050593          	mv	a1,a0
800020fc:	00005517          	auipc	a0,0x5
80002100:	e6850513          	addi	a0,a0,-408 # 80006f64 <k+0x388>
80002104:	5e0030ef          	jal	800056e4 <printf>
80002108:	00040593          	mv	a1,s0
8000210c:	00048513          	mv	a0,s1
80002110:	b35ff0ef          	jal	80001c44 <format_time>
80002114:	00050593          	mv	a1,a0
80002118:	00005517          	auipc	a0,0x5
8000211c:	e6050513          	addi	a0,a0,-416 # 80006f78 <k+0x39c>
80002120:	5c4030ef          	jal	800056e4 <printf>
80002124:	01c12783          	lw	a5,28(sp)
80002128:	04412083          	lw	ra,68(sp)
8000212c:	04012403          	lw	s0,64(sp)
80002130:	03c12483          	lw	s1,60(sp)
80002134:	0017c513          	xori	a0,a5,1
80002138:	04810113          	addi	sp,sp,72
8000213c:	00008067          	ret
80002140:	00005517          	auipc	a0,0x5
80002144:	c7450513          	addi	a0,a0,-908 # 80006db4 <k+0x1d8>
80002148:	59c030ef          	jal	800056e4 <printf>
8000214c:	00005417          	auipc	s0,0x5
80002150:	c5440413          	addi	s0,s0,-940 # 80006da0 <k+0x1c4>
80002154:	c15ff06f          	j	80001d68 <main+0x34>
80002158:	00005517          	auipc	a0,0x5
8000215c:	d4050513          	addi	a0,a0,-704 # 80006e98 <k+0x2bc>
80002160:	00f12a23          	sw	a5,20(sp)
80002164:	580030ef          	jal	800056e4 <printf>
80002168:	01412783          	lw	a5,20(sp)
8000216c:	00005517          	auipc	a0,0x5
80002170:	d4050513          	addi	a0,a0,-704 # 80006eac <k+0x2d0>
80002174:	00f12a23          	sw	a5,20(sp)
80002178:	56c030ef          	jal	800056e4 <printf>
8000217c:	01412783          	lw	a5,20(sp)
80002180:	00012e23          	sw	zero,28(sp)
80002184:	02012023          	sw	zero,32(sp)
80002188:	e71ff06f          	j	80001ff8 <main+0x2c4>
8000218c:	00005597          	auipc	a1,0x5
80002190:	c1858593          	addi	a1,a1,-1000 # 80006da4 <k+0x1c8>
80002194:	f09ff06f          	j	8000209c <main+0x368>
80002198:	00005517          	auipc	a0,0x5
8000219c:	dc850513          	addi	a0,a0,-568 # 80006f60 <k+0x384>
800021a0:	544030ef          	jal	800056e4 <printf>
800021a4:	f49ff06f          	j	800020ec <main+0x3b8>
800021a8:	00005597          	auipc	a1,0x5
800021ac:	bf858593          	addi	a1,a1,-1032 # 80006da0 <k+0x1c4>
800021b0:	00040513          	mv	a0,s0
800021b4:	0e5040ef          	jal	80006a98 <strcmp>
800021b8:	00200793          	li	a5,2
800021bc:	00f12c23          	sw	a5,24(sp)
800021c0:	bc050ee3          	beqz	a0,80001d9c <main+0x68>
800021c4:	00005597          	auipc	a1,0x5
800021c8:	c2858593          	addi	a1,a1,-984 # 80006dec <k+0x210>
800021cc:	00040513          	mv	a0,s0
800021d0:	0c9040ef          	jal	80006a98 <strcmp>
800021d4:	00300793          	li	a5,3
800021d8:	00f12c23          	sw	a5,24(sp)
800021dc:	bc0500e3          	beqz	a0,80001d9c <main+0x68>
800021e0:	00040593          	mv	a1,s0
800021e4:	00005517          	auipc	a0,0x5
800021e8:	c1050513          	addi	a0,a0,-1008 # 80006df4 <k+0x218>
800021ec:	4f8030ef          	jal	800056e4 <printf>
800021f0:	00100513          	li	a0,1
800021f4:	1b8030ef          	jal	800053ac <halt>

800021f8 <bench_alloc>:
800021f8:	00750713          	addi	a4,a0,7
800021fc:	00006517          	auipc	a0,0x6
80002200:	96c52503          	lw	a0,-1684(a0) # 80007b68 <hbrk>
80002204:	00005797          	auipc	a5,0x5
80002208:	71078793          	addi	a5,a5,1808 # 80007914 <heap>
8000220c:	ff877713          	andi	a4,a4,-8
80002210:	0007a683          	lw	a3,0(a5)
80002214:	ffc10113          	addi	sp,sp,-4
80002218:	00e50733          	add	a4,a0,a4
8000221c:	00112023          	sw	ra,0(sp)
80002220:	00006617          	auipc	a2,0x6
80002224:	94e62423          	sw	a4,-1720(a2) # 80007b68 <hbrk>
80002228:	04d76663          	bltu	a4,a3,80002274 <bench_alloc+0x7c>
8000222c:	0047a783          	lw	a5,4(a5)
80002230:	04f77263          	bgeu	a4,a5,80002274 <bench_alloc+0x7c>
80002234:	00050793          	mv	a5,a0
80002238:	00a70e63          	beq	a4,a0,80002254 <bench_alloc+0x5c>
8000223c:	00000593          	li	a1,0
80002240:	00000613          	li	a2,0
80002244:	00b7a023          	sw	a1,0(a5)
80002248:	00c7a223          	sw	a2,4(a5)
8000224c:	00878793          	addi	a5,a5,8
80002250:	fef716e3          	bne	a4,a5,8000223c <bench_alloc+0x44>
80002254:	00006797          	auipc	a5,0x6
80002258:	9187a783          	lw	a5,-1768(a5) # 80007b6c <setting>
8000225c:	40d70733          	sub	a4,a4,a3
80002260:	0047a783          	lw	a5,4(a5)
80002264:	02e7e863          	bltu	a5,a4,80002294 <bench_alloc+0x9c>
80002268:	00012083          	lw	ra,0(sp)
8000226c:	00410113          	addi	sp,sp,4
80002270:	00008067          	ret
80002274:	0a100613          	li	a2,161
80002278:	00005597          	auipc	a1,0x5
8000227c:	d1458593          	addi	a1,a1,-748 # 80006f8c <k+0x3b0>
80002280:	00005517          	auipc	a0,0x5
80002284:	aac50513          	addi	a0,a0,-1364 # 80006d2c <k+0x150>
80002288:	45c030ef          	jal	800056e4 <printf>
8000228c:	00100513          	li	a0,1
80002290:	11c030ef          	jal	800053ac <halt>
80002294:	0a500613          	li	a2,165
80002298:	fe1ff06f          	j	80002278 <bench_alloc+0x80>

8000229c <bench_srand>:
8000229c:	01151513          	slli	a0,a0,0x11
800022a0:	01155513          	srli	a0,a0,0x11
800022a4:	00005797          	auipc	a5,0x5
800022a8:	32a7a223          	sw	a0,804(a5) # 800075c8 <seed>
800022ac:	00008067          	ret

800022b0 <bench_rand>:
800022b0:	00005717          	auipc	a4,0x5
800022b4:	31872703          	lw	a4,792(a4) # 800075c8 <seed>
800022b8:	0026a7b7          	lui	a5,0x26a
800022bc:	ec378793          	addi	a5,a5,-317 # 269ec3 <_entry_offset+0x269ec3>
800022c0:	00171513          	slli	a0,a4,0x1
800022c4:	00e50533          	add	a0,a0,a4
800022c8:	00251513          	slli	a0,a0,0x2
800022cc:	00e50533          	add	a0,a0,a4
800022d0:	00451513          	slli	a0,a0,0x4
800022d4:	00e50533          	add	a0,a0,a4
800022d8:	00851513          	slli	a0,a0,0x8
800022dc:	40e50533          	sub	a0,a0,a4
800022e0:	00251513          	slli	a0,a0,0x2
800022e4:	00e50533          	add	a0,a0,a4
800022e8:	00f50533          	add	a0,a0,a5
800022ec:	00005797          	auipc	a5,0x5
800022f0:	2ca7ae23          	sw	a0,732(a5) # 800075c8 <seed>
800022f4:	00151793          	slli	a5,a0,0x1
800022f8:	0117d513          	srli	a0,a5,0x11
800022fc:	00008067          	ret

80002300 <checksum>:
80002300:	811ca7b7          	lui	a5,0x811ca
80002304:	00450613          	addi	a2,a0,4
80002308:	dc578793          	addi	a5,a5,-571 # 811c9dc5 <_end+0x11b9dc5>
8000230c:	0ab67463          	bgeu	a2,a1,800023b4 <checksum+0xb4>
80002310:	00050693          	mv	a3,a0
80002314:	0006c703          	lbu	a4,0(a3)
80002318:	00168693          	addi	a3,a3,1
8000231c:	00f74733          	xor	a4,a4,a5
80002320:	00f71793          	slli	a5,a4,0xf
80002324:	00e787b3          	add	a5,a5,a4
80002328:	00279793          	slli	a5,a5,0x2
8000232c:	40e787b3          	sub	a5,a5,a4
80002330:	00379793          	slli	a5,a5,0x3
80002334:	00e787b3          	add	a5,a5,a4
80002338:	00279793          	slli	a5,a5,0x2
8000233c:	00e787b3          	add	a5,a5,a4
80002340:	00279793          	slli	a5,a5,0x2
80002344:	40e787b3          	sub	a5,a5,a4
80002348:	fcd616e3          	bne	a2,a3,80002314 <checksum+0x14>
8000234c:	00460613          	addi	a2,a2,4
80002350:	00450513          	addi	a0,a0,4
80002354:	fab66ee3          	bltu	a2,a1,80002310 <checksum+0x10>
80002358:	00571693          	slli	a3,a4,0x5
8000235c:	40e686b3          	sub	a3,a3,a4
80002360:	00369693          	slli	a3,a3,0x3
80002364:	00e686b3          	add	a3,a3,a4
80002368:	00669793          	slli	a5,a3,0x6
8000236c:	40d787b3          	sub	a5,a5,a3
80002370:	00279793          	slli	a5,a5,0x2
80002374:	40e787b3          	sub	a5,a5,a4
80002378:	00379793          	slli	a5,a5,0x3
8000237c:	40e787b3          	sub	a5,a5,a4
80002380:	00379793          	slli	a5,a5,0x3
80002384:	40e787b3          	sub	a5,a5,a4
80002388:	00279713          	slli	a4,a5,0x2
8000238c:	00e787b3          	add	a5,a5,a4
80002390:	4077d713          	srai	a4,a5,0x7
80002394:	00f747b3          	xor	a5,a4,a5
80002398:	00379713          	slli	a4,a5,0x3
8000239c:	00f70733          	add	a4,a4,a5
800023a0:	41175793          	srai	a5,a4,0x11
800023a4:	00e7c7b3          	xor	a5,a5,a4
800023a8:	00579513          	slli	a0,a5,0x5
800023ac:	00f50533          	add	a0,a0,a5
800023b0:	00008067          	ret
800023b4:	a6f00537          	lui	a0,0xa6f00
800023b8:	79e50513          	addi	a0,a0,1950 # a6f0079e <_end+0x26ef079e>
800023bc:	00008067          	ret

800023c0 <bench_memcpy.part.0>:
800023c0:	ffc10113          	addi	sp,sp,-4
800023c4:	00800613          	li	a2,8
800023c8:	00005597          	auipc	a1,0x5
800023cc:	d0c58593          	addi	a1,a1,-756 # 800070d4 <k+0x4f8>
800023d0:	00005517          	auipc	a0,0x5
800023d4:	95c50513          	addi	a0,a0,-1700 # 80006d2c <k+0x150>
800023d8:	00112023          	sw	ra,0(sp)
800023dc:	308030ef          	jal	800056e4 <printf>
800023e0:	00100513          	li	a0,1
800023e4:	7c9020ef          	jal	800053ac <halt>

800023e8 <qlz_compress>:
800023e8:	fa810113          	addi	sp,sp,-88
800023ec:	00060313          	mv	t1,a2
800023f0:	04112a23          	sw	ra,84(sp)
800023f4:	fff60613          	addi	a2,a2,-1
800023f8:	e6e00793          	li	a5,-402
800023fc:	02a12623          	sw	a0,44(sp)
80002400:	68c7ee63          	bltu	a5,a2,80002a9c <qlz_compress+0x6b4>
80002404:	00058713          	mv	a4,a1
80002408:	0d700593          	li	a1,215
8000240c:	0065b5b3          	sltu	a1,a1,t1
80002410:	04812823          	sw	s0,80(sp)
80002414:	40b005b3          	neg	a1,a1
80002418:	00068413          	mv	s0,a3
8000241c:	000087b7          	lui	a5,0x8
80002420:	000096b7          	lui	a3,0x9
80002424:	0065f513          	andi	a0,a1,6
80002428:	00478793          	addi	a5,a5,4 # 8004 <_entry_offset+0x8004>
8000242c:	80468693          	addi	a3,a3,-2044 # 8804 <_entry_offset+0x8804>
80002430:	04912623          	sw	s1,76(sp)
80002434:	00350513          	addi	a0,a0,3
80002438:	00f407b3          	add	a5,s0,a5
8000243c:	00d406b3          	add	a3,s0,a3
80002440:	0007a023          	sw	zero,0(a5)
80002444:	00478793          	addi	a5,a5,4
80002448:	fef69ce3          	bne	a3,a5,80002440 <qlz_compress+0x58>
8000244c:	02c12783          	lw	a5,44(sp)
80002450:	00c787b3          	add	a5,a5,a2
80002454:	02f12423          	sw	a5,40(sp)
80002458:	ff678613          	addi	a2,a5,-10
8000245c:	00a707b3          	add	a5,a4,a0
80002460:	02f12a23          	sw	a5,52(sp)
80002464:	00478793          	addi	a5,a5,4
80002468:	00f12223          	sw	a5,4(sp)
8000246c:	02c12783          	lw	a5,44(sp)
80002470:	72f66a63          	bltu	a2,a5,80002ba4 <qlz_compress+0x7bc>
80002474:	02c12683          	lw	a3,44(sp)
80002478:	00135793          	srli	a5,t1,0x1
8000247c:	800004b7          	lui	s1,0x80000
80002480:	00f687b3          	add	a5,a3,a5
80002484:	02f12823          	sw	a5,48(sp)
80002488:	00a707b3          	add	a5,a4,a0
8000248c:	00f12c23          	sw	a5,24(sp)
80002490:	02812783          	lw	a5,40(sp)
80002494:	00912423          	sw	s1,8(sp)
80002498:	00412483          	lw	s1,4(sp)
8000249c:	ffc78793          	addi	a5,a5,-4
800024a0:	02a12e23          	sw	a0,60(sp)
800024a4:	00068293          	mv	t0,a3
800024a8:	02f12223          	sw	a5,36(sp)
800024ac:	00060513          	mv	a0,a2
800024b0:	04e12023          	sw	a4,64(sp)
800024b4:	04612223          	sw	t1,68(sp)
800024b8:	00812623          	sw	s0,12(sp)
800024bc:	00812783          	lw	a5,8(sp)
800024c0:	0017f793          	andi	a5,a5,1
800024c4:	40079a63          	bnez	a5,800028d8 <qlz_compress+0x4f0>
800024c8:	00812783          	lw	a5,8(sp)
800024cc:	0017d793          	srli	a5,a5,0x1
800024d0:	00f12423          	sw	a5,8(sp)
800024d4:	02412783          	lw	a5,36(sp)
800024d8:	40578733          	sub	a4,a5,t0
800024dc:	0fe00793          	li	a5,254
800024e0:	00e7d463          	bge	a5,a4,800024e8 <qlz_compress+0x100>
800024e4:	00078713          	mv	a4,a5
800024e8:	0012c683          	lbu	a3,1(t0)
800024ec:	0022c783          	lbu	a5,2(t0)
800024f0:	0002c603          	lbu	a2,0(t0)
800024f4:	00869693          	slli	a3,a3,0x8
800024f8:	01079793          	slli	a5,a5,0x10
800024fc:	00f6e6b3          	or	a3,a3,a5
80002500:	0096d593          	srli	a1,a3,0x9
80002504:	00d6d793          	srli	a5,a3,0xd
80002508:	00f5c7b3          	xor	a5,a1,a5
8000250c:	00c6e6b3          	or	a3,a3,a2
80002510:	00d7c7b3          	xor	a5,a5,a3
80002514:	7ff7f793          	andi	a5,a5,2047
80002518:	00f12223          	sw	a5,4(sp)
8000251c:	00479793          	slli	a5,a5,0x4
80002520:	00f12023          	sw	a5,0(sp)
80002524:	00012603          	lw	a2,0(sp)
80002528:	00c12783          	lw	a5,12(sp)
8000252c:	00412583          	lw	a1,4(sp)
80002530:	00c78433          	add	s0,a5,a2
80002534:	00b787b3          	add	a5,a5,a1
80002538:	000085b7          	lui	a1,0x8
8000253c:	00f585b3          	add	a1,a1,a5
80002540:	00f12823          	sw	a5,16(sp)
80002544:	00442603          	lw	a2,4(s0)
80002548:	ffe28793          	addi	a5,t0,-2
8000254c:	00f12a23          	sw	a5,20(sp)
80002550:	00170793          	addi	a5,a4,1
80002554:	02f12023          	sw	a5,32(sp)
80002558:	ffe28793          	addi	a5,t0,-2
8000255c:	0045c303          	lbu	t1,4(a1) # 8004 <_entry_offset+0x8004>
80002560:	00f67463          	bgeu	a2,a5,80002568 <qlz_compress+0x180>
80002564:	4a031463          	bnez	t1,80002a0c <qlz_compress+0x624>
80002568:	00100593          	li	a1,1
8000256c:	00000713          	li	a4,0
80002570:	00028393          	mv	t2,t0
80002574:	3c65f863          	bgeu	a1,t1,80002944 <qlz_compress+0x55c>
80002578:	00c12783          	lw	a5,12(sp)
8000257c:	00012603          	lw	a2,0(sp)
80002580:	00e12023          	sw	a4,0(sp)
80002584:	00012703          	lw	a4,0(sp)
80002588:	00c78633          	add	a2,a5,a2
8000258c:	00862783          	lw	a5,8(a2)
80002590:	00068413          	mv	s0,a3
80002594:	0003c383          	lbu	t2,0(t2)
80002598:	00e786b3          	add	a3,a5,a4
8000259c:	0006c683          	lbu	a3,0(a3)
800025a0:	00012e23          	sw	zero,28(sp)
800025a4:	00100593          	li	a1,1
800025a8:	02d38c63          	beq	t2,a3,800025e0 <qlz_compress+0x1f8>
800025ac:	00158593          	addi	a1,a1,1
800025b0:	ffc58793          	addi	a5,a1,-4
800025b4:	00460613          	addi	a2,a2,4
800025b8:	0a078c63          	beqz	a5,80002670 <qlz_compress+0x288>
800025bc:	0a65fa63          	bgeu	a1,t1,80002670 <qlz_compress+0x288>
800025c0:	00012783          	lw	a5,0(sp)
800025c4:	00012703          	lw	a4,0(sp)
800025c8:	00f283b3          	add	t2,t0,a5
800025cc:	00862783          	lw	a5,8(a2)
800025d0:	0003c383          	lbu	t2,0(t2)
800025d4:	00e786b3          	add	a3,a5,a4
800025d8:	0006c683          	lbu	a3,0(a3)
800025dc:	fcd398e3          	bne	t2,a3,800025ac <qlz_compress+0x1c4>
800025e0:	0017c683          	lbu	a3,1(a5)
800025e4:	0027c383          	lbu	t2,2(a5)
800025e8:	0007c703          	lbu	a4,0(a5)
800025ec:	00869693          	slli	a3,a3,0x8
800025f0:	01039393          	slli	t2,t2,0x10
800025f4:	0076e6b3          	or	a3,a3,t2
800025f8:	00e6e6b3          	or	a3,a3,a4
800025fc:	fa8698e3          	bne	a3,s0,800025ac <qlz_compress+0x1c4>
80002600:	01412703          	lw	a4,20(sp)
80002604:	fae7f4e3          	bgeu	a5,a4,800025ac <qlz_compress+0x1c4>
80002608:	0037c383          	lbu	t2,3(a5)
8000260c:	0032c683          	lbu	a3,3(t0)
80002610:	56d39c63          	bne	t2,a3,80002b88 <qlz_compress+0x7a0>
80002614:	02012703          	lw	a4,32(sp)
80002618:	00473693          	sltiu	a3,a4,4
8000261c:	56069663          	bnez	a3,80002b88 <qlz_compress+0x7a0>
80002620:	00300693          	li	a3,3
80002624:	02a12c23          	sw	a0,56(sp)
80002628:	00070393          	mv	t2,a4
8000262c:	0080006f          	j	80002634 <qlz_compress+0x24c>
80002630:	0076fe63          	bgeu	a3,t2,8000264c <qlz_compress+0x264>
80002634:	00168693          	addi	a3,a3,1
80002638:	00d78533          	add	a0,a5,a3
8000263c:	00d28733          	add	a4,t0,a3
80002640:	00054503          	lbu	a0,0(a0)
80002644:	00074703          	lbu	a4,0(a4)
80002648:	fee504e3          	beq	a0,a4,80002630 <qlz_compress+0x248>
8000264c:	03812503          	lw	a0,56(sp)
80002650:	00012783          	lw	a5,0(sp)
80002654:	f4d7fce3          	bgeu	a5,a3,800025ac <qlz_compress+0x1c4>
80002658:	00b12e23          	sw	a1,28(sp)
8000265c:	00158593          	addi	a1,a1,1
80002660:	00d12023          	sw	a3,0(sp)
80002664:	ffc58793          	addi	a5,a1,-4
80002668:	00460613          	addi	a2,a2,4
8000266c:	f40798e3          	bnez	a5,800025bc <qlz_compress+0x1d4>
80002670:	00412783          	lw	a5,4(sp)
80002674:	00337613          	andi	a2,t1,3
80002678:	00012703          	lw	a4,0(sp)
8000267c:	00279693          	slli	a3,a5,0x2
80002680:	00c12783          	lw	a5,12(sp)
80002684:	00c686b3          	add	a3,a3,a2
80002688:	00269693          	slli	a3,a3,0x2
8000268c:	00d786b3          	add	a3,a5,a3
80002690:	01012783          	lw	a5,16(sp)
80002694:	00008637          	lui	a2,0x8
80002698:	0056a223          	sw	t0,4(a3)
8000269c:	00130313          	addi	t1,t1,1
800026a0:	00f60633          	add	a2,a2,a5
800026a4:	00660223          	sb	t1,4(a2) # 8004 <_entry_offset+0x8004>
800026a8:	00200693          	li	a3,2
800026ac:	2ce6f463          	bgeu	a3,a4,80002974 <qlz_compress+0x58c>
800026b0:	00e283b3          	add	t2,t0,a4
800026b4:	00812603          	lw	a2,8(sp)
800026b8:	00412783          	lw	a5,4(sp)
800026bc:	01c12683          	lw	a3,28(sp)
800026c0:	800005b7          	lui	a1,0x80000
800026c4:	00579793          	slli	a5,a5,0x5
800026c8:	00b66633          	or	a2,a2,a1
800026cc:	00d7e7b3          	or	a5,a5,a3
800026d0:	00c12423          	sw	a2,8(sp)
800026d4:	00900693          	li	a3,9
800026d8:	00038293          	mv	t0,t2
800026dc:	30e6f663          	bgeu	a3,a4,800029e8 <qlz_compress+0x600>
800026e0:	01071713          	slli	a4,a4,0x10
800026e4:	00f76733          	or	a4,a4,a5
800026e8:	00875793          	srli	a5,a4,0x8
800026ec:	00e48023          	sb	a4,0(s1) # 80000000 <_start>
800026f0:	01075713          	srli	a4,a4,0x10
800026f4:	00f480a3          	sb	a5,1(s1)
800026f8:	00e48123          	sb	a4,2(s1)
800026fc:	00348493          	addi	s1,s1,3
80002700:	da557ee3          	bgeu	a0,t0,800024bc <qlz_compress+0xd4>
80002704:	02812783          	lw	a5,40(sp)
80002708:	00912223          	sw	s1,4(sp)
8000270c:	03c12503          	lw	a0,60(sp)
80002710:	00812483          	lw	s1,8(sp)
80002714:	04012703          	lw	a4,64(sp)
80002718:	04412303          	lw	t1,68(sp)
8000271c:	00c12403          	lw	s0,12(sp)
80002720:	4657e863          	bltu	a5,t0,80002b90 <qlz_compress+0x7a8>
80002724:	02812783          	lw	a5,40(sp)
80002728:	00412583          	lw	a1,4(sp)
8000272c:	800003b7          	lui	t2,0x80000
80002730:	ffd78613          	addi	a2,a5,-3
80002734:	04810793          	addi	a5,sp,72
80002738:	00f12423          	sw	a5,8(sp)
8000273c:	00a12623          	sw	a0,12(sp)
80002740:	00e12823          	sw	a4,16(sp)
80002744:	00612a23          	sw	t1,20(sp)
80002748:	0014f713          	andi	a4,s1,1
8000274c:	0014d793          	srli	a5,s1,0x1
80002750:	30071663          	bnez	a4,80002a5c <qlz_compress+0x674>
80002754:	0017f713          	andi	a4,a5,1
80002758:	0024d693          	srli	a3,s1,0x2
8000275c:	00e12023          	sw	a4,0(sp)
80002760:	00078493          	mv	s1,a5
80002764:	06566263          	bltu	a2,t0,800027c8 <qlz_compress+0x3e0>
80002768:	0012c703          	lbu	a4,1(t0)
8000276c:	0022c783          	lbu	a5,2(t0)
80002770:	0002c503          	lbu	a0,0(t0)
80002774:	00871713          	slli	a4,a4,0x8
80002778:	01079793          	slli	a5,a5,0x10
8000277c:	00f76733          	or	a4,a4,a5
80002780:	00d75313          	srli	t1,a4,0xd
80002784:	00975793          	srli	a5,a4,0x9
80002788:	0067c7b3          	xor	a5,a5,t1
8000278c:	00a76733          	or	a4,a4,a0
80002790:	00e7c7b3          	xor	a5,a5,a4
80002794:	7ff7f793          	andi	a5,a5,2047
80002798:	00f40733          	add	a4,s0,a5
8000279c:	00008537          	lui	a0,0x8
800027a0:	00e50733          	add	a4,a0,a4
800027a4:	00474503          	lbu	a0,4(a4)
800027a8:	00279793          	slli	a5,a5,0x2
800027ac:	00357313          	andi	t1,a0,3
800027b0:	006787b3          	add	a5,a5,t1
800027b4:	00279793          	slli	a5,a5,0x2
800027b8:	00f407b3          	add	a5,s0,a5
800027bc:	0057a223          	sw	t0,4(a5)
800027c0:	00150513          	addi	a0,a0,1 # 8001 <_entry_offset+0x8001>
800027c4:	00a70223          	sb	a0,4(a4)
800027c8:	0002c783          	lbu	a5,0(t0)
800027cc:	00128293          	addi	t0,t0,1
800027d0:	00158593          	addi	a1,a1,1 # 80000001 <_start+0x1>
800027d4:	fef58fa3          	sb	a5,-1(a1)
800027d8:	02812783          	lw	a5,40(sp)
800027dc:	f657f6e3          	bgeu	a5,t0,80002748 <qlz_compress+0x360>
800027e0:	00c12503          	lw	a0,12(sp)
800027e4:	00012603          	lw	a2,0(sp)
800027e8:	01012703          	lw	a4,16(sp)
800027ec:	01412303          	lw	t1,20(sp)
800027f0:	00b12223          	sw	a1,4(sp)
800027f4:	00412783          	lw	a5,4(sp)
800027f8:	03412583          	lw	a1,52(sp)
800027fc:	40b785b3          	sub	a1,a5,a1
80002800:	00900793          	li	a5,9
80002804:	00f5d463          	bge	a1,a5,8000280c <qlz_compress+0x424>
80002808:	00078593          	mv	a1,a5
8000280c:	00061c63          	bnez	a2,80002824 <qlz_compress+0x43c>
80002810:	00048693          	mv	a3,s1
80002814:	0014d493          	srli	s1,s1,0x1
80002818:	0014f793          	andi	a5,s1,1
8000281c:	fe078ae3          	beqz	a5,80002810 <qlz_compress+0x428>
80002820:	0026d693          	srli	a3,a3,0x2
80002824:	800007b7          	lui	a5,0x80000
80002828:	00f6e6b3          	or	a3,a3,a5
8000282c:	00812383          	lw	t2,8(sp)
80002830:	01812783          	lw	a5,24(sp)
80002834:	04d12423          	sw	a3,72(sp)
80002838:	0003c683          	lbu	a3,0(t2) # 80000000 <_start>
8000283c:	00138393          	addi	t2,t2,1
80002840:	00178793          	addi	a5,a5,1 # 80000001 <_start+0x1>
80002844:	fed78fa3          	sb	a3,-1(a5)
80002848:	04c10693          	addi	a3,sp,76
8000284c:	fed396e3          	bne	t2,a3,80002838 <qlz_compress+0x450>
80002850:	00b505b3          	add	a1,a0,a1
80002854:	00100793          	li	a5,1
80002858:	00042023          	sw	zero,0(s0)
8000285c:	00300693          	li	a3,3
80002860:	24d50863          	beq	a0,a3,80002ab0 <qlz_compress+0x6c8>
80002864:	0027e793          	ori	a5,a5,2
80002868:	00f70023          	sb	a5,0(a4)
8000286c:	04b12423          	sw	a1,72(sp)
80002870:	04810793          	addi	a5,sp,72
80002874:	00170693          	addi	a3,a4,1
80002878:	0007c603          	lbu	a2,0(a5)
8000287c:	00178793          	addi	a5,a5,1
80002880:	00168693          	addi	a3,a3,1
80002884:	fec68fa3          	sb	a2,-1(a3)
80002888:	04c10613          	addi	a2,sp,76
8000288c:	fec796e3          	bne	a5,a2,80002878 <qlz_compress+0x490>
80002890:	04612423          	sw	t1,72(sp)
80002894:	04810793          	addi	a5,sp,72
80002898:	00570693          	addi	a3,a4,5
8000289c:	0007c603          	lbu	a2,0(a5)
800028a0:	00178793          	addi	a5,a5,1
800028a4:	00168693          	addi	a3,a3,1
800028a8:	fec68fa3          	sb	a2,-1(a3)
800028ac:	04c10613          	addi	a2,sp,76
800028b0:	fec796e3          	bne	a5,a2,8000289c <qlz_compress+0x4b4>
800028b4:	00074783          	lbu	a5,0(a4)
800028b8:	0487e793          	ori	a5,a5,72
800028bc:	00f70023          	sb	a5,0(a4)
800028c0:	05012403          	lw	s0,80(sp)
800028c4:	05412083          	lw	ra,84(sp)
800028c8:	04c12483          	lw	s1,76(sp)
800028cc:	00058513          	mv	a0,a1
800028d0:	05810113          	addi	sp,sp,88
800028d4:	00008067          	ret
800028d8:	03012783          	lw	a5,48(sp)
800028dc:	0257f063          	bgeu	a5,t0,800028fc <qlz_compress+0x514>
800028e0:	02c12783          	lw	a5,44(sp)
800028e4:	40f28733          	sub	a4,t0,a5
800028e8:	40575793          	srai	a5,a4,0x5
800028ec:	40f707b3          	sub	a5,a4,a5
800028f0:	03412703          	lw	a4,52(sp)
800028f4:	40e48733          	sub	a4,s1,a4
800028f8:	22e7cc63          	blt	a5,a4,80002b30 <qlz_compress+0x748>
800028fc:	00812783          	lw	a5,8(sp)
80002900:	80000737          	lui	a4,0x80000
80002904:	0017d793          	srli	a5,a5,0x1
80002908:	00e7e7b3          	or	a5,a5,a4
8000290c:	01812703          	lw	a4,24(sp)
80002910:	04f12423          	sw	a5,72(sp)
80002914:	04810793          	addi	a5,sp,72
80002918:	0007c683          	lbu	a3,0(a5)
8000291c:	00178793          	addi	a5,a5,1
80002920:	00170713          	addi	a4,a4,1 # 80000001 <_start+0x1>
80002924:	fed70fa3          	sb	a3,-1(a4)
80002928:	04c10693          	addi	a3,sp,76
8000292c:	fef696e3          	bne	a3,a5,80002918 <qlz_compress+0x530>
80002930:	400007b7          	lui	a5,0x40000
80002934:	00912c23          	sw	s1,24(sp)
80002938:	00f12423          	sw	a5,8(sp)
8000293c:	00448493          	addi	s1,s1,4
80002940:	b95ff06f          	j	800024d4 <qlz_compress+0xec>
80002944:	00412783          	lw	a5,4(sp)
80002948:	00c12703          	lw	a4,12(sp)
8000294c:	00279793          	slli	a5,a5,0x2
80002950:	006787b3          	add	a5,a5,t1
80002954:	00279793          	slli	a5,a5,0x2
80002958:	00f707b3          	add	a5,a4,a5
8000295c:	01012703          	lw	a4,16(sp)
80002960:	0057a223          	sw	t0,4(a5) # 40000004 <_entry_offset+0x40000004>
80002964:	000087b7          	lui	a5,0x8
80002968:	00b30333          	add	t1,t1,a1
8000296c:	00e787b3          	add	a5,a5,a4
80002970:	00678223          	sb	t1,4(a5) # 8004 <_entry_offset+0x8004>
80002974:	0002c783          	lbu	a5,0(t0)
80002978:	00148493          	addi	s1,s1,1
8000297c:	00128293          	addi	t0,t0,1
80002980:	fef48fa3          	sb	a5,-1(s1)
80002984:	b2557ce3          	bgeu	a0,t0,800024bc <qlz_compress+0xd4>
80002988:	d7dff06f          	j	80002704 <qlz_compress+0x31c>
8000298c:	00364583          	lbu	a1,3(a2)
80002990:	0032c703          	lbu	a4,3(t0)
80002994:	12e58463          	beq	a1,a4,80002abc <qlz_compress+0x6d4>
80002998:	00300713          	li	a4,3
8000299c:	00100593          	li	a1,1
800029a0:	00e283b3          	add	t2,t0,a4
800029a4:	bcb31ae3          	bne	t1,a1,80002578 <qlz_compress+0x190>
800029a8:	00c12783          	lw	a5,12(sp)
800029ac:	00012683          	lw	a3,0(sp)
800029b0:	00d78633          	add	a2,a5,a3
800029b4:	01012783          	lw	a5,16(sp)
800029b8:	000086b7          	lui	a3,0x8
800029bc:	00562423          	sw	t0,8(a2)
800029c0:	00f686b3          	add	a3,a3,a5
800029c4:	00200613          	li	a2,2
800029c8:	00c68223          	sb	a2,4(a3) # 8004 <_entry_offset+0x8004>
800029cc:	00812603          	lw	a2,8(sp)
800029d0:	00412783          	lw	a5,4(sp)
800029d4:	800006b7          	lui	a3,0x80000
800029d8:	00d666b3          	or	a3,a2,a3
800029dc:	00e282b3          	add	t0,t0,a4
800029e0:	00579793          	slli	a5,a5,0x5
800029e4:	00d12423          	sw	a3,8(sp)
800029e8:	ffe70713          	addi	a4,a4,-2
800029ec:	00271713          	slli	a4,a4,0x2
800029f0:	00f767b3          	or	a5,a4,a5
800029f4:	0087d713          	srli	a4,a5,0x8
800029f8:	00f48023          	sb	a5,0(s1)
800029fc:	00e480a3          	sb	a4,1(s1)
80002a00:	00248493          	addi	s1,s1,2
80002a04:	aa557ce3          	bgeu	a0,t0,800024bc <qlz_compress+0xd4>
80002a08:	cfdff06f          	j	80002704 <qlz_compress+0x31c>
80002a0c:	00164703          	lbu	a4,1(a2)
80002a10:	00264383          	lbu	t2,2(a2)
80002a14:	00064783          	lbu	a5,0(a2)
80002a18:	00871713          	slli	a4,a4,0x8
80002a1c:	01039393          	slli	t2,t2,0x10
80002a20:	00776733          	or	a4,a4,t2
80002a24:	00f76733          	or	a4,a4,a5
80002a28:	f6d702e3          	beq	a4,a3,8000298c <qlz_compress+0x5a4>
80002a2c:	00100793          	li	a5,1
80002a30:	00000713          	li	a4,0
80002a34:	00028393          	mv	t2,t0
80002a38:	b4f310e3          	bne	t1,a5,80002578 <qlz_compress+0x190>
80002a3c:	00542423          	sw	t0,8(s0)
80002a40:	00200793          	li	a5,2
80002a44:	00f58223          	sb	a5,4(a1)
80002a48:	0002c783          	lbu	a5,0(t0)
80002a4c:	00148493          	addi	s1,s1,1
80002a50:	00128293          	addi	t0,t0,1
80002a54:	fef48fa3          	sb	a5,-1(s1)
80002a58:	f2dff06f          	j	80002984 <qlz_compress+0x59c>
80002a5c:	0077e7b3          	or	a5,a5,t2
80002a60:	04f12423          	sw	a5,72(sp)
80002a64:	01812703          	lw	a4,24(sp)
80002a68:	00812783          	lw	a5,8(sp)
80002a6c:	0007c683          	lbu	a3,0(a5)
80002a70:	00178793          	addi	a5,a5,1
80002a74:	00170713          	addi	a4,a4,1
80002a78:	fed70fa3          	sb	a3,-1(a4)
80002a7c:	04c10693          	addi	a3,sp,76
80002a80:	fef696e3          	bne	a3,a5,80002a6c <qlz_compress+0x684>
80002a84:	00b12c23          	sw	a1,24(sp)
80002a88:	00012023          	sw	zero,0(sp)
80002a8c:	00458593          	addi	a1,a1,4
80002a90:	200006b7          	lui	a3,0x20000
80002a94:	400004b7          	lui	s1,0x40000
80002a98:	ccdff06f          	j	80002764 <qlz_compress+0x37c>
80002a9c:	05412083          	lw	ra,84(sp)
80002aa0:	00000593          	li	a1,0
80002aa4:	00058513          	mv	a0,a1
80002aa8:	05810113          	addi	sp,sp,88
80002aac:	00008067          	ret
80002ab0:	00b700a3          	sb	a1,1(a4)
80002ab4:	00670123          	sb	t1,2(a4)
80002ab8:	e01ff06f          	j	800028b8 <qlz_compress+0x4d0>
80002abc:	00464583          	lbu	a1,4(a2)
80002ac0:	0042c703          	lbu	a4,4(t0)
80002ac4:	12e59463          	bne	a1,a4,80002bec <qlz_compress+0x804>
80002ac8:	02012783          	lw	a5,32(sp)
80002acc:	00400713          	li	a4,4
80002ad0:	0057b593          	sltiu	a1,a5,5
80002ad4:	10059c63          	bnez	a1,80002bec <qlz_compress+0x804>
80002ad8:	02012403          	lw	s0,32(sp)
80002adc:	0080006f          	j	80002ae4 <qlz_compress+0x6fc>
80002ae0:	00877e63          	bgeu	a4,s0,80002afc <qlz_compress+0x714>
80002ae4:	00170713          	addi	a4,a4,1
80002ae8:	00e607b3          	add	a5,a2,a4
80002aec:	00e283b3          	add	t2,t0,a4
80002af0:	0007c583          	lbu	a1,0(a5)
80002af4:	0003c783          	lbu	a5,0(t2)
80002af8:	fef584e3          	beq	a1,a5,80002ae0 <qlz_compress+0x6f8>
80002afc:	00100593          	li	a1,1
80002b00:	a6b31ce3          	bne	t1,a1,80002578 <qlz_compress+0x190>
80002b04:	00c12783          	lw	a5,12(sp)
80002b08:	00012683          	lw	a3,0(sp)
80002b0c:	00012e23          	sw	zero,28(sp)
80002b10:	00d78633          	add	a2,a5,a3
80002b14:	01012783          	lw	a5,16(sp)
80002b18:	000086b7          	lui	a3,0x8
80002b1c:	00562423          	sw	t0,8(a2)
80002b20:	00f686b3          	add	a3,a3,a5
80002b24:	00200613          	li	a2,2
80002b28:	00c68223          	sb	a2,4(a3) # 8004 <_entry_offset+0x8004>
80002b2c:	b89ff06f          	j	800026b4 <qlz_compress+0x2cc>
80002b30:	02c12783          	lw	a5,44(sp)
80002b34:	03c12503          	lw	a0,60(sp)
80002b38:	04012703          	lw	a4,64(sp)
80002b3c:	04412303          	lw	t1,68(sp)
80002b40:	00c12403          	lw	s0,12(sp)
80002b44:	0a078e63          	beqz	a5,80002c00 <qlz_compress+0x818>
80002b48:	02c12783          	lw	a5,44(sp)
80002b4c:	006786b3          	add	a3,a5,t1
80002b50:	03412783          	lw	a5,52(sp)
80002b54:	00d7f663          	bgeu	a5,a3,80002b60 <qlz_compress+0x778>
80002b58:	02c12603          	lw	a2,44(sp)
80002b5c:	06f66863          	bltu	a2,a5,80002bcc <qlz_compress+0x7e4>
80002b60:	03412603          	lw	a2,52(sp)
80002b64:	02c12783          	lw	a5,44(sp)
80002b68:	0007c583          	lbu	a1,0(a5)
80002b6c:	00178793          	addi	a5,a5,1
80002b70:	00160613          	addi	a2,a2,1
80002b74:	feb60fa3          	sb	a1,-1(a2)
80002b78:	fef698e3          	bne	a3,a5,80002b68 <qlz_compress+0x780>
80002b7c:	006505b3          	add	a1,a0,t1
80002b80:	00000793          	li	a5,0
80002b84:	cd5ff06f          	j	80002858 <qlz_compress+0x470>
80002b88:	00300693          	li	a3,3
80002b8c:	ac5ff06f          	j	80002650 <qlz_compress+0x268>
80002b90:	04810793          	addi	a5,sp,72
80002b94:	0014f613          	andi	a2,s1,1
80002b98:	0014d693          	srli	a3,s1,0x1
80002b9c:	00f12423          	sw	a5,8(sp)
80002ba0:	c55ff06f          	j	800027f4 <qlz_compress+0x40c>
80002ba4:	00a707b3          	add	a5,a4,a0
80002ba8:	00f12c23          	sw	a5,24(sp)
80002bac:	02c12283          	lw	t0,44(sp)
80002bb0:	02812783          	lw	a5,40(sp)
80002bb4:	800004b7          	lui	s1,0x80000
80002bb8:	b657f6e3          	bgeu	a5,t0,80002724 <qlz_compress+0x33c>
80002bbc:	04810793          	addi	a5,sp,72
80002bc0:	00900593          	li	a1,9
80002bc4:	00f12423          	sw	a5,8(sp)
80002bc8:	c49ff06f          	j	80002810 <qlz_compress+0x428>
80002bcc:	006787b3          	add	a5,a5,t1
80002bd0:	00060593          	mv	a1,a2
80002bd4:	fff6c603          	lbu	a2,-1(a3)
80002bd8:	fff68693          	addi	a3,a3,-1
80002bdc:	fff78793          	addi	a5,a5,-1
80002be0:	00c78023          	sb	a2,0(a5)
80002be4:	fed598e3          	bne	a1,a3,80002bd4 <qlz_compress+0x7ec>
80002be8:	f95ff06f          	j	80002b7c <qlz_compress+0x794>
80002bec:	00400713          	li	a4,4
80002bf0:	00100593          	li	a1,1
80002bf4:	00e283b3          	add	t2,t0,a4
80002bf8:	98b310e3          	bne	t1,a1,80002578 <qlz_compress+0x190>
80002bfc:	dadff06f          	j	800029a8 <qlz_compress+0x5c0>
80002c00:	fc0ff0ef          	jal	800023c0 <bench_memcpy.part.0>

80002c04 <bench_lzip_prepare>:
80002c04:	00005797          	auipc	a5,0x5
80002c08:	f687a783          	lw	a5,-152(a5) # 80007b6c <setting>
80002c0c:	ff010113          	addi	sp,sp,-16
80002c10:	00112623          	sw	ra,12(sp)
80002c14:	0007a783          	lw	a5,0(a5)
80002c18:	00912223          	sw	s1,4(sp)
80002c1c:	00100513          	li	a0,1
80002c20:	00005497          	auipc	s1,0x5
80002c24:	f6448493          	addi	s1,s1,-156 # 80007b84 <SIZE>
80002c28:	00f4a023          	sw	a5,0(s1)
80002c2c:	e70ff0ef          	jal	8000229c <bench_srand>
80002c30:	00009537          	lui	a0,0x9
80002c34:	80450513          	addi	a0,a0,-2044 # 8804 <_entry_offset+0x8804>
80002c38:	dc0ff0ef          	jal	800021f8 <bench_alloc>
80002c3c:	00005797          	auipc	a5,0x5
80002c40:	f4a7a223          	sw	a0,-188(a5) # 80007b80 <state>
80002c44:	0004a503          	lw	a0,0(s1)
80002c48:	db0ff0ef          	jal	800021f8 <bench_alloc>
80002c4c:	0004a783          	lw	a5,0(s1)
80002c50:	00005717          	auipc	a4,0x5
80002c54:	f2c70713          	addi	a4,a4,-212 # 80007b7c <blk>
80002c58:	00a72023          	sw	a0,0(a4)
80002c5c:	19078513          	addi	a0,a5,400
80002c60:	d98ff0ef          	jal	800021f8 <bench_alloc>
80002c64:	0004a783          	lw	a5,0(s1)
80002c68:	00005717          	auipc	a4,0x5
80002c6c:	f0a72823          	sw	a0,-240(a4) # 80007b78 <compress>
80002c70:	04f05263          	blez	a5,80002cb4 <bench_lzip_prepare+0xb0>
80002c74:	00812423          	sw	s0,8(sp)
80002c78:	00000413          	li	s0,0
80002c7c:	e34ff0ef          	jal	800022b0 <bench_rand>
80002c80:	00005797          	auipc	a5,0x5
80002c84:	efc7a783          	lw	a5,-260(a5) # 80007b7c <blk>
80002c88:	01a00593          	li	a1,26
80002c8c:	008787b3          	add	a5,a5,s0
80002c90:	00f12023          	sw	a5,0(sp)
80002c94:	115020ef          	jal	800055a8 <__umodsi3>
80002c98:	00012783          	lw	a5,0(sp)
80002c9c:	0004a703          	lw	a4,0(s1)
80002ca0:	06150513          	addi	a0,a0,97
80002ca4:	00140413          	addi	s0,s0,1
80002ca8:	00a78023          	sb	a0,0(a5)
80002cac:	fce448e3          	blt	s0,a4,80002c7c <bench_lzip_prepare+0x78>
80002cb0:	00812403          	lw	s0,8(sp)
80002cb4:	00c12083          	lw	ra,12(sp)
80002cb8:	00412483          	lw	s1,4(sp)
80002cbc:	01010113          	addi	sp,sp,16
80002cc0:	00008067          	ret

80002cc4 <bench_lzip_run>:
80002cc4:	00005697          	auipc	a3,0x5
80002cc8:	ebc6a683          	lw	a3,-324(a3) # 80007b80 <state>
80002ccc:	00005617          	auipc	a2,0x5
80002cd0:	eb862603          	lw	a2,-328(a2) # 80007b84 <SIZE>
80002cd4:	00005597          	auipc	a1,0x5
80002cd8:	ea45a583          	lw	a1,-348(a1) # 80007b78 <compress>
80002cdc:	00005517          	auipc	a0,0x5
80002ce0:	ea052503          	lw	a0,-352(a0) # 80007b7c <blk>
80002ce4:	ffc10113          	addi	sp,sp,-4
80002ce8:	00112023          	sw	ra,0(sp)
80002cec:	efcff0ef          	jal	800023e8 <qlz_compress>
80002cf0:	00012083          	lw	ra,0(sp)
80002cf4:	00005797          	auipc	a5,0x5
80002cf8:	e8a7a023          	sw	a0,-384(a5) # 80007b74 <len>
80002cfc:	00410113          	addi	sp,sp,4
80002d00:	00008067          	ret

80002d04 <bench_lzip_validate>:
80002d04:	00005517          	auipc	a0,0x5
80002d08:	e7452503          	lw	a0,-396(a0) # 80007b78 <compress>
80002d0c:	00005597          	auipc	a1,0x5
80002d10:	e685a583          	lw	a1,-408(a1) # 80007b74 <len>
80002d14:	ffc10113          	addi	sp,sp,-4
80002d18:	00112023          	sw	ra,0(sp)
80002d1c:	00b505b3          	add	a1,a0,a1
80002d20:	de0ff0ef          	jal	80002300 <checksum>
80002d24:	00005797          	auipc	a5,0x5
80002d28:	e487a783          	lw	a5,-440(a5) # 80007b6c <setting>
80002d2c:	00012083          	lw	ra,0(sp)
80002d30:	00c7a783          	lw	a5,12(a5)
80002d34:	00410113          	addi	sp,sp,4
80002d38:	40a78533          	sub	a0,a5,a0
80002d3c:	00153513          	seqz	a0,a0
80002d40:	00008067          	ret

80002d44 <bench_sieve_prepare>:
80002d44:	00005797          	auipc	a5,0x5
80002d48:	e287a783          	lw	a5,-472(a5) # 80007b6c <setting>
80002d4c:	ffc10113          	addi	sp,sp,-4
80002d50:	00112023          	sw	ra,0(sp)
80002d54:	0007a783          	lw	a5,0(a5)
80002d58:	41f7d513          	srai	a0,a5,0x1f
80002d5c:	00757513          	andi	a0,a0,7
80002d60:	00f50533          	add	a0,a0,a5
80002d64:	40355513          	srai	a0,a0,0x3
80002d68:	08050513          	addi	a0,a0,128
80002d6c:	00005717          	auipc	a4,0x5
80002d70:	e2f72223          	sw	a5,-476(a4) # 80007b90 <N>
80002d74:	c84ff0ef          	jal	800021f8 <bench_alloc>
80002d78:	00005797          	auipc	a5,0x5
80002d7c:	e187a783          	lw	a5,-488(a5) # 80007b90 <N>
80002d80:	00005717          	auipc	a4,0x5
80002d84:	e0a72423          	sw	a0,-504(a4) # 80007b88 <primes>
80002d88:	fe100713          	li	a4,-31
80002d8c:	02e7c663          	blt	a5,a4,80002db8 <bench_sieve_prepare+0x74>
80002d90:	41f7d713          	srai	a4,a5,0x1f
80002d94:	01f77713          	andi	a4,a4,31
80002d98:	00f70733          	add	a4,a4,a5
80002d9c:	40575713          	srai	a4,a4,0x5
80002da0:	00000793          	li	a5,0
80002da4:	fff00693          	li	a3,-1
80002da8:	00d52023          	sw	a3,0(a0)
80002dac:	00178793          	addi	a5,a5,1
80002db0:	00450513          	addi	a0,a0,4
80002db4:	fef75ae3          	bge	a4,a5,80002da8 <bench_sieve_prepare+0x64>
80002db8:	00012083          	lw	ra,0(sp)
80002dbc:	00410113          	addi	sp,sp,4
80002dc0:	00008067          	ret

80002dc4 <bench_sieve_run>:
80002dc4:	fec10113          	addi	sp,sp,-20
80002dc8:	00812623          	sw	s0,12(sp)
80002dcc:	00005417          	auipc	s0,0x5
80002dd0:	dc442403          	lw	s0,-572(s0) # 80007b90 <N>
80002dd4:	00112823          	sw	ra,16(sp)
80002dd8:	14805263          	blez	s0,80002f1c <bench_sieve_run+0x158>
80002ddc:	00912423          	sw	s1,8(sp)
80002de0:	00100713          	li	a4,1
80002de4:	00005497          	auipc	s1,0x5
80002de8:	da44a483          	lw	s1,-604(s1) # 80007b88 <primes>
80002dec:	0080006f          	j	80002df4 <bench_sieve_run+0x30>
80002df0:	02e44c63          	blt	s0,a4,80002e28 <bench_sieve_run+0x64>
80002df4:	40575793          	srai	a5,a4,0x5
80002df8:	00279793          	slli	a5,a5,0x2
80002dfc:	00f487b3          	add	a5,s1,a5
80002e00:	0007a783          	lw	a5,0(a5)
80002e04:	00e7d7b3          	srl	a5,a5,a4
80002e08:	0017f793          	andi	a5,a5,1
80002e0c:	00170713          	addi	a4,a4,1
80002e10:	fe0790e3          	bnez	a5,80002df0 <bench_sieve_run+0x2c>
80002e14:	00812483          	lw	s1,8(sp)
80002e18:	01012083          	lw	ra,16(sp)
80002e1c:	00c12403          	lw	s0,12(sp)
80002e20:	01410113          	addi	sp,sp,20
80002e24:	00008067          	ret
80002e28:	00300793          	li	a5,3
80002e2c:	00400613          	li	a2,4
80002e30:	00200593          	li	a1,2
80002e34:	00100313          	li	t1,1
80002e38:	0287c863          	blt	a5,s0,80002e68 <bench_sieve_run+0xa4>
80002e3c:	0ec0006f          	j	80002f28 <bench_sieve_run+0x164>
80002e40:	00158593          	addi	a1,a1,1
80002e44:	00260613          	addi	a2,a2,2
80002e48:	00058513          	mv	a0,a1
80002e4c:	00b12223          	sw	a1,4(sp)
80002e50:	00c12023          	sw	a2,0(sp)
80002e54:	7b8020ef          	jal	8000560c <__mulsi3>
80002e58:	00012603          	lw	a2,0(sp)
80002e5c:	00412583          	lw	a1,4(sp)
80002e60:	00100313          	li	t1,1
80002e64:	04a44a63          	blt	s0,a0,80002eb8 <bench_sieve_run+0xf4>
80002e68:	4055d793          	srai	a5,a1,0x5
80002e6c:	00279793          	slli	a5,a5,0x2
80002e70:	00f487b3          	add	a5,s1,a5
80002e74:	0007a783          	lw	a5,0(a5)
80002e78:	00b7d7b3          	srl	a5,a5,a1
80002e7c:	0017f793          	andi	a5,a5,1
80002e80:	fc0780e3          	beqz	a5,80002e40 <bench_sieve_run+0x7c>
80002e84:	00060713          	mv	a4,a2
80002e88:	fac44ce3          	blt	s0,a2,80002e40 <bench_sieve_run+0x7c>
80002e8c:	40575793          	srai	a5,a4,0x5
80002e90:	00279793          	slli	a5,a5,0x2
80002e94:	00f487b3          	add	a5,s1,a5
80002e98:	0007a683          	lw	a3,0(a5)
80002e9c:	00e31533          	sll	a0,t1,a4
80002ea0:	fff54513          	not	a0,a0
80002ea4:	00a6f6b3          	and	a3,a3,a0
80002ea8:	00d7a023          	sw	a3,0(a5)
80002eac:	00b70733          	add	a4,a4,a1
80002eb0:	fce45ee3          	bge	s0,a4,80002e8c <bench_sieve_run+0xc8>
80002eb4:	f8dff06f          	j	80002e40 <bench_sieve_run+0x7c>
80002eb8:	00005797          	auipc	a5,0x5
80002ebc:	cc07aa23          	sw	zero,-812(a5) # 80007b8c <ans>
80002ec0:	00140413          	addi	s0,s0,1
80002ec4:	00000613          	li	a2,0
80002ec8:	00000693          	li	a3,0
80002ecc:	00200713          	li	a4,2
80002ed0:	40575793          	srai	a5,a4,0x5
80002ed4:	00279793          	slli	a5,a5,0x2
80002ed8:	00f487b3          	add	a5,s1,a5
80002edc:	0007a783          	lw	a5,0(a5)
80002ee0:	00e7d7b3          	srl	a5,a5,a4
80002ee4:	0017f793          	andi	a5,a5,1
80002ee8:	00170713          	addi	a4,a4,1
80002eec:	00078663          	beqz	a5,80002ef8 <bench_sieve_run+0x134>
80002ef0:	00168693          	addi	a3,a3,1
80002ef4:	00100613          	li	a2,1
80002ef8:	fce41ce3          	bne	s0,a4,80002ed0 <bench_sieve_run+0x10c>
80002efc:	f0060ce3          	beqz	a2,80002e14 <bench_sieve_run+0x50>
80002f00:	01012083          	lw	ra,16(sp)
80002f04:	00c12403          	lw	s0,12(sp)
80002f08:	00005797          	auipc	a5,0x5
80002f0c:	c8d7a223          	sw	a3,-892(a5) # 80007b8c <ans>
80002f10:	00812483          	lw	s1,8(sp)
80002f14:	01410113          	addi	sp,sp,20
80002f18:	00008067          	ret
80002f1c:	00005797          	auipc	a5,0x5
80002f20:	c607a823          	sw	zero,-912(a5) # 80007b8c <ans>
80002f24:	ef5ff06f          	j	80002e18 <bench_sieve_run+0x54>
80002f28:	00005797          	auipc	a5,0x5
80002f2c:	c607a223          	sw	zero,-924(a5) # 80007b8c <ans>
80002f30:	ee6402e3          	beq	s0,t1,80002e14 <bench_sieve_run+0x50>
80002f34:	f8dff06f          	j	80002ec0 <bench_sieve_run+0xfc>

80002f38 <bench_sieve_validate>:
80002f38:	00005717          	auipc	a4,0x5
80002f3c:	c3472703          	lw	a4,-972(a4) # 80007b6c <setting>
80002f40:	00005797          	auipc	a5,0x5
80002f44:	c4c7a783          	lw	a5,-948(a5) # 80007b8c <ans>
80002f48:	00c72503          	lw	a0,12(a4)
80002f4c:	40f50533          	sub	a0,a0,a5
80002f50:	00153513          	seqz	a0,a0
80002f54:	00008067          	ret

80002f58 <bench_bf_prepare>:
80002f58:	00005797          	auipc	a5,0x5
80002f5c:	c147a783          	lw	a5,-1004(a5) # 80007b6c <setting>
80002f60:	ff010113          	addi	sp,sp,-16
80002f64:	00112623          	sw	ra,12(sp)
80002f68:	0007a783          	lw	a5,0(a5)
80002f6c:	00812423          	sw	s0,8(sp)
80002f70:	00004537          	lui	a0,0x4
80002f74:	00005417          	auipc	s0,0x5
80002f78:	c4040413          	addi	s0,s0,-960 # 80007bb4 <ARR_SIZE>
80002f7c:	00f42023          	sw	a5,0(s0)
80002f80:	00005717          	auipc	a4,0x5
80002f84:	c2072423          	sw	zero,-984(a4) # 80007ba8 <SP>
80002f88:	a70ff0ef          	jal	800021f8 <bench_alloc>
80002f8c:	00005797          	auipc	a5,0x5
80002f90:	c2a7a223          	sw	a0,-988(a5) # 80007bb0 <PROGRAM>
80002f94:	40000513          	li	a0,1024
80002f98:	a60ff0ef          	jal	800021f8 <bench_alloc>
80002f9c:	00005797          	auipc	a5,0x5
80002fa0:	c0a7a823          	sw	a0,-1008(a5) # 80007bac <STACK>
80002fa4:	00002537          	lui	a0,0x2
80002fa8:	a50ff0ef          	jal	800021f8 <bench_alloc>
80002fac:	00005797          	auipc	a5,0x5
80002fb0:	bea7a823          	sw	a0,-1040(a5) # 80007b9c <data>
80002fb4:	00042503          	lw	a0,0(s0)
80002fb8:	00004797          	auipc	a5,0x4
80002fbc:	16c78793          	addi	a5,a5,364 # 80007124 <k+0x548>
80002fc0:	00005717          	auipc	a4,0x5
80002fc4:	bef72223          	sw	a5,-1052(a4) # 80007ba4 <code>
80002fc8:	00150513          	addi	a0,a0,1 # 2001 <_entry_offset+0x2001>
80002fcc:	a2cff0ef          	jal	800021f8 <bench_alloc>
80002fd0:	00050793          	mv	a5,a0
80002fd4:	00005717          	auipc	a4,0x5
80002fd8:	bcc70713          	addi	a4,a4,-1076 # 80007ba0 <input>
80002fdc:	00001537          	lui	a0,0x1
80002fe0:	00f72023          	sw	a5,0(a4)
80002fe4:	a14ff0ef          	jal	800021f8 <bench_alloc>
80002fe8:	00005717          	auipc	a4,0x5
80002fec:	baa72823          	sw	a0,-1104(a4) # 80007b98 <output>
80002ff0:	00100513          	li	a0,1
80002ff4:	00005797          	auipc	a5,0x5
80002ff8:	ba07a023          	sw	zero,-1120(a5) # 80007b94 <noutput>
80002ffc:	aa0ff0ef          	jal	8000229c <bench_srand>
80003000:	00042783          	lw	a5,0(s0)
80003004:	04f05863          	blez	a5,80003054 <bench_bf_prepare+0xfc>
80003008:	00912223          	sw	s1,4(sp)
8000300c:	00000493          	li	s1,0
80003010:	aa0ff0ef          	jal	800022b0 <bench_rand>
80003014:	00005717          	auipc	a4,0x5
80003018:	b8c72703          	lw	a4,-1140(a4) # 80007ba0 <input>
8000301c:	03e00593          	li	a1,62
80003020:	00970733          	add	a4,a4,s1
80003024:	00e12023          	sw	a4,0(sp)
80003028:	580020ef          	jal	800055a8 <__umodsi3>
8000302c:	00004797          	auipc	a5,0x4
80003030:	1ac78793          	addi	a5,a5,428 # 800071d8 <k+0x5fc>
80003034:	00a78533          	add	a0,a5,a0
80003038:	00054583          	lbu	a1,0(a0) # 1000 <_entry_offset+0x1000>
8000303c:	00012703          	lw	a4,0(sp)
80003040:	00042683          	lw	a3,0(s0)
80003044:	00148493          	addi	s1,s1,1
80003048:	00b70023          	sb	a1,0(a4)
8000304c:	fcd4c2e3          	blt	s1,a3,80003010 <bench_bf_prepare+0xb8>
80003050:	00412483          	lw	s1,4(sp)
80003054:	00c12083          	lw	ra,12(sp)
80003058:	00812403          	lw	s0,8(sp)
8000305c:	01010113          	addi	sp,sp,16
80003060:	00008067          	ret

80003064 <bench_bf_run>:
80003064:	00005797          	auipc	a5,0x5
80003068:	b447a783          	lw	a5,-1212(a5) # 80007ba8 <SP>
8000306c:	00005697          	auipc	a3,0x5
80003070:	b386a683          	lw	a3,-1224(a3) # 80007ba4 <code>
80003074:	ff010113          	addi	sp,sp,-16
80003078:	00812623          	sw	s0,12(sp)
8000307c:	00f12223          	sw	a5,4(sp)
80003080:	0006c783          	lbu	a5,0(a3)
80003084:	00005617          	auipc	a2,0x5
80003088:	b2c62603          	lw	a2,-1236(a2) # 80007bb0 <PROGRAM>
8000308c:	3e078063          	beqz	a5,8000346c <bench_bf_run+0x408>
80003090:	00912423          	sw	s1,8(sp)
80003094:	00005497          	auipc	s1,0x5
80003098:	b184a483          	lw	s1,-1256(s1) # 80007bac <STACK>
8000309c:	00412283          	lw	t0,4(sp)
800030a0:	00168693          	addi	a3,a3,1
800030a4:	00000313          	li	t1,0
800030a8:	00000413          	li	s0,0
800030ac:	00000713          	li	a4,0
800030b0:	03200513          	li	a0,50
800030b4:	00004597          	auipc	a1,0x4
800030b8:	1dc58593          	addi	a1,a1,476 # 80007290 <k+0x6b4>
800030bc:	00912023          	sw	s1,0(sp)
800030c0:	fd578793          	addi	a5,a5,-43
800030c4:	0ff7f793          	zext.b	a5,a5
800030c8:	00f56c63          	bltu	a0,a5,800030e0 <bench_bf_run+0x7c>
800030cc:	00279793          	slli	a5,a5,0x2
800030d0:	00b787b3          	add	a5,a5,a1
800030d4:	0007a783          	lw	a5,0(a5)
800030d8:	00b787b3          	add	a5,a5,a1
800030dc:	00078067          	jr	a5
800030e0:	0006c783          	lbu	a5,0(a3)
800030e4:	00068393          	mv	t2,a3
800030e8:	2e078c63          	beqz	a5,800033e0 <bench_bf_run+0x37c>
800030ec:	00168693          	addi	a3,a3,1
800030f0:	00100313          	li	t1,1
800030f4:	fcdff06f          	j	800030c0 <bench_bf_run+0x5c>
800030f8:	34028a63          	beqz	t0,8000344c <bench_bf_run+0x3e8>
800030fc:	00012303          	lw	t1,0(sp)
80003100:	fff28293          	addi	t0,t0,-1
80003104:	00129793          	slli	a5,t0,0x1
80003108:	00f307b3          	add	a5,t1,a5
8000310c:	0007d383          	lhu	t2,0(a5)
80003110:	00271793          	slli	a5,a4,0x2
80003114:	00f607b3          	add	a5,a2,a5
80003118:	00779123          	sh	t2,2(a5)
8000311c:	00239313          	slli	t1,t2,0x2
80003120:	00800393          	li	t2,8
80003124:	00779023          	sh	t2,0(a5)
80003128:	00660333          	add	t1,a2,t1
8000312c:	00170793          	addi	a5,a4,1
80003130:	00e31123          	sh	a4,2(t1)
80003134:	01079713          	slli	a4,a5,0x10
80003138:	01075713          	srli	a4,a4,0x10
8000313c:	00100413          	li	s0,1
80003140:	0006c783          	lbu	a5,0(a3)
80003144:	00068393          	mv	t2,a3
80003148:	28078c63          	beqz	a5,800033e0 <bench_bf_run+0x37c>
8000314c:	00001337          	lui	t1,0x1
80003150:	f8671ee3          	bne	a4,t1,800030ec <bench_bf_run+0x88>
80003154:	00005797          	auipc	a5,0x5
80003158:	a4d7a823          	sw	a3,-1456(a5) # 80007ba4 <code>
8000315c:	2a040e63          	beqz	s0,80003418 <bench_bf_run+0x3b4>
80003160:	00812483          	lw	s1,8(sp)
80003164:	00005797          	auipc	a5,0x5
80003168:	a457a223          	sw	t0,-1468(a5) # 80007ba8 <SP>
8000316c:	00065783          	lhu	a5,0(a2)
80003170:	00060713          	mv	a4,a2
80003174:	00000693          	li	a3,0
80003178:	00000513          	li	a0,0
8000317c:	00800313          	li	t1,8
80003180:	00004597          	auipc	a1,0x4
80003184:	1dc58593          	addi	a1,a1,476 # 8000735c <k+0x780>
80003188:	000012b7          	lui	t0,0x1
8000318c:	14078663          	beqz	a5,800032d8 <bench_bf_run+0x274>
80003190:	14f36463          	bltu	t1,a5,800032d8 <bench_bf_run+0x274>
80003194:	00279793          	slli	a5,a5,0x2
80003198:	00b787b3          	add	a5,a5,a1
8000319c:	0007a783          	lw	a5,0(a5)
800031a0:	00b787b3          	add	a5,a5,a1
800031a4:	00078067          	jr	a5
800031a8:	00271793          	slli	a5,a4,0x2
800031ac:	00f607b3          	add	a5,a2,a5
800031b0:	00700493          	li	s1,7
800031b4:	00979023          	sh	s1,0(a5)
800031b8:	20000793          	li	a5,512
800031bc:	26f28663          	beq	t0,a5,80003428 <bench_bf_run+0x3c4>
800031c0:	00012303          	lw	t1,0(sp)
800031c4:	00129793          	slli	a5,t0,0x1
800031c8:	00100413          	li	s0,1
800031cc:	00f307b3          	add	a5,t1,a5
800031d0:	00e79023          	sh	a4,0(a5)
800031d4:	00170713          	addi	a4,a4,1
800031d8:	01071713          	slli	a4,a4,0x10
800031dc:	01075713          	srli	a4,a4,0x10
800031e0:	00128293          	addi	t0,t0,1 # 1001 <_entry_offset+0x1001>
800031e4:	f5dff06f          	j	80003140 <bench_bf_run+0xdc>
800031e8:	00271793          	slli	a5,a4,0x2
800031ec:	00170713          	addi	a4,a4,1
800031f0:	00f607b3          	add	a5,a2,a5
800031f4:	00100313          	li	t1,1
800031f8:	01071713          	slli	a4,a4,0x10
800031fc:	00679023          	sh	t1,0(a5)
80003200:	01075713          	srli	a4,a4,0x10
80003204:	f3dff06f          	j	80003140 <bench_bf_run+0xdc>
80003208:	00271793          	slli	a5,a4,0x2
8000320c:	00170713          	addi	a4,a4,1
80003210:	00f607b3          	add	a5,a2,a5
80003214:	00200313          	li	t1,2
80003218:	01071713          	slli	a4,a4,0x10
8000321c:	01075713          	srli	a4,a4,0x10
80003220:	00679023          	sh	t1,0(a5)
80003224:	f1dff06f          	j	80003140 <bench_bf_run+0xdc>
80003228:	00271793          	slli	a5,a4,0x2
8000322c:	00170713          	addi	a4,a4,1
80003230:	00f607b3          	add	a5,a2,a5
80003234:	00500313          	li	t1,5
80003238:	01071713          	slli	a4,a4,0x10
8000323c:	01075713          	srli	a4,a4,0x10
80003240:	00679023          	sh	t1,0(a5)
80003244:	efdff06f          	j	80003140 <bench_bf_run+0xdc>
80003248:	00271793          	slli	a5,a4,0x2
8000324c:	00170713          	addi	a4,a4,1
80003250:	00f607b3          	add	a5,a2,a5
80003254:	00400313          	li	t1,4
80003258:	01071713          	slli	a4,a4,0x10
8000325c:	01075713          	srli	a4,a4,0x10
80003260:	00679023          	sh	t1,0(a5)
80003264:	eddff06f          	j	80003140 <bench_bf_run+0xdc>
80003268:	00271793          	slli	a5,a4,0x2
8000326c:	00170713          	addi	a4,a4,1
80003270:	00f607b3          	add	a5,a2,a5
80003274:	00600313          	li	t1,6
80003278:	01071713          	slli	a4,a4,0x10
8000327c:	01075713          	srli	a4,a4,0x10
80003280:	00679023          	sh	t1,0(a5)
80003284:	ebdff06f          	j	80003140 <bench_bf_run+0xdc>
80003288:	00271793          	slli	a5,a4,0x2
8000328c:	00170713          	addi	a4,a4,1
80003290:	00f607b3          	add	a5,a2,a5
80003294:	00300313          	li	t1,3
80003298:	01071713          	slli	a4,a4,0x10
8000329c:	01075713          	srli	a4,a4,0x10
800032a0:	00679023          	sh	t1,0(a5)
800032a4:	e9dff06f          	j	80003140 <bench_bf_run+0xdc>
800032a8:	00005797          	auipc	a5,0x5
800032ac:	8f47a783          	lw	a5,-1804(a5) # 80007b9c <data>
800032b0:	00151393          	slli	t2,a0,0x1
800032b4:	007787b3          	add	a5,a5,t2
800032b8:	0007d783          	lhu	a5,0(a5)
800032bc:	06078a63          	beqz	a5,80003330 <bench_bf_run+0x2cc>
800032c0:	00275683          	lhu	a3,2(a4)
800032c4:	00168693          	addi	a3,a3,1
800032c8:	00269713          	slli	a4,a3,0x2
800032cc:	00e60733          	add	a4,a2,a4
800032d0:	00075783          	lhu	a5,0(a4)
800032d4:	06079863          	bnez	a5,80003344 <bench_bf_run+0x2e0>
800032d8:	00c12403          	lw	s0,12(sp)
800032dc:	01010113          	addi	sp,sp,16
800032e0:	00008067          	ret
800032e4:	00005797          	auipc	a5,0x5
800032e8:	8b87a783          	lw	a5,-1864(a5) # 80007b9c <data>
800032ec:	00151393          	slli	t2,a0,0x1
800032f0:	007787b3          	add	a5,a5,t2
800032f4:	0007d783          	lhu	a5,0(a5)
800032f8:	02079c63          	bnez	a5,80003330 <bench_bf_run+0x2cc>
800032fc:	00275683          	lhu	a3,2(a4)
80003300:	fc5ff06f          	j	800032c4 <bench_bf_run+0x260>
80003304:	00005797          	auipc	a5,0x5
80003308:	89c7a783          	lw	a5,-1892(a5) # 80007ba0 <input>
8000330c:	00005717          	auipc	a4,0x5
80003310:	89072703          	lw	a4,-1904(a4) # 80007b9c <data>
80003314:	00151413          	slli	s0,a0,0x1
80003318:	0007c383          	lbu	t2,0(a5)
8000331c:	00870733          	add	a4,a4,s0
80003320:	00178793          	addi	a5,a5,1
80003324:	00005417          	auipc	s0,0x5
80003328:	86f42e23          	sw	a5,-1924(s0) # 80007ba0 <input>
8000332c:	00771023          	sh	t2,0(a4)
80003330:	00168693          	addi	a3,a3,1
80003334:	00269713          	slli	a4,a3,0x2
80003338:	00e60733          	add	a4,a2,a4
8000333c:	00075783          	lhu	a5,0(a4)
80003340:	f8078ce3          	beqz	a5,800032d8 <bench_bf_run+0x274>
80003344:	e45566e3          	bltu	a0,t0,80003190 <bench_bf_run+0x12c>
80003348:	00c12403          	lw	s0,12(sp)
8000334c:	01010113          	addi	sp,sp,16
80003350:	00008067          	ret
80003354:	00005797          	auipc	a5,0x5
80003358:	8487a783          	lw	a5,-1976(a5) # 80007b9c <data>
8000335c:	00151713          	slli	a4,a0,0x1
80003360:	00e787b3          	add	a5,a5,a4
80003364:	0007d703          	lhu	a4,0(a5)
80003368:	fff70713          	addi	a4,a4,-1
8000336c:	00e79023          	sh	a4,0(a5)
80003370:	fc1ff06f          	j	80003330 <bench_bf_run+0x2cc>
80003374:	00005797          	auipc	a5,0x5
80003378:	8287a783          	lw	a5,-2008(a5) # 80007b9c <data>
8000337c:	00151713          	slli	a4,a0,0x1
80003380:	00e787b3          	add	a5,a5,a4
80003384:	0007d703          	lhu	a4,0(a5)
80003388:	00170713          	addi	a4,a4,1
8000338c:	00e79023          	sh	a4,0(a5)
80003390:	fa1ff06f          	j	80003330 <bench_bf_run+0x2cc>
80003394:	00005397          	auipc	t2,0x5
80003398:	8083a383          	lw	t2,-2040(t2) # 80007b9c <data>
8000339c:	00151793          	slli	a5,a0,0x1
800033a0:	00004717          	auipc	a4,0x4
800033a4:	7f872703          	lw	a4,2040(a4) # 80007b98 <output>
800033a8:	00f383b3          	add	t2,t2,a5
800033ac:	00004797          	auipc	a5,0x4
800033b0:	7e87a783          	lw	a5,2024(a5) # 80007b94 <noutput>
800033b4:	0003d383          	lhu	t2,0(t2)
800033b8:	00f70733          	add	a4,a4,a5
800033bc:	00178793          	addi	a5,a5,1
800033c0:	00770023          	sb	t2,0(a4)
800033c4:	00004717          	auipc	a4,0x4
800033c8:	7cf72823          	sw	a5,2000(a4) # 80007b94 <noutput>
800033cc:	f65ff06f          	j	80003330 <bench_bf_run+0x2cc>
800033d0:	fff50513          	addi	a0,a0,-1
800033d4:	f5dff06f          	j	80003330 <bench_bf_run+0x2cc>
800033d8:	00150513          	addi	a0,a0,1
800033dc:	f55ff06f          	j	80003330 <bench_bf_run+0x2cc>
800033e0:	00004797          	auipc	a5,0x4
800033e4:	7cd7a223          	sw	a3,1988(a5) # 80007ba4 <code>
800033e8:	02040c63          	beqz	s0,80003420 <bench_bf_run+0x3bc>
800033ec:	00004797          	auipc	a5,0x4
800033f0:	7a57ae23          	sw	t0,1980(a5) # 80007ba8 <SP>
800033f4:	80070793          	addi	a5,a4,-2048
800033f8:	80078793          	addi	a5,a5,-2048
800033fc:	00078e63          	beqz	a5,80003418 <bench_bf_run+0x3b4>
80003400:	00812483          	lw	s1,8(sp)
80003404:	d60294e3          	bnez	t0,8000316c <bench_bf_run+0x108>
80003408:	00271713          	slli	a4,a4,0x2
8000340c:	00e60733          	add	a4,a2,a4
80003410:	00071023          	sh	zero,0(a4)
80003414:	d59ff06f          	j	8000316c <bench_bf_run+0x108>
80003418:	00812483          	lw	s1,8(sp)
8000341c:	d51ff06f          	j	8000316c <bench_bf_run+0x108>
80003420:	00412283          	lw	t0,4(sp)
80003424:	fd1ff06f          	j	800033f4 <bench_bf_run+0x390>
80003428:	00030663          	beqz	t1,80003434 <bench_bf_run+0x3d0>
8000342c:	00004797          	auipc	a5,0x4
80003430:	7677ac23          	sw	t2,1912(a5) # 80007ba4 <code>
80003434:	fe0402e3          	beqz	s0,80003418 <bench_bf_run+0x3b4>
80003438:	20000793          	li	a5,512
8000343c:	00812483          	lw	s1,8(sp)
80003440:	00004717          	auipc	a4,0x4
80003444:	76f72423          	sw	a5,1896(a4) # 80007ba8 <SP>
80003448:	d25ff06f          	j	8000316c <bench_bf_run+0x108>
8000344c:	00030663          	beqz	t1,80003458 <bench_bf_run+0x3f4>
80003450:	00004797          	auipc	a5,0x4
80003454:	7477aa23          	sw	t2,1876(a5) # 80007ba4 <code>
80003458:	fc0400e3          	beqz	s0,80003418 <bench_bf_run+0x3b4>
8000345c:	00812483          	lw	s1,8(sp)
80003460:	00004797          	auipc	a5,0x4
80003464:	7407a423          	sw	zero,1864(a5) # 80007ba8 <SP>
80003468:	d05ff06f          	j	8000316c <bench_bf_run+0x108>
8000346c:	00412783          	lw	a5,4(sp)
80003470:	ce079ee3          	bnez	a5,8000316c <bench_bf_run+0x108>
80003474:	00000713          	li	a4,0
80003478:	f91ff06f          	j	80003408 <bench_bf_run+0x3a4>

8000347c <bench_bf_validate>:
8000347c:	ff810113          	addi	sp,sp,-8
80003480:	00812023          	sw	s0,0(sp)
80003484:	00004417          	auipc	s0,0x4
80003488:	71040413          	addi	s0,s0,1808 # 80007b94 <noutput>
8000348c:	00042583          	lw	a1,0(s0)
80003490:	00004517          	auipc	a0,0x4
80003494:	70852503          	lw	a0,1800(a0) # 80007b98 <output>
80003498:	00112223          	sw	ra,4(sp)
8000349c:	00b505b3          	add	a1,a0,a1
800034a0:	e61fe0ef          	jal	80002300 <checksum>
800034a4:	00042683          	lw	a3,0(s0)
800034a8:	00004717          	auipc	a4,0x4
800034ac:	70c72703          	lw	a4,1804(a4) # 80007bb4 <ARR_SIZE>
800034b0:	00000793          	li	a5,0
800034b4:	00e69c63          	bne	a3,a4,800034cc <bench_bf_validate+0x50>
800034b8:	00004797          	auipc	a5,0x4
800034bc:	6b47a783          	lw	a5,1716(a5) # 80007b6c <setting>
800034c0:	00c7a783          	lw	a5,12(a5)
800034c4:	40a787b3          	sub	a5,a5,a0
800034c8:	0017b793          	seqz	a5,a5
800034cc:	00412083          	lw	ra,4(sp)
800034d0:	00012403          	lw	s0,0(sp)
800034d4:	00078513          	mv	a0,a5
800034d8:	00810113          	addi	sp,sp,8
800034dc:	00008067          	ret

800034e0 <_ZL9radixPassPiS_S_ii>:
800034e0:	fe410113          	addi	sp,sp,-28
800034e4:	00170293          	addi	t0,a4,1
800034e8:	00812a23          	sw	s0,20(sp)
800034ec:	00229413          	slli	s0,t0,0x2
800034f0:	00a12623          	sw	a0,12(sp)
800034f4:	00040513          	mv	a0,s0
800034f8:	00e12823          	sw	a4,16(sp)
800034fc:	00b12423          	sw	a1,8(sp)
80003500:	00c12223          	sw	a2,4(sp)
80003504:	00d12023          	sw	a3,0(sp)
80003508:	00112c23          	sw	ra,24(sp)
8000350c:	cedfe0ef          	jal	800021f8 <bench_alloc>
80003510:	01012703          	lw	a4,16(sp)
80003514:	00012683          	lw	a3,0(sp)
80003518:	00412603          	lw	a2,4(sp)
8000351c:	00812583          	lw	a1,8(sp)
80003520:	00c12303          	lw	t1,12(sp)
80003524:	0c074863          	bltz	a4,800035f4 <_ZL9radixPassPiS_S_ii+0x114>
80003528:	008502b3          	add	t0,a0,s0
8000352c:	00050793          	mv	a5,a0
80003530:	0007a023          	sw	zero,0(a5)
80003534:	00478793          	addi	a5,a5,4
80003538:	fef29ce3          	bne	t0,a5,80003530 <_ZL9radixPassPiS_S_ii+0x50>
8000353c:	04d05063          	blez	a3,8000357c <_ZL9radixPassPiS_S_ii+0x9c>
80003540:	00030393          	mv	t2,t1
80003544:	00000293          	li	t0,0
80003548:	0003a783          	lw	a5,0(t2)
8000354c:	00128293          	addi	t0,t0,1
80003550:	00438393          	addi	t2,t2,4
80003554:	00279793          	slli	a5,a5,0x2
80003558:	00f607b3          	add	a5,a2,a5
8000355c:	0007a783          	lw	a5,0(a5)
80003560:	00279793          	slli	a5,a5,0x2
80003564:	00f507b3          	add	a5,a0,a5
80003568:	0007a403          	lw	s0,0(a5)
8000356c:	00140413          	addi	s0,s0,1
80003570:	0087a023          	sw	s0,0(a5)
80003574:	fcd2cae3          	blt	t0,a3,80003548 <_ZL9radixPassPiS_S_ii+0x68>
80003578:	02074663          	bltz	a4,800035a4 <_ZL9radixPassPiS_S_ii+0xc4>
8000357c:	00050793          	mv	a5,a0
80003580:	00000393          	li	t2,0
80003584:	00000293          	li	t0,0
80003588:	0007a403          	lw	s0,0(a5)
8000358c:	00128293          	addi	t0,t0,1
80003590:	0077a023          	sw	t2,0(a5)
80003594:	008383b3          	add	t2,t2,s0
80003598:	00478793          	addi	a5,a5,4
8000359c:	fe5756e3          	bge	a4,t0,80003588 <_ZL9radixPassPiS_S_ii+0xa8>
800035a0:	04d05263          	blez	a3,800035e4 <_ZL9radixPassPiS_S_ii+0x104>
800035a4:	00269293          	slli	t0,a3,0x2
800035a8:	005302b3          	add	t0,t1,t0
800035ac:	00032683          	lw	a3,0(t1) # 1000 <_entry_offset+0x1000>
800035b0:	00430313          	addi	t1,t1,4
800035b4:	00269793          	slli	a5,a3,0x2
800035b8:	00f607b3          	add	a5,a2,a5
800035bc:	0007a703          	lw	a4,0(a5)
800035c0:	00271713          	slli	a4,a4,0x2
800035c4:	00e50733          	add	a4,a0,a4
800035c8:	00072783          	lw	a5,0(a4)
800035cc:	00178393          	addi	t2,a5,1
800035d0:	00279793          	slli	a5,a5,0x2
800035d4:	00772023          	sw	t2,0(a4)
800035d8:	00f587b3          	add	a5,a1,a5
800035dc:	00d7a023          	sw	a3,0(a5)
800035e0:	fc6296e3          	bne	t0,t1,800035ac <_ZL9radixPassPiS_S_ii+0xcc>
800035e4:	01812083          	lw	ra,24(sp)
800035e8:	01412403          	lw	s0,20(sp)
800035ec:	01c10113          	addi	sp,sp,28
800035f0:	00008067          	ret
800035f4:	f4d046e3          	bgtz	a3,80003540 <_ZL9radixPassPiS_S_ii+0x60>
800035f8:	fedff06f          	j	800035e4 <_ZL9radixPassPiS_S_ii+0x104>

800035fc <_Z11suffixArrayPiS_ii>:
800035fc:	fa410113          	addi	sp,sp,-92
80003600:	00a12023          	sw	a0,0(sp)
80003604:	02b12c23          	sw	a1,56(sp)
80003608:	00260513          	addi	a0,a2,2
8000360c:	00300593          	li	a1,3
80003610:	04112c23          	sw	ra,88(sp)
80003614:	02d12e23          	sw	a3,60(sp)
80003618:	04812a23          	sw	s0,84(sp)
8000361c:	04912823          	sw	s1,80(sp)
80003620:	00060493          	mv	s1,a2
80003624:	735010ef          	jal	80005558 <__divsi3>
80003628:	00300593          	li	a1,3
8000362c:	00050413          	mv	s0,a0
80003630:	02a12023          	sw	a0,32(sp)
80003634:	00048513          	mv	a0,s1
80003638:	02912823          	sw	s1,48(sp)
8000363c:	71d010ef          	jal	80005558 <__divsi3>
80003640:	00850733          	add	a4,a0,s0
80003644:	00370793          	addi	a5,a4,3
80003648:	00279793          	slli	a5,a5,0x2
8000364c:	00078513          	mv	a0,a5
80003650:	00f12423          	sw	a5,8(sp)
80003654:	02e12423          	sw	a4,40(sp)
80003658:	ba1fe0ef          	jal	800021f8 <bench_alloc>
8000365c:	02812703          	lw	a4,40(sp)
80003660:	00a12223          	sw	a0,4(sp)
80003664:	00271413          	slli	s0,a4,0x2
80003668:	00850733          	add	a4,a0,s0
8000366c:	00072423          	sw	zero,8(a4)
80003670:	00850733          	add	a4,a0,s0
80003674:	00072223          	sw	zero,4(a4)
80003678:	02812703          	lw	a4,40(sp)
8000367c:	00040493          	mv	s1,s0
80003680:	00271713          	slli	a4,a4,0x2
80003684:	04e12023          	sw	a4,64(sp)
80003688:	04012683          	lw	a3,64(sp)
8000368c:	00d50733          	add	a4,a0,a3
80003690:	00812503          	lw	a0,8(sp)
80003694:	00072023          	sw	zero,0(a4)
80003698:	b61fe0ef          	jal	800021f8 <bench_alloc>
8000369c:	04012683          	lw	a3,64(sp)
800036a0:	02012703          	lw	a4,32(sp)
800036a4:	00850433          	add	s0,a0,s0
800036a8:	00042423          	sw	zero,8(s0)
800036ac:	009504b3          	add	s1,a0,s1
800036b0:	00271713          	slli	a4,a4,0x2
800036b4:	00d507b3          	add	a5,a0,a3
800036b8:	0004a223          	sw	zero,4(s1)
800036bc:	0007a023          	sw	zero,0(a5)
800036c0:	02a12623          	sw	a0,44(sp)
800036c4:	00070513          	mv	a0,a4
800036c8:	00070413          	mv	s0,a4
800036cc:	04e12223          	sw	a4,68(sp)
800036d0:	b29fe0ef          	jal	800021f8 <bench_alloc>
800036d4:	00a12623          	sw	a0,12(sp)
800036d8:	00040513          	mv	a0,s0
800036dc:	b1dfe0ef          	jal	800021f8 <bench_alloc>
800036e0:	03012783          	lw	a5,48(sp)
800036e4:	02a12a23          	sw	a0,52(sp)
800036e8:	00300593          	li	a1,3
800036ec:	00178513          	addi	a0,a5,1
800036f0:	669010ef          	jal	80005558 <__divsi3>
800036f4:	02012783          	lw	a5,32(sp)
800036f8:	00c12383          	lw	t2,12(sp)
800036fc:	40a787b3          	sub	a5,a5,a0
80003700:	00f12423          	sw	a5,8(sp)
80003704:	00812703          	lw	a4,8(sp)
80003708:	03012783          	lw	a5,48(sp)
8000370c:	00e78733          	add	a4,a5,a4
80003710:	04e05463          	blez	a4,80003758 <_Z11suffixArrayPiS_ii+0x15c>
80003714:	00000493          	li	s1,0
80003718:	00000413          	li	s0,0
8000371c:	00e12623          	sw	a4,12(sp)
80003720:	00712823          	sw	t2,16(sp)
80003724:	00300593          	li	a1,3
80003728:	00040513          	mv	a0,s0
8000372c:	6b1010ef          	jal	800055dc <__modsi3>
80003730:	00412783          	lw	a5,4(sp)
80003734:	00249713          	slli	a4,s1,0x2
80003738:	00e78733          	add	a4,a5,a4
8000373c:	00050663          	beqz	a0,80003748 <_Z11suffixArrayPiS_ii+0x14c>
80003740:	00872023          	sw	s0,0(a4)
80003744:	00148493          	addi	s1,s1,1
80003748:	00c12783          	lw	a5,12(sp)
8000374c:	00140413          	addi	s0,s0,1
80003750:	fcf41ae3          	bne	s0,a5,80003724 <_Z11suffixArrayPiS_ii+0x128>
80003754:	01012383          	lw	t2,16(sp)
80003758:	02812403          	lw	s0,40(sp)
8000375c:	02c12483          	lw	s1,44(sp)
80003760:	00012603          	lw	a2,0(sp)
80003764:	03c12703          	lw	a4,60(sp)
80003768:	00412503          	lw	a0,4(sp)
8000376c:	00040693          	mv	a3,s0
80003770:	00860613          	addi	a2,a2,8
80003774:	00048593          	mv	a1,s1
80003778:	00712623          	sw	t2,12(sp)
8000377c:	d65ff0ef          	jal	800034e0 <_ZL9radixPassPiS_S_ii>
80003780:	00012603          	lw	a2,0(sp)
80003784:	03c12703          	lw	a4,60(sp)
80003788:	00412583          	lw	a1,4(sp)
8000378c:	00040693          	mv	a3,s0
80003790:	00460613          	addi	a2,a2,4
80003794:	00048513          	mv	a0,s1
80003798:	d49ff0ef          	jal	800034e0 <_ZL9radixPassPiS_S_ii>
8000379c:	03c12703          	lw	a4,60(sp)
800037a0:	00012603          	lw	a2,0(sp)
800037a4:	00412503          	lw	a0,4(sp)
800037a8:	00040693          	mv	a3,s0
800037ac:	00048593          	mv	a1,s1
800037b0:	d31ff0ef          	jal	800034e0 <_ZL9radixPassPiS_S_ii>
800037b4:	00c12383          	lw	t2,12(sp)
800037b8:	16805c63          	blez	s0,80003930 <_Z11suffixArrayPiS_ii+0x334>
800037bc:	fff00793          	li	a5,-1
800037c0:	00078613          	mv	a2,a5
800037c4:	04012703          	lw	a4,64(sp)
800037c8:	00078313          	mv	t1,a5
800037cc:	00f12623          	sw	a5,12(sp)
800037d0:	02c12783          	lw	a5,44(sp)
800037d4:	00000693          	li	a3,0
800037d8:	04712623          	sw	t2,76(sp)
800037dc:	00e782b3          	add	t0,a5,a4
800037e0:	02512223          	sw	t0,36(sp)
800037e4:	00078413          	mv	s0,a5
800037e8:	04f12423          	sw	a5,72(sp)
800037ec:	00060293          	mv	t0,a2
800037f0:	0680006f          	j	80003858 <_Z11suffixArrayPiS_ii+0x25c>
800037f4:	00168693          	addi	a3,a3,1
800037f8:	00c12623          	sw	a2,12(sp)
800037fc:	00512e23          	sw	t0,28(sp)
80003800:	00612c23          	sw	t1,24(sp)
80003804:	00d12a23          	sw	a3,20(sp)
80003808:	00e12823          	sw	a4,16(sp)
8000380c:	54d010ef          	jal	80005558 <__divsi3>
80003810:	00050493          	mv	s1,a0
80003814:	01012503          	lw	a0,16(sp)
80003818:	00300593          	li	a1,3
8000381c:	5c1010ef          	jal	800055dc <__modsi3>
80003820:	02012783          	lw	a5,32(sp)
80003824:	00412703          	lw	a4,4(sp)
80003828:	01412683          	lw	a3,20(sp)
8000382c:	009787b3          	add	a5,a5,s1
80003830:	00279793          	slli	a5,a5,0x2
80003834:	00f707b3          	add	a5,a4,a5
80003838:	00100713          	li	a4,1
8000383c:	01812303          	lw	t1,24(sp)
80003840:	01c12283          	lw	t0,28(sp)
80003844:	04e50a63          	beq	a0,a4,80003898 <_Z11suffixArrayPiS_ii+0x29c>
80003848:	00d7a023          	sw	a3,0(a5)
8000384c:	02412783          	lw	a5,36(sp)
80003850:	00440413          	addi	s0,s0,4
80003854:	06f40063          	beq	s0,a5,800038b4 <_Z11suffixArrayPiS_ii+0x2b8>
80003858:	00042703          	lw	a4,0(s0)
8000385c:	00012603          	lw	a2,0(sp)
80003860:	00030393          	mv	t2,t1
80003864:	00271793          	slli	a5,a4,0x2
80003868:	00f607b3          	add	a5,a2,a5
8000386c:	0007a603          	lw	a2,0(a5)
80003870:	0047a303          	lw	t1,4(a5)
80003874:	00028493          	mv	s1,t0
80003878:	0087a283          	lw	t0,8(a5)
8000387c:	00c12783          	lw	a5,12(sp)
80003880:	00300593          	li	a1,3
80003884:	00070513          	mv	a0,a4
80003888:	f6f616e3          	bne	a2,a5,800037f4 <_Z11suffixArrayPiS_ii+0x1f8>
8000388c:	f66394e3          	bne	t2,t1,800037f4 <_Z11suffixArrayPiS_ii+0x1f8>
80003890:	f65492e3          	bne	s1,t0,800037f4 <_Z11suffixArrayPiS_ii+0x1f8>
80003894:	f69ff06f          	j	800037fc <_Z11suffixArrayPiS_ii+0x200>
80003898:	00412783          	lw	a5,4(sp)
8000389c:	00249493          	slli	s1,s1,0x2
800038a0:	00440413          	addi	s0,s0,4
800038a4:	009784b3          	add	s1,a5,s1
800038a8:	02412783          	lw	a5,36(sp)
800038ac:	00d4a023          	sw	a3,0(s1)
800038b0:	faf414e3          	bne	s0,a5,80003858 <_Z11suffixArrayPiS_ii+0x25c>
800038b4:	02812583          	lw	a1,40(sp)
800038b8:	40000637          	lui	a2,0x40000
800038bc:	04812483          	lw	s1,72(sp)
800038c0:	04c12383          	lw	t2,76(sp)
800038c4:	00412703          	lw	a4,4(sp)
800038c8:	00040293          	mv	t0,s0
800038cc:	fff60613          	addi	a2,a2,-1 # 3fffffff <_entry_offset+0x3fffffff>
800038d0:	00000793          	li	a5,0
800038d4:	30b6ca63          	blt	a3,a1,80003be8 <_Z11suffixArrayPiS_ii+0x5ec>
800038d8:	02812583          	lw	a1,40(sp)
800038dc:	02c12503          	lw	a0,44(sp)
800038e0:	00072683          	lw	a3,0(a4)
800038e4:	00470713          	addi	a4,a4,4
800038e8:	00c686b3          	add	a3,a3,a2
800038ec:	00269693          	slli	a3,a3,0x2
800038f0:	00d506b3          	add	a3,a0,a3
800038f4:	00f6a023          	sw	a5,0(a3)
800038f8:	00178793          	addi	a5,a5,1
800038fc:	fef592e3          	bne	a1,a5,800038e0 <_Z11suffixArrayPiS_ii+0x2e4>
80003900:	02012583          	lw	a1,32(sp)
80003904:	00000613          	li	a2,0
80003908:	0004a703          	lw	a4,0(s1)
8000390c:	00261793          	slli	a5,a2,0x2
80003910:	00448493          	addi	s1,s1,4
80003914:	00171693          	slli	a3,a4,0x1
80003918:	00f387b3          	add	a5,t2,a5
8000391c:	00e686b3          	add	a3,a3,a4
80003920:	00b75663          	bge	a4,a1,8000392c <_Z11suffixArrayPiS_ii+0x330>
80003924:	00d7a023          	sw	a3,0(a5)
80003928:	00160613          	addi	a2,a2,1
8000392c:	fc549ee3          	bne	s1,t0,80003908 <_Z11suffixArrayPiS_ii+0x30c>
80003930:	03c12703          	lw	a4,60(sp)
80003934:	02012683          	lw	a3,32(sp)
80003938:	00012603          	lw	a2,0(sp)
8000393c:	03412583          	lw	a1,52(sp)
80003940:	00038513          	mv	a0,t2
80003944:	b9dff0ef          	jal	800034e0 <_ZL9radixPassPiS_S_ii>
80003948:	03012783          	lw	a5,48(sp)
8000394c:	00012623          	sw	zero,12(sp)
80003950:	00000713          	li	a4,0
80003954:	10f05263          	blez	a5,80003a58 <_Z11suffixArrayPiS_ii+0x45c>
80003958:	02012283          	lw	t0,32(sp)
8000395c:	00c12783          	lw	a5,12(sp)
80003960:	02e12023          	sw	a4,32(sp)
80003964:	02c12703          	lw	a4,44(sp)
80003968:	00279413          	slli	s0,a5,0x2
8000396c:	03412783          	lw	a5,52(sp)
80003970:	00300593          	li	a1,3
80003974:	02512223          	sw	t0,36(sp)
80003978:	00878433          	add	s0,a5,s0
8000397c:	00812783          	lw	a5,8(sp)
80003980:	00042303          	lw	t1,0(s0)
80003984:	00279793          	slli	a5,a5,0x2
80003988:	00f707b3          	add	a5,a4,a5
8000398c:	00f12823          	sw	a5,16(sp)
80003990:	00012783          	lw	a5,0(sp)
80003994:	00231613          	slli	a2,t1,0x2
80003998:	00030513          	mv	a0,t1
8000399c:	00c78633          	add	a2,a5,a2
800039a0:	00062783          	lw	a5,0(a2)
800039a4:	00612e23          	sw	t1,28(sp)
800039a8:	00c12c23          	sw	a2,24(sp)
800039ac:	00f12a23          	sw	a5,20(sp)
800039b0:	01012783          	lw	a5,16(sp)
800039b4:	0007a483          	lw	s1,0(a5)
800039b8:	3a1010ef          	jal	80005558 <__divsi3>
800039bc:	02412283          	lw	t0,36(sp)
800039c0:	01412783          	lw	a5,20(sp)
800039c4:	01812603          	lw	a2,24(sp)
800039c8:	01c12303          	lw	t1,28(sp)
800039cc:	02012703          	lw	a4,32(sp)
800039d0:	0854de63          	bge	s1,t0,80003a6c <_Z11suffixArrayPiS_ii+0x470>
800039d4:	00149693          	slli	a3,s1,0x1
800039d8:	00012583          	lw	a1,0(sp)
800039dc:	009686b3          	add	a3,a3,s1
800039e0:	00168693          	addi	a3,a3,1
800039e4:	00269613          	slli	a2,a3,0x2
800039e8:	00c58633          	add	a2,a1,a2
800039ec:	00062603          	lw	a2,0(a2)
800039f0:	0cf64263          	blt	a2,a5,80003ab4 <_Z11suffixArrayPiS_ii+0x4b8>
800039f4:	00412583          	lw	a1,4(sp)
800039f8:	005484b3          	add	s1,s1,t0
800039fc:	00249493          	slli	s1,s1,0x2
80003a00:	00251513          	slli	a0,a0,0x2
80003a04:	00a58533          	add	a0,a1,a0
80003a08:	009584b3          	add	s1,a1,s1
80003a0c:	0004a583          	lw	a1,0(s1)
80003a10:	00052503          	lw	a0,0(a0)
80003a14:	40f60633          	sub	a2,a2,a5
80003a18:	00163613          	seqz	a2,a2
80003a1c:	00b525b3          	slt	a1,a0,a1
80003a20:	0015b593          	seqz	a1,a1
80003a24:	00c5f5b3          	and	a1,a1,a2
80003a28:	08059663          	bnez	a1,80003ab4 <_Z11suffixArrayPiS_ii+0x4b8>
80003a2c:	03812783          	lw	a5,56(sp)
80003a30:	00271693          	slli	a3,a4,0x2
80003a34:	00d78633          	add	a2,a5,a3
80003a38:	00c12783          	lw	a5,12(sp)
80003a3c:	00662023          	sw	t1,0(a2)
80003a40:	00178793          	addi	a5,a5,1
80003a44:	00f12623          	sw	a5,12(sp)
80003a48:	10f28a63          	beq	t0,a5,80003b5c <_Z11suffixArrayPiS_ii+0x560>
80003a4c:	03012783          	lw	a5,48(sp)
80003a50:	00170713          	addi	a4,a4,1
80003a54:	f0f744e3          	blt	a4,a5,8000395c <_Z11suffixArrayPiS_ii+0x360>
80003a58:	05812083          	lw	ra,88(sp)
80003a5c:	05412403          	lw	s0,84(sp)
80003a60:	05012483          	lw	s1,80(sp)
80003a64:	05c10113          	addi	sp,sp,92
80003a68:	00008067          	ret
80003a6c:	405484b3          	sub	s1,s1,t0
80003a70:	00149593          	slli	a1,s1,0x1
80003a74:	009586b3          	add	a3,a1,s1
80003a78:	00012583          	lw	a1,0(sp)
80003a7c:	00d12a23          	sw	a3,20(sp)
80003a80:	00268693          	addi	a3,a3,2
80003a84:	00269393          	slli	t2,a3,0x2
80003a88:	007583b3          	add	t2,a1,t2
80003a8c:	0003a383          	lw	t2,0(t2)
80003a90:	02f3c263          	blt	t2,a5,80003ab4 <_Z11suffixArrayPiS_ii+0x4b8>
80003a94:	f8f39ce3          	bne	t2,a5,80003a2c <_Z11suffixArrayPiS_ii+0x430>
80003a98:	01412783          	lw	a5,20(sp)
80003a9c:	00462603          	lw	a2,4(a2)
80003aa0:	00279593          	slli	a1,a5,0x2
80003aa4:	00012783          	lw	a5,0(sp)
80003aa8:	00b785b3          	add	a1,a5,a1
80003aac:	00c5a583          	lw	a1,12(a1)
80003ab0:	06c5da63          	bge	a1,a2,80003b24 <_Z11suffixArrayPiS_ii+0x528>
80003ab4:	03812783          	lw	a5,56(sp)
80003ab8:	00812583          	lw	a1,8(sp)
80003abc:	00271613          	slli	a2,a4,0x2
80003ac0:	00c787b3          	add	a5,a5,a2
80003ac4:	00d7a023          	sw	a3,0(a5)
80003ac8:	02812783          	lw	a5,40(sp)
80003acc:	00158593          	addi	a1,a1,1
80003ad0:	00b12423          	sw	a1,8(sp)
80003ad4:	f6b79ce3          	bne	a5,a1,80003a4c <_Z11suffixArrayPiS_ii+0x450>
80003ad8:	00c12783          	lw	a5,12(sp)
80003adc:	00170713          	addi	a4,a4,1
80003ae0:	f657d6e3          	bge	a5,t0,80003a4c <_Z11suffixArrayPiS_ii+0x450>
80003ae4:	03812783          	lw	a5,56(sp)
80003ae8:	03412683          	lw	a3,52(sp)
80003aec:	00478793          	addi	a5,a5,4
80003af0:	00c787b3          	add	a5,a5,a2
80003af4:	04412603          	lw	a2,68(sp)
80003af8:	00c68633          	add	a2,a3,a2
80003afc:	00042683          	lw	a3,0(s0)
80003b00:	00440413          	addi	s0,s0,4
80003b04:	00478793          	addi	a5,a5,4
80003b08:	fed7ae23          	sw	a3,-4(a5)
80003b0c:	fe8618e3          	bne	a2,s0,80003afc <_Z11suffixArrayPiS_ii+0x500>
80003b10:	00c12783          	lw	a5,12(sp)
80003b14:	00512623          	sw	t0,12(sp)
80003b18:	40f70733          	sub	a4,a4,a5
80003b1c:	00570733          	add	a4,a4,t0
80003b20:	f2dff06f          	j	80003a4c <_Z11suffixArrayPiS_ii+0x450>
80003b24:	00412783          	lw	a5,4(sp)
80003b28:	00a28533          	add	a0,t0,a0
80003b2c:	00249493          	slli	s1,s1,0x2
80003b30:	00251513          	slli	a0,a0,0x2
80003b34:	00a78533          	add	a0,a5,a0
80003b38:	009784b3          	add	s1,a5,s1
80003b3c:	0044a783          	lw	a5,4(s1)
80003b40:	00052503          	lw	a0,0(a0)
80003b44:	40c585b3          	sub	a1,a1,a2
80003b48:	0015b593          	seqz	a1,a1
80003b4c:	00f527b3          	slt	a5,a0,a5
80003b50:	0017b793          	seqz	a5,a5
80003b54:	00b7f5b3          	and	a1,a5,a1
80003b58:	ed1ff06f          	j	80003a28 <_Z11suffixArrayPiS_ii+0x42c>
80003b5c:	02812783          	lw	a5,40(sp)
80003b60:	00812603          	lw	a2,8(sp)
80003b64:	00170713          	addi	a4,a4,1
80003b68:	eef652e3          	bge	a2,a5,80003a4c <_Z11suffixArrayPiS_ii+0x450>
80003b6c:	03812783          	lw	a5,56(sp)
80003b70:	04012583          	lw	a1,64(sp)
80003b74:	00478613          	addi	a2,a5,4
80003b78:	00d60633          	add	a2,a2,a3
80003b7c:	02c12683          	lw	a3,44(sp)
80003b80:	01012783          	lw	a5,16(sp)
80003b84:	00b685b3          	add	a1,a3,a1
80003b88:	0200006f          	j	80003ba8 <_Z11suffixArrayPiS_ii+0x5ac>
80003b8c:	00151693          	slli	a3,a0,0x1
80003b90:	00a686b3          	add	a3,a3,a0
80003b94:	00168693          	addi	a3,a3,1
80003b98:	00d62023          	sw	a3,0(a2)
80003b9c:	00478793          	addi	a5,a5,4
80003ba0:	00460613          	addi	a2,a2,4
80003ba4:	02b78663          	beq	a5,a1,80003bd0 <_Z11suffixArrayPiS_ii+0x5d4>
80003ba8:	0007a503          	lw	a0,0(a5)
80003bac:	40550333          	sub	t1,a0,t0
80003bb0:	fc554ee3          	blt	a0,t0,80003b8c <_Z11suffixArrayPiS_ii+0x590>
80003bb4:	00131693          	slli	a3,t1,0x1
80003bb8:	006686b3          	add	a3,a3,t1
80003bbc:	00268693          	addi	a3,a3,2
80003bc0:	00d62023          	sw	a3,0(a2)
80003bc4:	00478793          	addi	a5,a5,4
80003bc8:	00460613          	addi	a2,a2,4
80003bcc:	fcb79ee3          	bne	a5,a1,80003ba8 <_Z11suffixArrayPiS_ii+0x5ac>
80003bd0:	00812783          	lw	a5,8(sp)
80003bd4:	40f70733          	sub	a4,a4,a5
80003bd8:	02812783          	lw	a5,40(sp)
80003bdc:	00f70733          	add	a4,a4,a5
80003be0:	00f12423          	sw	a5,8(sp)
80003be4:	e69ff06f          	j	80003a4c <_Z11suffixArrayPiS_ii+0x450>
80003be8:	00058613          	mv	a2,a1
80003bec:	02c12583          	lw	a1,44(sp)
80003bf0:	00070513          	mv	a0,a4
80003bf4:	00712823          	sw	t2,16(sp)
80003bf8:	00812623          	sw	s0,12(sp)
80003bfc:	00070413          	mv	s0,a4
80003c00:	9fdff0ef          	jal	800035fc <_Z11suffixArrayPiS_ii>
80003c04:	02c12683          	lw	a3,44(sp)
80003c08:	02812603          	lw	a2,40(sp)
80003c0c:	00c12283          	lw	t0,12(sp)
80003c10:	01012383          	lw	t2,16(sp)
80003c14:	00000713          	li	a4,0
80003c18:	00040593          	mv	a1,s0
80003c1c:	0006a783          	lw	a5,0(a3)
80003c20:	00170713          	addi	a4,a4,1
80003c24:	00468693          	addi	a3,a3,4
80003c28:	00279793          	slli	a5,a5,0x2
80003c2c:	00f587b3          	add	a5,a1,a5
80003c30:	00e7a023          	sw	a4,0(a5)
80003c34:	fec714e3          	bne	a4,a2,80003c1c <_Z11suffixArrayPiS_ii+0x620>
80003c38:	cc9ff06f          	j	80003900 <_Z11suffixArrayPiS_ii+0x304>

80003c3c <bench_ssort_prepare>:
80003c3c:	00004797          	auipc	a5,0x4
80003c40:	f307a783          	lw	a5,-208(a5) # 80007b6c <setting>
80003c44:	ff010113          	addi	sp,sp,-16
80003c48:	00112623          	sw	ra,12(sp)
80003c4c:	0007a783          	lw	a5,0(a5)
80003c50:	00912223          	sw	s1,4(sp)
80003c54:	00100513          	li	a0,1
80003c58:	00004497          	auipc	s1,0x4
80003c5c:	f6848493          	addi	s1,s1,-152 # 80007bc0 <_ZL1N>
80003c60:	00f4a023          	sw	a5,0(s1)
80003c64:	e38fe0ef          	jal	8000229c <bench_srand>
80003c68:	0004a503          	lw	a0,0(s1)
80003c6c:	00a50513          	addi	a0,a0,10
80003c70:	00251513          	slli	a0,a0,0x2
80003c74:	d84fe0ef          	jal	800021f8 <bench_alloc>
80003c78:	0004a783          	lw	a5,0(s1)
80003c7c:	00004717          	auipc	a4,0x4
80003c80:	f4070713          	addi	a4,a4,-192 # 80007bbc <_ZL1s>
80003c84:	00a72023          	sw	a0,0(a4)
80003c88:	00a78513          	addi	a0,a5,10
80003c8c:	00251513          	slli	a0,a0,0x2
80003c90:	d68fe0ef          	jal	800021f8 <bench_alloc>
80003c94:	0004a783          	lw	a5,0(s1)
80003c98:	00004717          	auipc	a4,0x4
80003c9c:	f2a72023          	sw	a0,-224(a4) # 80007bb8 <_ZL2sa>
80003ca0:	04f05263          	blez	a5,80003ce4 <bench_ssort_prepare+0xa8>
80003ca4:	00812423          	sw	s0,8(sp)
80003ca8:	00000413          	li	s0,0
80003cac:	e04fe0ef          	jal	800022b0 <bench_rand>
80003cb0:	00004797          	auipc	a5,0x4
80003cb4:	f0c7a783          	lw	a5,-244(a5) # 80007bbc <_ZL1s>
80003cb8:	00241713          	slli	a4,s0,0x2
80003cbc:	01a00593          	li	a1,26
80003cc0:	00e787b3          	add	a5,a5,a4
80003cc4:	00f12023          	sw	a5,0(sp)
80003cc8:	0e1010ef          	jal	800055a8 <__umodsi3>
80003ccc:	00012783          	lw	a5,0(sp)
80003cd0:	0004a703          	lw	a4,0(s1)
80003cd4:	00140413          	addi	s0,s0,1
80003cd8:	00a7a023          	sw	a0,0(a5)
80003cdc:	fce448e3          	blt	s0,a4,80003cac <bench_ssort_prepare+0x70>
80003ce0:	00812403          	lw	s0,8(sp)
80003ce4:	00c12083          	lw	ra,12(sp)
80003ce8:	00412483          	lw	s1,4(sp)
80003cec:	01010113          	addi	sp,sp,16
80003cf0:	00008067          	ret

80003cf4 <bench_ssort_run>:
80003cf4:	00004617          	auipc	a2,0x4
80003cf8:	ecc62603          	lw	a2,-308(a2) # 80007bc0 <_ZL1N>
80003cfc:	00004597          	auipc	a1,0x4
80003d00:	ebc5a583          	lw	a1,-324(a1) # 80007bb8 <_ZL2sa>
80003d04:	00004517          	auipc	a0,0x4
80003d08:	eb852503          	lw	a0,-328(a0) # 80007bbc <_ZL1s>
80003d0c:	01a00693          	li	a3,26
80003d10:	8edff06f          	j	800035fc <_Z11suffixArrayPiS_ii>

80003d14 <bench_ssort_validate>:
80003d14:	00004597          	auipc	a1,0x4
80003d18:	eac5a583          	lw	a1,-340(a1) # 80007bc0 <_ZL1N>
80003d1c:	00004517          	auipc	a0,0x4
80003d20:	e9c52503          	lw	a0,-356(a0) # 80007bb8 <_ZL2sa>
80003d24:	ffc10113          	addi	sp,sp,-4
80003d28:	00259593          	slli	a1,a1,0x2
80003d2c:	00b505b3          	add	a1,a0,a1
80003d30:	00112023          	sw	ra,0(sp)
80003d34:	dccfe0ef          	jal	80002300 <checksum>
80003d38:	00004797          	auipc	a5,0x4
80003d3c:	e347a783          	lw	a5,-460(a5) # 80007b6c <setting>
80003d40:	00012083          	lw	ra,0(sp)
80003d44:	00c7a783          	lw	a5,12(a5)
80003d48:	00410113          	addi	sp,sp,4
80003d4c:	40a78533          	sub	a0,a5,a0
80003d50:	00153513          	seqz	a0,a0
80003d54:	00008067          	ret

80003d58 <myqsort>:
80003d58:	00060313          	mv	t1,a2
80003d5c:	0cc5d663          	bge	a1,a2,80003e28 <myqsort+0xd0>
80003d60:	fec10113          	addi	sp,sp,-20
80003d64:	00112823          	sw	ra,16(sp)
80003d68:	00812623          	sw	s0,12(sp)
80003d6c:	00912423          	sw	s1,8(sp)
80003d70:	00231493          	slli	s1,t1,0x2
80003d74:	009504b3          	add	s1,a0,s1
80003d78:	00158793          	addi	a5,a1,1
80003d7c:	0867d863          	bge	a5,t1,80003e0c <myqsort+0xb4>
80003d80:	00259713          	slli	a4,a1,0x2
80003d84:	00e50633          	add	a2,a0,a4
80003d88:	00062283          	lw	t0,0(a2)
80003d8c:	00450793          	addi	a5,a0,4
80003d90:	00e787b3          	add	a5,a5,a4
80003d94:	00058413          	mv	s0,a1
80003d98:	0007a683          	lw	a3,0(a5)
80003d9c:	0056de63          	bge	a3,t0,80003db8 <myqsort+0x60>
80003da0:	00140413          	addi	s0,s0,1
80003da4:	00241713          	slli	a4,s0,0x2
80003da8:	00e50733          	add	a4,a0,a4
80003dac:	00072383          	lw	t2,0(a4)
80003db0:	00d72023          	sw	a3,0(a4)
80003db4:	0077a023          	sw	t2,0(a5)
80003db8:	00478793          	addi	a5,a5,4
80003dbc:	fcf49ee3          	bne	s1,a5,80003d98 <myqsort+0x40>
80003dc0:	00241793          	slli	a5,s0,0x2
80003dc4:	00062683          	lw	a3,0(a2)
80003dc8:	00f507b3          	add	a5,a0,a5
80003dcc:	0007a703          	lw	a4,0(a5)
80003dd0:	00d7a023          	sw	a3,0(a5)
80003dd4:	00612223          	sw	t1,4(sp)
80003dd8:	00e62023          	sw	a4,0(a2)
80003ddc:	00040613          	mv	a2,s0
80003de0:	00a12023          	sw	a0,0(sp)
80003de4:	f75ff0ef          	jal	80003d58 <myqsort>
80003de8:	00412303          	lw	t1,4(sp)
80003dec:	00140593          	addi	a1,s0,1
80003df0:	00012503          	lw	a0,0(sp)
80003df4:	f865c2e3          	blt	a1,t1,80003d78 <myqsort+0x20>
80003df8:	01012083          	lw	ra,16(sp)
80003dfc:	00c12403          	lw	s0,12(sp)
80003e00:	00812483          	lw	s1,8(sp)
80003e04:	01410113          	addi	sp,sp,20
80003e08:	00008067          	ret
80003e0c:	00058313          	mv	t1,a1
80003e10:	f6b5c0e3          	blt	a1,a1,80003d70 <myqsort+0x18>
80003e14:	01012083          	lw	ra,16(sp)
80003e18:	00c12403          	lw	s0,12(sp)
80003e1c:	00812483          	lw	s1,8(sp)
80003e20:	01410113          	addi	sp,sp,20
80003e24:	00008067          	ret
80003e28:	00008067          	ret

80003e2c <bench_qsort_prepare>:
80003e2c:	ff410113          	addi	sp,sp,-12
80003e30:	00100513          	li	a0,1
80003e34:	00112423          	sw	ra,8(sp)
80003e38:	c64fe0ef          	jal	8000229c <bench_srand>
80003e3c:	00004797          	auipc	a5,0x4
80003e40:	d307a783          	lw	a5,-720(a5) # 80007b6c <setting>
80003e44:	00004617          	auipc	a2,0x4
80003e48:	d8460613          	addi	a2,a2,-636 # 80007bc8 <N>
80003e4c:	0007a783          	lw	a5,0(a5)
80003e50:	00279513          	slli	a0,a5,0x2
80003e54:	00f62023          	sw	a5,0(a2)
80003e58:	ba0fe0ef          	jal	800021f8 <bench_alloc>
80003e5c:	00004797          	auipc	a5,0x4
80003e60:	d6c7a783          	lw	a5,-660(a5) # 80007bc8 <N>
80003e64:	00004597          	auipc	a1,0x4
80003e68:	d6058593          	addi	a1,a1,-672 # 80007bc4 <data>
80003e6c:	00a5a023          	sw	a0,0(a1)
80003e70:	04f05863          	blez	a5,80003ec0 <bench_qsort_prepare+0x94>
80003e74:	00912023          	sw	s1,0(sp)
80003e78:	00812223          	sw	s0,4(sp)
80003e7c:	00000493          	li	s1,0
80003e80:	c30fe0ef          	jal	800022b0 <bench_rand>
80003e84:	00050413          	mv	s0,a0
80003e88:	c28fe0ef          	jal	800022b0 <bench_rand>
80003e8c:	00004797          	auipc	a5,0x4
80003e90:	d387a783          	lw	a5,-712(a5) # 80007bc4 <data>
80003e94:	00249693          	slli	a3,s1,0x2
80003e98:	01041413          	slli	s0,s0,0x10
80003e9c:	00004717          	auipc	a4,0x4
80003ea0:	d2c72703          	lw	a4,-724(a4) # 80007bc8 <N>
80003ea4:	00a46433          	or	s0,s0,a0
80003ea8:	00d787b3          	add	a5,a5,a3
80003eac:	0087a023          	sw	s0,0(a5)
80003eb0:	00148493          	addi	s1,s1,1
80003eb4:	fce4c6e3          	blt	s1,a4,80003e80 <bench_qsort_prepare+0x54>
80003eb8:	00412403          	lw	s0,4(sp)
80003ebc:	00012483          	lw	s1,0(sp)
80003ec0:	00812083          	lw	ra,8(sp)
80003ec4:	00c10113          	addi	sp,sp,12
80003ec8:	00008067          	ret

80003ecc <bench_qsort_run>:
80003ecc:	00004617          	auipc	a2,0x4
80003ed0:	cfc62603          	lw	a2,-772(a2) # 80007bc8 <N>
80003ed4:	00004517          	auipc	a0,0x4
80003ed8:	cf052503          	lw	a0,-784(a0) # 80007bc4 <data>
80003edc:	00000593          	li	a1,0
80003ee0:	e79ff06f          	j	80003d58 <myqsort>

80003ee4 <bench_qsort_validate>:
80003ee4:	00004597          	auipc	a1,0x4
80003ee8:	ce45a583          	lw	a1,-796(a1) # 80007bc8 <N>
80003eec:	00004517          	auipc	a0,0x4
80003ef0:	cd852503          	lw	a0,-808(a0) # 80007bc4 <data>
80003ef4:	ffc10113          	addi	sp,sp,-4
80003ef8:	00259593          	slli	a1,a1,0x2
80003efc:	00b505b3          	add	a1,a0,a1
80003f00:	00112023          	sw	ra,0(sp)
80003f04:	bfcfe0ef          	jal	80002300 <checksum>
80003f08:	00004797          	auipc	a5,0x4
80003f0c:	c647a783          	lw	a5,-924(a5) # 80007b6c <setting>
80003f10:	00012083          	lw	ra,0(sp)
80003f14:	00c7a783          	lw	a5,12(a5)
80003f18:	00410113          	addi	sp,sp,4
80003f1c:	40a78533          	sub	a0,a5,a0
80003f20:	00153513          	seqz	a0,a0
80003f24:	00008067          	ret

80003f28 <_ZN5Dinic3DFSEii>:
80003f28:	00c52783          	lw	a5,12(a0)
80003f2c:	f2810113          	addi	sp,sp,-216
80003f30:	0c112a23          	sw	ra,212(sp)
80003f34:	00f12a23          	sw	a5,20(sp)
80003f38:	14b78ee3          	beq	a5,a1,80004894 <_ZN5Dinic3DFSEii+0x96c>
80003f3c:	02012623          	sw	zero,44(sp)
80003f40:	140602e3          	beqz	a2,80004884 <_ZN5Dinic3DFSEii+0x95c>
80003f44:	02052783          	lw	a5,32(a0)
80003f48:	00259593          	slli	a1,a1,0x2
80003f4c:	02f12c23          	sw	a5,56(sp)
80003f50:	03812703          	lw	a4,56(sp)
80003f54:	fff00793          	li	a5,-1
80003f58:	00b70733          	add	a4,a4,a1
80003f5c:	00072703          	lw	a4,0(a4)
80003f60:	12f702e3          	beq	a4,a5,80004884 <_ZN5Dinic3DFSEii+0x95c>
80003f64:	01c52783          	lw	a5,28(a0)
80003f68:	0c812823          	sw	s0,208(sp)
80003f6c:	01052403          	lw	s0,16(a0)
80003f70:	0c912623          	sw	s1,204(sp)
80003f74:	00f12023          	sw	a5,0(sp)
80003f78:	00812423          	sw	s0,8(sp)
80003f7c:	00b784b3          	add	s1,a5,a1
80003f80:	00060413          	mv	s0,a2
80003f84:	01c0006f          	j	80003fa0 <_ZN5Dinic3DFSEii+0x78>
80003f88:	01852783          	lw	a5,24(a0)
80003f8c:	00271713          	slli	a4,a4,0x2
80003f90:	fff00693          	li	a3,-1
80003f94:	00e787b3          	add	a5,a5,a4
80003f98:	0007a703          	lw	a4,0(a5)
80003f9c:	0ed700e3          	beq	a4,a3,8000487c <_ZN5Dinic3DFSEii+0x954>
80003fa0:	00812683          	lw	a3,8(sp)
80003fa4:	00471793          	slli	a5,a4,0x4
80003fa8:	00012603          	lw	a2,0(sp)
80003fac:	00f683b3          	add	t2,a3,a5
80003fb0:	0043a683          	lw	a3,4(t2)
80003fb4:	0004a583          	lw	a1,0(s1)
80003fb8:	00269793          	slli	a5,a3,0x2
80003fbc:	00f602b3          	add	t0,a2,a5
80003fc0:	0002a603          	lw	a2,0(t0)
80003fc4:	00158593          	addi	a1,a1,1
80003fc8:	fcc590e3          	bne	a1,a2,80003f88 <_ZN5Dinic3DFSEii+0x60>
80003fcc:	0083a303          	lw	t1,8(t2)
80003fd0:	00c3a583          	lw	a1,12(t2)
80003fd4:	40b305b3          	sub	a1,t1,a1
80003fd8:	00b12c23          	sw	a1,24(sp)
80003fdc:	00b45463          	bge	s0,a1,80003fe4 <_ZN5Dinic3DFSEii+0xbc>
80003fe0:	00812c23          	sw	s0,24(sp)
80003fe4:	01412583          	lw	a1,20(sp)
80003fe8:	0cd584e3          	beq	a1,a3,800048b0 <_ZN5Dinic3DFSEii+0x988>
80003fec:	01812683          	lw	a3,24(sp)
80003ff0:	f8068ce3          	beqz	a3,80003f88 <_ZN5Dinic3DFSEii+0x60>
80003ff4:	03812683          	lw	a3,56(sp)
80003ff8:	00f687b3          	add	a5,a3,a5
80003ffc:	0007a783          	lw	a5,0(a5)
80004000:	00f12223          	sw	a5,4(sp)
80004004:	00412683          	lw	a3,4(sp)
80004008:	fff00793          	li	a5,-1
8000400c:	f6f68ee3          	beq	a3,a5,80003f88 <_ZN5Dinic3DFSEii+0x60>
80004010:	00050313          	mv	t1,a0
80004014:	02012223          	sw	zero,36(sp)
80004018:	06712223          	sw	t2,100(sp)
8000401c:	06e12423          	sw	a4,104(sp)
80004020:	00060693          	mv	a3,a2
80004024:	06812623          	sw	s0,108(sp)
80004028:	00028513          	mv	a0,t0
8000402c:	0280006f          	j	80004054 <_ZN5Dinic3DFSEii+0x12c>
80004030:	00412783          	lw	a5,4(sp)
80004034:	01832683          	lw	a3,24(t1)
80004038:	00279713          	slli	a4,a5,0x2
8000403c:	00e68733          	add	a4,a3,a4
80004040:	00072703          	lw	a4,0(a4)
80004044:	fff00793          	li	a5,-1
80004048:	00e12223          	sw	a4,4(sp)
8000404c:	7cf70a63          	beq	a4,a5,80004820 <_ZN5Dinic3DFSEii+0x8f8>
80004050:	00052683          	lw	a3,0(a0)
80004054:	00412783          	lw	a5,4(sp)
80004058:	00812703          	lw	a4,8(sp)
8000405c:	00012603          	lw	a2,0(sp)
80004060:	00479793          	slli	a5,a5,0x4
80004064:	00f70433          	add	s0,a4,a5
80004068:	00442703          	lw	a4,4(s0)
8000406c:	00168693          	addi	a3,a3,1
80004070:	00271793          	slli	a5,a4,0x2
80004074:	00f602b3          	add	t0,a2,a5
80004078:	0002a603          	lw	a2,0(t0)
8000407c:	fac69ae3          	bne	a3,a2,80004030 <_ZN5Dinic3DFSEii+0x108>
80004080:	00842583          	lw	a1,8(s0)
80004084:	00c42683          	lw	a3,12(s0)
80004088:	40d586b3          	sub	a3,a1,a3
8000408c:	01812583          	lw	a1,24(sp)
80004090:	00068393          	mv	t2,a3
80004094:	00d5d463          	bge	a1,a3,8000409c <_ZN5Dinic3DFSEii+0x174>
80004098:	00058393          	mv	t2,a1
8000409c:	01412683          	lw	a3,20(sp)
800040a0:	00e68ee3          	beq	a3,a4,800048bc <_ZN5Dinic3DFSEii+0x994>
800040a4:	f80386e3          	beqz	t2,80004030 <_ZN5Dinic3DFSEii+0x108>
800040a8:	03812703          	lw	a4,56(sp)
800040ac:	02012823          	sw	zero,48(sp)
800040b0:	00f707b3          	add	a5,a4,a5
800040b4:	0007a583          	lw	a1,0(a5)
800040b8:	fff00793          	li	a5,-1
800040bc:	f6f58ae3          	beq	a1,a5,80004030 <_ZN5Dinic3DFSEii+0x108>
800040c0:	06a12c23          	sw	a0,120(sp)
800040c4:	06812e23          	sw	s0,124(sp)
800040c8:	02512e23          	sw	t0,60(sp)
800040cc:	00060693          	mv	a3,a2
800040d0:	00030513          	mv	a0,t1
800040d4:	0240006f          	j	800040f8 <_ZN5Dinic3DFSEii+0x1d0>
800040d8:	01852683          	lw	a3,24(a0)
800040dc:	00259713          	slli	a4,a1,0x2
800040e0:	fff00793          	li	a5,-1
800040e4:	00e68733          	add	a4,a3,a4
800040e8:	00072583          	lw	a1,0(a4)
800040ec:	6cf58863          	beq	a1,a5,800047bc <_ZN5Dinic3DFSEii+0x894>
800040f0:	03c12783          	lw	a5,60(sp)
800040f4:	0007a683          	lw	a3,0(a5)
800040f8:	00812703          	lw	a4,8(sp)
800040fc:	00459793          	slli	a5,a1,0x4
80004100:	00012603          	lw	a2,0(sp)
80004104:	00f707b3          	add	a5,a4,a5
80004108:	0047a703          	lw	a4,4(a5)
8000410c:	00f12823          	sw	a5,16(sp)
80004110:	00168693          	addi	a3,a3,1
80004114:	00271793          	slli	a5,a4,0x2
80004118:	00f602b3          	add	t0,a2,a5
8000411c:	0002a603          	lw	a2,0(t0)
80004120:	fac69ce3          	bne	a3,a2,800040d8 <_ZN5Dinic3DFSEii+0x1b0>
80004124:	01012683          	lw	a3,16(sp)
80004128:	0086a303          	lw	t1,8(a3)
8000412c:	00c6a683          	lw	a3,12(a3)
80004130:	40d306b3          	sub	a3,t1,a3
80004134:	02d12a23          	sw	a3,52(sp)
80004138:	00d3d463          	bge	t2,a3,80004140 <_ZN5Dinic3DFSEii+0x218>
8000413c:	02712a23          	sw	t2,52(sp)
80004140:	01412683          	lw	a3,20(sp)
80004144:	78e68063          	beq	a3,a4,800048c4 <_ZN5Dinic3DFSEii+0x99c>
80004148:	03412703          	lw	a4,52(sp)
8000414c:	f80706e3          	beqz	a4,800040d8 <_ZN5Dinic3DFSEii+0x1b0>
80004150:	03812703          	lw	a4,56(sp)
80004154:	04012023          	sw	zero,64(sp)
80004158:	00f707b3          	add	a5,a4,a5
8000415c:	0007a783          	lw	a5,0(a5)
80004160:	00f12623          	sw	a5,12(sp)
80004164:	00c12703          	lw	a4,12(sp)
80004168:	fff00793          	li	a5,-1
8000416c:	f6f706e3          	beq	a4,a5,800040d8 <_ZN5Dinic3DFSEii+0x1b0>
80004170:	08b12423          	sw	a1,136(sp)
80004174:	00050313          	mv	t1,a0
80004178:	00812583          	lw	a1,8(sp)
8000417c:	08712623          	sw	t2,140(sp)
80004180:	08912823          	sw	s1,144(sp)
80004184:	00060693          	mv	a3,a2
80004188:	00028513          	mv	a0,t0
8000418c:	0280006f          	j	800041b4 <_ZN5Dinic3DFSEii+0x28c>
80004190:	00c12783          	lw	a5,12(sp)
80004194:	01832683          	lw	a3,24(t1)
80004198:	00279713          	slli	a4,a5,0x2
8000419c:	00e68733          	add	a4,a3,a4
800041a0:	00072703          	lw	a4,0(a4)
800041a4:	fff00793          	li	a5,-1
800041a8:	00e12623          	sw	a4,12(sp)
800041ac:	5af70663          	beq	a4,a5,80004758 <_ZN5Dinic3DFSEii+0x830>
800041b0:	00052683          	lw	a3,0(a0)
800041b4:	00c12783          	lw	a5,12(sp)
800041b8:	00012603          	lw	a2,0(sp)
800041bc:	00168693          	addi	a3,a3,1
800041c0:	00479793          	slli	a5,a5,0x4
800041c4:	00f587b3          	add	a5,a1,a5
800041c8:	0047a703          	lw	a4,4(a5)
800041cc:	00f12e23          	sw	a5,28(sp)
800041d0:	00271793          	slli	a5,a4,0x2
800041d4:	00f602b3          	add	t0,a2,a5
800041d8:	0002a603          	lw	a2,0(t0)
800041dc:	fac69ae3          	bne	a3,a2,80004190 <_ZN5Dinic3DFSEii+0x268>
800041e0:	01c12683          	lw	a3,28(sp)
800041e4:	0086a383          	lw	t2,8(a3)
800041e8:	00c6a683          	lw	a3,12(a3)
800041ec:	40d386b3          	sub	a3,t2,a3
800041f0:	03412383          	lw	t2,52(sp)
800041f4:	04d12223          	sw	a3,68(sp)
800041f8:	6ad3c863          	blt	t2,a3,800048a8 <_ZN5Dinic3DFSEii+0x980>
800041fc:	01412683          	lw	a3,20(sp)
80004200:	6ce68863          	beq	a3,a4,800048d0 <_ZN5Dinic3DFSEii+0x9a8>
80004204:	04412703          	lw	a4,68(sp)
80004208:	f80704e3          	beqz	a4,80004190 <_ZN5Dinic3DFSEii+0x268>
8000420c:	03812703          	lw	a4,56(sp)
80004210:	04012823          	sw	zero,80(sp)
80004214:	00f707b3          	add	a5,a4,a5
80004218:	0007a703          	lw	a4,0(a5)
8000421c:	fff00793          	li	a5,-1
80004220:	f6f708e3          	beq	a4,a5,80004190 <_ZN5Dinic3DFSEii+0x268>
80004224:	08a12a23          	sw	a0,148(sp)
80004228:	04b12423          	sw	a1,72(sp)
8000422c:	00028513          	mv	a0,t0
80004230:	00070493          	mv	s1,a4
80004234:	00060693          	mv	a3,a2
80004238:	00030593          	mv	a1,t1
8000423c:	0200006f          	j	8000425c <_ZN5Dinic3DFSEii+0x334>
80004240:	0185a683          	lw	a3,24(a1)
80004244:	00249713          	slli	a4,s1,0x2
80004248:	fff00793          	li	a5,-1
8000424c:	00e686b3          	add	a3,a3,a4
80004250:	0006a483          	lw	s1,0(a3)
80004254:	48f48e63          	beq	s1,a5,800046f0 <_ZN5Dinic3DFSEii+0x7c8>
80004258:	00052683          	lw	a3,0(a0)
8000425c:	04812703          	lw	a4,72(sp)
80004260:	00449793          	slli	a5,s1,0x4
80004264:	00012603          	lw	a2,0(sp)
80004268:	00f70433          	add	s0,a4,a5
8000426c:	00442703          	lw	a4,4(s0)
80004270:	00168693          	addi	a3,a3,1
80004274:	00271793          	slli	a5,a4,0x2
80004278:	00f602b3          	add	t0,a2,a5
8000427c:	0002a603          	lw	a2,0(t0)
80004280:	fcc690e3          	bne	a3,a2,80004240 <_ZN5Dinic3DFSEii+0x318>
80004284:	00842303          	lw	t1,8(s0)
80004288:	00c42683          	lw	a3,12(s0)
8000428c:	40d306b3          	sub	a3,t1,a3
80004290:	04412303          	lw	t1,68(sp)
80004294:	04d12623          	sw	a3,76(sp)
80004298:	00d35463          	bge	t1,a3,800042a0 <_ZN5Dinic3DFSEii+0x378>
8000429c:	04612623          	sw	t1,76(sp)
800042a0:	01412683          	lw	a3,20(sp)
800042a4:	62e68c63          	beq	a3,a4,800048dc <_ZN5Dinic3DFSEii+0x9b4>
800042a8:	04c12703          	lw	a4,76(sp)
800042ac:	f8070ae3          	beqz	a4,80004240 <_ZN5Dinic3DFSEii+0x318>
800042b0:	03812703          	lw	a4,56(sp)
800042b4:	00f707b3          	add	a5,a4,a5
800042b8:	0007a683          	lw	a3,0(a5)
800042bc:	fff00793          	li	a5,-1
800042c0:	f8f680e3          	beq	a3,a5,80004240 <_ZN5Dinic3DFSEii+0x318>
800042c4:	02d12023          	sw	a3,32(sp)
800042c8:	00058313          	mv	t1,a1
800042cc:	04812383          	lw	t2,72(sp)
800042d0:	08a12c23          	sw	a0,152(sp)
800042d4:	08812e23          	sw	s0,156(sp)
800042d8:	08012023          	sw	zero,128(sp)
800042dc:	00060693          	mv	a3,a2
800042e0:	00028593          	mv	a1,t0
800042e4:	0280006f          	j	8000430c <_ZN5Dinic3DFSEii+0x3e4>
800042e8:	02012783          	lw	a5,32(sp)
800042ec:	01832683          	lw	a3,24(t1)
800042f0:	00279713          	slli	a4,a5,0x2
800042f4:	00e68733          	add	a4,a3,a4
800042f8:	00072703          	lw	a4,0(a4)
800042fc:	fff00793          	li	a5,-1
80004300:	02e12023          	sw	a4,32(sp)
80004304:	38f70863          	beq	a4,a5,80004694 <_ZN5Dinic3DFSEii+0x76c>
80004308:	0005a683          	lw	a3,0(a1)
8000430c:	02012783          	lw	a5,32(sp)
80004310:	00012603          	lw	a2,0(sp)
80004314:	00168693          	addi	a3,a3,1
80004318:	00479793          	slli	a5,a5,0x4
8000431c:	00f38433          	add	s0,t2,a5
80004320:	00442703          	lw	a4,4(s0)
80004324:	00271793          	slli	a5,a4,0x2
80004328:	00f602b3          	add	t0,a2,a5
8000432c:	0002a503          	lw	a0,0(t0)
80004330:	faa69ce3          	bne	a3,a0,800042e8 <_ZN5Dinic3DFSEii+0x3c0>
80004334:	00842603          	lw	a2,8(s0)
80004338:	00c42683          	lw	a3,12(s0)
8000433c:	40d606b3          	sub	a3,a2,a3
80004340:	04c12603          	lw	a2,76(sp)
80004344:	04d12a23          	sw	a3,84(sp)
80004348:	00d65463          	bge	a2,a3,80004350 <_ZN5Dinic3DFSEii+0x428>
8000434c:	04c12a23          	sw	a2,84(sp)
80004350:	01412683          	lw	a3,20(sp)
80004354:	58e68c63          	beq	a3,a4,800048ec <_ZN5Dinic3DFSEii+0x9c4>
80004358:	05412703          	lw	a4,84(sp)
8000435c:	f80706e3          	beqz	a4,800042e8 <_ZN5Dinic3DFSEii+0x3c0>
80004360:	03812703          	lw	a4,56(sp)
80004364:	04012c23          	sw	zero,88(sp)
80004368:	00f707b3          	add	a5,a4,a5
8000436c:	0007a603          	lw	a2,0(a5)
80004370:	fff00793          	li	a5,-1
80004374:	f6f60ae3          	beq	a2,a5,800042e8 <_ZN5Dinic3DFSEii+0x3c0>
80004378:	02c12423          	sw	a2,40(sp)
8000437c:	0ab12023          	sw	a1,160(sp)
80004380:	0a912223          	sw	s1,164(sp)
80004384:	0a812423          	sw	s0,168(sp)
80004388:	00050613          	mv	a2,a0
8000438c:	0280006f          	j	800043b4 <_ZN5Dinic3DFSEii+0x48c>
80004390:	02812703          	lw	a4,40(sp)
80004394:	01832783          	lw	a5,24(t1)
80004398:	00271693          	slli	a3,a4,0x2
8000439c:	00d787b3          	add	a5,a5,a3
800043a0:	0007a783          	lw	a5,0(a5)
800043a4:	fff00713          	li	a4,-1
800043a8:	02f12423          	sw	a5,40(sp)
800043ac:	28e78463          	beq	a5,a4,80004634 <_ZN5Dinic3DFSEii+0x70c>
800043b0:	0002a603          	lw	a2,0(t0)
800043b4:	02812783          	lw	a5,40(sp)
800043b8:	00012583          	lw	a1,0(sp)
800043bc:	00160613          	addi	a2,a2,1
800043c0:	00479793          	slli	a5,a5,0x4
800043c4:	00f38733          	add	a4,t2,a5
800043c8:	00472683          	lw	a3,4(a4)
800043cc:	00269793          	slli	a5,a3,0x2
800043d0:	00f585b3          	add	a1,a1,a5
800043d4:	0005a503          	lw	a0,0(a1)
800043d8:	faa61ce3          	bne	a2,a0,80004390 <_ZN5Dinic3DFSEii+0x468>
800043dc:	00872403          	lw	s0,8(a4)
800043e0:	00c72603          	lw	a2,12(a4)
800043e4:	40c40633          	sub	a2,s0,a2
800043e8:	05412403          	lw	s0,84(sp)
800043ec:	04c12e23          	sw	a2,92(sp)
800043f0:	00c45463          	bge	s0,a2,800043f8 <_ZN5Dinic3DFSEii+0x4d0>
800043f4:	04812e23          	sw	s0,92(sp)
800043f8:	01412603          	lw	a2,20(sp)
800043fc:	4ed60e63          	beq	a2,a3,800048f8 <_ZN5Dinic3DFSEii+0x9d0>
80004400:	05c12683          	lw	a3,92(sp)
80004404:	f80686e3          	beqz	a3,80004390 <_ZN5Dinic3DFSEii+0x468>
80004408:	03812683          	lw	a3,56(sp)
8000440c:	06012023          	sw	zero,96(sp)
80004410:	00f687b3          	add	a5,a3,a5
80004414:	0007a403          	lw	s0,0(a5)
80004418:	fff00793          	li	a5,-1
8000441c:	f6f40ae3          	beq	s0,a5,80004390 <_ZN5Dinic3DFSEii+0x468>
80004420:	0a512e23          	sw	t0,188(sp)
80004424:	0ce12023          	sw	a4,192(sp)
80004428:	00012283          	lw	t0,0(sp)
8000442c:	06b12823          	sw	a1,112(sp)
80004430:	0240006f          	j	80004454 <_ZN5Dinic3DFSEii+0x52c>
80004434:	01832783          	lw	a5,24(t1)
80004438:	00241413          	slli	s0,s0,0x2
8000443c:	fff00713          	li	a4,-1
80004440:	008787b3          	add	a5,a5,s0
80004444:	0007a403          	lw	s0,0(a5)
80004448:	18e40863          	beq	s0,a4,800045d8 <_ZN5Dinic3DFSEii+0x6b0>
8000444c:	07012783          	lw	a5,112(sp)
80004450:	0007a503          	lw	a0,0(a5)
80004454:	00441793          	slli	a5,s0,0x4
80004458:	00f387b3          	add	a5,t2,a5
8000445c:	0047a583          	lw	a1,4(a5)
80004460:	00150513          	addi	a0,a0,1
80004464:	00259613          	slli	a2,a1,0x2
80004468:	00c28733          	add	a4,t0,a2
8000446c:	00072683          	lw	a3,0(a4)
80004470:	fcd512e3          	bne	a0,a3,80004434 <_ZN5Dinic3DFSEii+0x50c>
80004474:	0087a483          	lw	s1,8(a5)
80004478:	00c7a503          	lw	a0,12(a5)
8000447c:	40a48533          	sub	a0,s1,a0
80004480:	05c12483          	lw	s1,92(sp)
80004484:	08a12223          	sw	a0,132(sp)
80004488:	00a4d463          	bge	s1,a0,80004490 <_ZN5Dinic3DFSEii+0x568>
8000448c:	08912223          	sw	s1,132(sp)
80004490:	01412503          	lw	a0,20(sp)
80004494:	46b50863          	beq	a0,a1,80004904 <_ZN5Dinic3DFSEii+0x9dc>
80004498:	08412583          	lw	a1,132(sp)
8000449c:	f8058ce3          	beqz	a1,80004434 <_ZN5Dinic3DFSEii+0x50c>
800044a0:	03812583          	lw	a1,56(sp)
800044a4:	06012a23          	sw	zero,116(sp)
800044a8:	00c58633          	add	a2,a1,a2
800044ac:	00062483          	lw	s1,0(a2)
800044b0:	fff00613          	li	a2,-1
800044b4:	f8c480e3          	beq	s1,a2,80004434 <_ZN5Dinic3DFSEii+0x50c>
800044b8:	0c812423          	sw	s0,200(sp)
800044bc:	0cf12223          	sw	a5,196(sp)
800044c0:	08412403          	lw	s0,132(sp)
800044c4:	0200006f          	j	800044e4 <_ZN5Dinic3DFSEii+0x5bc>
800044c8:	01832783          	lw	a5,24(t1)
800044cc:	00249493          	slli	s1,s1,0x2
800044d0:	fff00693          	li	a3,-1
800044d4:	009787b3          	add	a5,a5,s1
800044d8:	0007a483          	lw	s1,0(a5)
800044dc:	0ad48263          	beq	s1,a3,80004580 <_ZN5Dinic3DFSEii+0x658>
800044e0:	00072683          	lw	a3,0(a4)
800044e4:	00449793          	slli	a5,s1,0x4
800044e8:	00f387b3          	add	a5,t2,a5
800044ec:	0047a583          	lw	a1,4(a5)
800044f0:	00168613          	addi	a2,a3,1
800044f4:	00259693          	slli	a3,a1,0x2
800044f8:	00d286b3          	add	a3,t0,a3
800044fc:	0006a683          	lw	a3,0(a3)
80004500:	fcd614e3          	bne	a2,a3,800044c8 <_ZN5Dinic3DFSEii+0x5a0>
80004504:	0087a603          	lw	a2,8(a5)
80004508:	00c7a683          	lw	a3,12(a5)
8000450c:	00030513          	mv	a0,t1
80004510:	40d60633          	sub	a2,a2,a3
80004514:	3cc44863          	blt	s0,a2,800048e4 <_ZN5Dinic3DFSEii+0x9bc>
80004518:	0a612a23          	sw	t1,180(sp)
8000451c:	0a512823          	sw	t0,176(sp)
80004520:	0a712623          	sw	t2,172(sp)
80004524:	08e12223          	sw	a4,132(sp)
80004528:	0af12c23          	sw	a5,184(sp)
8000452c:	9fdff0ef          	jal	80003f28 <_ZN5Dinic3DFSEii>
80004530:	0ac12383          	lw	t2,172(sp)
80004534:	0014c693          	xori	a3,s1,1
80004538:	00469693          	slli	a3,a3,0x4
8000453c:	08412703          	lw	a4,132(sp)
80004540:	0b012283          	lw	t0,176(sp)
80004544:	0b412303          	lw	t1,180(sp)
80004548:	00d386b3          	add	a3,t2,a3
8000454c:	f6a05ee3          	blez	a0,800044c8 <_ZN5Dinic3DFSEii+0x5a0>
80004550:	0b812783          	lw	a5,184(sp)
80004554:	07412583          	lw	a1,116(sp)
80004558:	40a40433          	sub	s0,s0,a0
8000455c:	00c7a603          	lw	a2,12(a5)
80004560:	00a585b3          	add	a1,a1,a0
80004564:	06b12a23          	sw	a1,116(sp)
80004568:	00a60633          	add	a2,a2,a0
8000456c:	00c7a623          	sw	a2,12(a5)
80004570:	00c6a783          	lw	a5,12(a3)
80004574:	40a787b3          	sub	a5,a5,a0
80004578:	00f6a623          	sw	a5,12(a3)
8000457c:	f40416e3          	bnez	s0,800044c8 <_ZN5Dinic3DFSEii+0x5a0>
80004580:	0c412783          	lw	a5,196(sp)
80004584:	0c812403          	lw	s0,200(sp)
80004588:	07412703          	lw	a4,116(sp)
8000458c:	eae054e3          	blez	a4,80004434 <_ZN5Dinic3DFSEii+0x50c>
80004590:	00c7a703          	lw	a4,12(a5)
80004594:	07412603          	lw	a2,116(sp)
80004598:	05c12683          	lw	a3,92(sp)
8000459c:	00c70733          	add	a4,a4,a2
800045a0:	00e7a623          	sw	a4,12(a5)
800045a4:	00144793          	xori	a5,s0,1
800045a8:	00479793          	slli	a5,a5,0x4
800045ac:	00f387b3          	add	a5,t2,a5
800045b0:	00c7a703          	lw	a4,12(a5)
800045b4:	40c686b3          	sub	a3,a3,a2
800045b8:	04d12e23          	sw	a3,92(sp)
800045bc:	06012683          	lw	a3,96(sp)
800045c0:	40c70733          	sub	a4,a4,a2
800045c4:	00e7a623          	sw	a4,12(a5)
800045c8:	05c12783          	lw	a5,92(sp)
800045cc:	00c686b3          	add	a3,a3,a2
800045d0:	06d12023          	sw	a3,96(sp)
800045d4:	e60790e3          	bnez	a5,80004434 <_ZN5Dinic3DFSEii+0x50c>
800045d8:	0bc12283          	lw	t0,188(sp)
800045dc:	0c012703          	lw	a4,192(sp)
800045e0:	06012783          	lw	a5,96(sp)
800045e4:	daf056e3          	blez	a5,80004390 <_ZN5Dinic3DFSEii+0x468>
800045e8:	00c72783          	lw	a5,12(a4)
800045ec:	06012603          	lw	a2,96(sp)
800045f0:	05412683          	lw	a3,84(sp)
800045f4:	00c787b3          	add	a5,a5,a2
800045f8:	00f72623          	sw	a5,12(a4)
800045fc:	02812783          	lw	a5,40(sp)
80004600:	40c686b3          	sub	a3,a3,a2
80004604:	04d12a23          	sw	a3,84(sp)
80004608:	0017c793          	xori	a5,a5,1
8000460c:	00479793          	slli	a5,a5,0x4
80004610:	00f387b3          	add	a5,t2,a5
80004614:	00c7a703          	lw	a4,12(a5)
80004618:	05812683          	lw	a3,88(sp)
8000461c:	40c70733          	sub	a4,a4,a2
80004620:	00e7a623          	sw	a4,12(a5)
80004624:	05412783          	lw	a5,84(sp)
80004628:	00c686b3          	add	a3,a3,a2
8000462c:	04d12c23          	sw	a3,88(sp)
80004630:	d60790e3          	bnez	a5,80004390 <_ZN5Dinic3DFSEii+0x468>
80004634:	0a012583          	lw	a1,160(sp)
80004638:	0a412483          	lw	s1,164(sp)
8000463c:	0a812403          	lw	s0,168(sp)
80004640:	05812783          	lw	a5,88(sp)
80004644:	caf052e3          	blez	a5,800042e8 <_ZN5Dinic3DFSEii+0x3c0>
80004648:	05812683          	lw	a3,88(sp)
8000464c:	00c42783          	lw	a5,12(s0)
80004650:	04c12703          	lw	a4,76(sp)
80004654:	00d787b3          	add	a5,a5,a3
80004658:	00f42623          	sw	a5,12(s0)
8000465c:	02012783          	lw	a5,32(sp)
80004660:	40d70733          	sub	a4,a4,a3
80004664:	04e12623          	sw	a4,76(sp)
80004668:	08012703          	lw	a4,128(sp)
8000466c:	0017c793          	xori	a5,a5,1
80004670:	00479793          	slli	a5,a5,0x4
80004674:	00f387b3          	add	a5,t2,a5
80004678:	00d70733          	add	a4,a4,a3
8000467c:	08e12023          	sw	a4,128(sp)
80004680:	00c7a703          	lw	a4,12(a5)
80004684:	40d70733          	sub	a4,a4,a3
80004688:	00e7a623          	sw	a4,12(a5)
8000468c:	04c12783          	lw	a5,76(sp)
80004690:	c4079ce3          	bnez	a5,800042e8 <_ZN5Dinic3DFSEii+0x3c0>
80004694:	00030593          	mv	a1,t1
80004698:	09812503          	lw	a0,152(sp)
8000469c:	09c12403          	lw	s0,156(sp)
800046a0:	08012303          	lw	t1,128(sp)
800046a4:	b8605ee3          	blez	t1,80004240 <_ZN5Dinic3DFSEii+0x318>
800046a8:	04412703          	lw	a4,68(sp)
800046ac:	00c42783          	lw	a5,12(s0)
800046b0:	40670733          	sub	a4,a4,t1
800046b4:	04e12223          	sw	a4,68(sp)
800046b8:	05012703          	lw	a4,80(sp)
800046bc:	006787b3          	add	a5,a5,t1
800046c0:	00f42623          	sw	a5,12(s0)
800046c4:	00670733          	add	a4,a4,t1
800046c8:	04e12823          	sw	a4,80(sp)
800046cc:	04812703          	lw	a4,72(sp)
800046d0:	0014c793          	xori	a5,s1,1
800046d4:	00479793          	slli	a5,a5,0x4
800046d8:	00f707b3          	add	a5,a4,a5
800046dc:	00c7a703          	lw	a4,12(a5)
800046e0:	40670733          	sub	a4,a4,t1
800046e4:	00e7a623          	sw	a4,12(a5)
800046e8:	04412783          	lw	a5,68(sp)
800046ec:	b4079ae3          	bnez	a5,80004240 <_ZN5Dinic3DFSEii+0x318>
800046f0:	00058313          	mv	t1,a1
800046f4:	09412503          	lw	a0,148(sp)
800046f8:	04812583          	lw	a1,72(sp)
800046fc:	05012783          	lw	a5,80(sp)
80004700:	a8f058e3          	blez	a5,80004190 <_ZN5Dinic3DFSEii+0x268>
80004704:	05012683          	lw	a3,80(sp)
80004708:	03412703          	lw	a4,52(sp)
8000470c:	01c12783          	lw	a5,28(sp)
80004710:	40d70733          	sub	a4,a4,a3
80004714:	02e12a23          	sw	a4,52(sp)
80004718:	04012703          	lw	a4,64(sp)
8000471c:	00c7a783          	lw	a5,12(a5)
80004720:	00d70733          	add	a4,a4,a3
80004724:	04e12023          	sw	a4,64(sp)
80004728:	01c12703          	lw	a4,28(sp)
8000472c:	00d787b3          	add	a5,a5,a3
80004730:	00f72623          	sw	a5,12(a4)
80004734:	00c12783          	lw	a5,12(sp)
80004738:	0017c793          	xori	a5,a5,1
8000473c:	00479793          	slli	a5,a5,0x4
80004740:	00f587b3          	add	a5,a1,a5
80004744:	00c7a703          	lw	a4,12(a5)
80004748:	40d70733          	sub	a4,a4,a3
8000474c:	00e7a623          	sw	a4,12(a5)
80004750:	03412783          	lw	a5,52(sp)
80004754:	a2079ee3          	bnez	a5,80004190 <_ZN5Dinic3DFSEii+0x268>
80004758:	08812583          	lw	a1,136(sp)
8000475c:	08c12383          	lw	t2,140(sp)
80004760:	09012483          	lw	s1,144(sp)
80004764:	00030513          	mv	a0,t1
80004768:	04012783          	lw	a5,64(sp)
8000476c:	96f056e3          	blez	a5,800040d8 <_ZN5Dinic3DFSEii+0x1b0>
80004770:	04012703          	lw	a4,64(sp)
80004774:	04012683          	lw	a3,64(sp)
80004778:	01012783          	lw	a5,16(sp)
8000477c:	40e383b3          	sub	t2,t2,a4
80004780:	03012703          	lw	a4,48(sp)
80004784:	00c7a783          	lw	a5,12(a5)
80004788:	00d70733          	add	a4,a4,a3
8000478c:	02e12823          	sw	a4,48(sp)
80004790:	01012703          	lw	a4,16(sp)
80004794:	00d787b3          	add	a5,a5,a3
80004798:	00f72623          	sw	a5,12(a4)
8000479c:	00812703          	lw	a4,8(sp)
800047a0:	0015c793          	xori	a5,a1,1
800047a4:	00479793          	slli	a5,a5,0x4
800047a8:	00f707b3          	add	a5,a4,a5
800047ac:	00c7a703          	lw	a4,12(a5)
800047b0:	40d70733          	sub	a4,a4,a3
800047b4:	00e7a623          	sw	a4,12(a5)
800047b8:	920390e3          	bnez	t2,800040d8 <_ZN5Dinic3DFSEii+0x1b0>
800047bc:	00050313          	mv	t1,a0
800047c0:	07c12403          	lw	s0,124(sp)
800047c4:	07812503          	lw	a0,120(sp)
800047c8:	03012783          	lw	a5,48(sp)
800047cc:	86f052e3          	blez	a5,80004030 <_ZN5Dinic3DFSEii+0x108>
800047d0:	03012683          	lw	a3,48(sp)
800047d4:	01812703          	lw	a4,24(sp)
800047d8:	00c42783          	lw	a5,12(s0)
800047dc:	40d70733          	sub	a4,a4,a3
800047e0:	00e12c23          	sw	a4,24(sp)
800047e4:	02412703          	lw	a4,36(sp)
800047e8:	00d787b3          	add	a5,a5,a3
800047ec:	00f42623          	sw	a5,12(s0)
800047f0:	00412783          	lw	a5,4(sp)
800047f4:	00d70733          	add	a4,a4,a3
800047f8:	02e12223          	sw	a4,36(sp)
800047fc:	00812703          	lw	a4,8(sp)
80004800:	0017c793          	xori	a5,a5,1
80004804:	00479793          	slli	a5,a5,0x4
80004808:	00f707b3          	add	a5,a4,a5
8000480c:	00c7a703          	lw	a4,12(a5)
80004810:	40d70733          	sub	a4,a4,a3
80004814:	00e7a623          	sw	a4,12(a5)
80004818:	01812783          	lw	a5,24(sp)
8000481c:	80079ae3          	bnez	a5,80004030 <_ZN5Dinic3DFSEii+0x108>
80004820:	06412383          	lw	t2,100(sp)
80004824:	06812703          	lw	a4,104(sp)
80004828:	06c12403          	lw	s0,108(sp)
8000482c:	00030513          	mv	a0,t1
80004830:	02412783          	lw	a5,36(sp)
80004834:	f4f05a63          	blez	a5,80003f88 <_ZN5Dinic3DFSEii+0x60>
80004838:	02412683          	lw	a3,36(sp)
8000483c:	02412603          	lw	a2,36(sp)
80004840:	00c3a783          	lw	a5,12(t2)
80004844:	40d40433          	sub	s0,s0,a3
80004848:	02c12683          	lw	a3,44(sp)
8000484c:	00c787b3          	add	a5,a5,a2
80004850:	00f3a623          	sw	a5,12(t2)
80004854:	00c686b3          	add	a3,a3,a2
80004858:	02d12623          	sw	a3,44(sp)
8000485c:	00812683          	lw	a3,8(sp)
80004860:	00174793          	xori	a5,a4,1
80004864:	00479793          	slli	a5,a5,0x4
80004868:	00f687b3          	add	a5,a3,a5
8000486c:	00c7a683          	lw	a3,12(a5)
80004870:	40c686b3          	sub	a3,a3,a2
80004874:	00d7a623          	sw	a3,12(a5)
80004878:	f0041863          	bnez	s0,80003f88 <_ZN5Dinic3DFSEii+0x60>
8000487c:	0d012403          	lw	s0,208(sp)
80004880:	0cc12483          	lw	s1,204(sp)
80004884:	0d412083          	lw	ra,212(sp)
80004888:	02c12503          	lw	a0,44(sp)
8000488c:	0d810113          	addi	sp,sp,216
80004890:	00008067          	ret
80004894:	0d412083          	lw	ra,212(sp)
80004898:	02c12623          	sw	a2,44(sp)
8000489c:	02c12503          	lw	a0,44(sp)
800048a0:	0d810113          	addi	sp,sp,216
800048a4:	00008067          	ret
800048a8:	04712223          	sw	t2,68(sp)
800048ac:	951ff06f          	j	800041fc <_ZN5Dinic3DFSEii+0x2d4>
800048b0:	01812783          	lw	a5,24(sp)
800048b4:	02f12223          	sw	a5,36(sp)
800048b8:	f79ff06f          	j	80004830 <_ZN5Dinic3DFSEii+0x908>
800048bc:	02712823          	sw	t2,48(sp)
800048c0:	f09ff06f          	j	800047c8 <_ZN5Dinic3DFSEii+0x8a0>
800048c4:	03412783          	lw	a5,52(sp)
800048c8:	04f12023          	sw	a5,64(sp)
800048cc:	e9dff06f          	j	80004768 <_ZN5Dinic3DFSEii+0x840>
800048d0:	04412783          	lw	a5,68(sp)
800048d4:	04f12823          	sw	a5,80(sp)
800048d8:	e25ff06f          	j	800046fc <_ZN5Dinic3DFSEii+0x7d4>
800048dc:	04c12303          	lw	t1,76(sp)
800048e0:	dc5ff06f          	j	800046a4 <_ZN5Dinic3DFSEii+0x77c>
800048e4:	00040613          	mv	a2,s0
800048e8:	c31ff06f          	j	80004518 <_ZN5Dinic3DFSEii+0x5f0>
800048ec:	05412783          	lw	a5,84(sp)
800048f0:	04f12c23          	sw	a5,88(sp)
800048f4:	d4dff06f          	j	80004640 <_ZN5Dinic3DFSEii+0x718>
800048f8:	05c12783          	lw	a5,92(sp)
800048fc:	06f12023          	sw	a5,96(sp)
80004900:	ce1ff06f          	j	800045e0 <_ZN5Dinic3DFSEii+0x6b8>
80004904:	08412703          	lw	a4,132(sp)
80004908:	06e12a23          	sw	a4,116(sp)
8000490c:	c7dff06f          	j	80004588 <_ZN5Dinic3DFSEii+0x660>

80004910 <bench_dinic_prepare>:
80004910:	00003797          	auipc	a5,0x3
80004914:	25c7a783          	lw	a5,604(a5) # 80007b6c <setting>
80004918:	fe010113          	addi	sp,sp,-32
8000491c:	00112e23          	sw	ra,28(sp)
80004920:	0007a783          	lw	a5,0(a5)
80004924:	00812c23          	sw	s0,24(sp)
80004928:	00912a23          	sw	s1,20(sp)
8000492c:	00003417          	auipc	s0,0x3
80004930:	2a840413          	addi	s0,s0,680 # 80007bd4 <_ZL1N>
80004934:	00100513          	li	a0,1
80004938:	00f42023          	sw	a5,0(s0)
8000493c:	961fd0ef          	jal	8000229c <bench_srand>
80004940:	00042783          	lw	a5,0(s0)
80004944:	02c00513          	li	a0,44
80004948:	00f12623          	sw	a5,12(sp)
8000494c:	8adfd0ef          	jal	800021f8 <bench_alloc>
80004950:	00042403          	lw	s0,0(s0)
80004954:	00003717          	auipc	a4,0x3
80004958:	27c70713          	addi	a4,a4,636 # 80007bd0 <_ZL1G>
8000495c:	00a72023          	sw	a0,0(a4)
80004960:	00040593          	mv	a1,s0
80004964:	00140713          	addi	a4,s0,1
80004968:	00a12023          	sw	a0,0(sp)
8000496c:	00040513          	mv	a0,s0
80004970:	00171493          	slli	s1,a4,0x1
80004974:	00e12423          	sw	a4,8(sp)
80004978:	495000ef          	jal	8000560c <__mulsi3>
8000497c:	00141793          	slli	a5,s0,0x1
80004980:	00f507b3          	add	a5,a0,a5
80004984:	00579513          	slli	a0,a5,0x5
80004988:	00f12223          	sw	a5,4(sp)
8000498c:	86dfd0ef          	jal	800021f8 <bench_alloc>
80004990:	00812703          	lw	a4,8(sp)
80004994:	00012783          	lw	a5,0(sp)
80004998:	00371413          	slli	s0,a4,0x3
8000499c:	00a7a823          	sw	a0,16(a5)
800049a0:	00040513          	mv	a0,s0
800049a4:	855fd0ef          	jal	800021f8 <bench_alloc>
800049a8:	00012783          	lw	a5,0(sp)
800049ac:	00a7aa23          	sw	a0,20(a5)
800049b0:	00412783          	lw	a5,4(sp)
800049b4:	00379513          	slli	a0,a5,0x3
800049b8:	841fd0ef          	jal	800021f8 <bench_alloc>
800049bc:	00012783          	lw	a5,0(sp)
800049c0:	00a7ac23          	sw	a0,24(a5)
800049c4:	00048513          	mv	a0,s1
800049c8:	831fd0ef          	jal	800021f8 <bench_alloc>
800049cc:	00012783          	lw	a5,0(sp)
800049d0:	02a7a423          	sw	a0,40(a5)
800049d4:	00040513          	mv	a0,s0
800049d8:	821fd0ef          	jal	800021f8 <bench_alloc>
800049dc:	00012783          	lw	a5,0(sp)
800049e0:	00a7ae23          	sw	a0,28(a5)
800049e4:	00040513          	mv	a0,s0
800049e8:	811fd0ef          	jal	800021f8 <bench_alloc>
800049ec:	00012783          	lw	a5,0(sp)
800049f0:	02a7a023          	sw	a0,32(a5)
800049f4:	00040513          	mv	a0,s0
800049f8:	801fd0ef          	jal	800021f8 <bench_alloc>
800049fc:	00012783          	lw	a5,0(sp)
80004a00:	0097a023          	sw	s1,0(a5)
80004a04:	02a7a223          	sw	a0,36(a5)
80004a08:	02905063          	blez	s1,80004a28 <bench_dinic_prepare+0x118>
80004a0c:	00012783          	lw	a5,0(sp)
80004a10:	fff00713          	li	a4,-1
80004a14:	0147a783          	lw	a5,20(a5)
80004a18:	00f40433          	add	s0,s0,a5
80004a1c:	00e7a023          	sw	a4,0(a5)
80004a20:	00478793          	addi	a5,a5,4
80004a24:	fe879ce3          	bne	a5,s0,80004a1c <bench_dinic_prepare+0x10c>
80004a28:	00012783          	lw	a5,0(sp)
80004a2c:	00003497          	auipc	s1,0x3
80004a30:	1a84a483          	lw	s1,424(s1) # 80007bd4 <_ZL1N>
80004a34:	0007a223          	sw	zero,4(a5)
80004a38:	2a905e63          	blez	s1,80004cf4 <bench_dinic_prepare+0x3e4>
80004a3c:	00c12783          	lw	a5,12(sp)
80004a40:	00000313          	li	t1,0
80004a44:	00048293          	mv	t0,s1
80004a48:	00179793          	slli	a5,a5,0x1
80004a4c:	00f12623          	sw	a5,12(sp)
80004a50:	00178793          	addi	a5,a5,1
80004a54:	00f12823          	sw	a5,16(sp)
80004a58:	00231793          	slli	a5,t1,0x2
80004a5c:	00f12423          	sw	a5,8(sp)
80004a60:	00612223          	sw	t1,4(sp)
80004a64:	00000613          	li	a2,0
80004a68:	00028493          	mv	s1,t0
80004a6c:	00c12023          	sw	a2,0(sp)
80004a70:	00003417          	auipc	s0,0x3
80004a74:	16042403          	lw	s0,352(s0) # 80007bd0 <_ZL1G>
80004a78:	839fd0ef          	jal	800022b0 <bench_rand>
80004a7c:	00a00593          	li	a1,10
80004a80:	329000ef          	jal	800055a8 <__umodsi3>
80004a84:	00012603          	lw	a2,0(sp)
80004a88:	00c48333          	add	t1,s1,a2
80004a8c:	00231593          	slli	a1,t1,0x2
80004a90:	00003497          	auipc	s1,0x3
80004a94:	1444a483          	lw	s1,324(s1) # 80007bd4 <_ZL1N>
80004a98:	00160613          	addi	a2,a2,1
80004a9c:	08050c63          	beqz	a0,80004b34 <bench_dinic_prepare+0x224>
80004aa0:	00442703          	lw	a4,4(s0)
80004aa4:	01042783          	lw	a5,16(s0)
80004aa8:	00412283          	lw	t0,4(sp)
80004aac:	00471693          	slli	a3,a4,0x4
80004ab0:	00d786b3          	add	a3,a5,a3
80004ab4:	01442383          	lw	t2,20(s0)
80004ab8:	0056a023          	sw	t0,0(a3)
80004abc:	00a6a423          	sw	a0,8(a3)
80004ac0:	0066a223          	sw	t1,4(a3)
80004ac4:	0006a623          	sw	zero,12(a3)
80004ac8:	00812683          	lw	a3,8(sp)
80004acc:	00b385b3          	add	a1,t2,a1
80004ad0:	00271713          	slli	a4,a4,0x2
80004ad4:	00d38533          	add	a0,t2,a3
80004ad8:	01842683          	lw	a3,24(s0)
80004adc:	00052383          	lw	t2,0(a0)
80004ae0:	00e68733          	add	a4,a3,a4
80004ae4:	00772023          	sw	t2,0(a4)
80004ae8:	00442703          	lw	a4,4(s0)
80004aec:	00170393          	addi	t2,a4,1
80004af0:	00742223          	sw	t2,4(s0)
80004af4:	00e52023          	sw	a4,0(a0)
80004af8:	00442703          	lw	a4,4(s0)
80004afc:	00471513          	slli	a0,a4,0x4
80004b00:	00a787b3          	add	a5,a5,a0
80004b04:	0067a023          	sw	t1,0(a5)
80004b08:	0057a223          	sw	t0,4(a5)
80004b0c:	0007a423          	sw	zero,8(a5)
80004b10:	0007a623          	sw	zero,12(a5)
80004b14:	0005a783          	lw	a5,0(a1)
80004b18:	00271713          	slli	a4,a4,0x2
80004b1c:	00e686b3          	add	a3,a3,a4
80004b20:	00f6a023          	sw	a5,0(a3)
80004b24:	00442783          	lw	a5,4(s0)
80004b28:	00178713          	addi	a4,a5,1
80004b2c:	00e42223          	sw	a4,4(s0)
80004b30:	00f5a023          	sw	a5,0(a1)
80004b34:	f2964ce3          	blt	a2,s1,80004a6c <bench_dinic_prepare+0x15c>
80004b38:	00412303          	lw	t1,4(sp)
80004b3c:	00048293          	mv	t0,s1
80004b40:	00130313          	addi	t1,t1,1
80004b44:	f0934ae3          	blt	t1,s1,80004a58 <bench_dinic_prepare+0x148>
80004b48:	1a905663          	blez	s1,80004cf4 <bench_dinic_prepare+0x3e4>
80004b4c:	00c12783          	lw	a5,12(sp)
80004b50:	00000493          	li	s1,0
80004b54:	00279793          	slli	a5,a5,0x2
80004b58:	00f12423          	sw	a5,8(sp)
80004b5c:	01012783          	lw	a5,16(sp)
80004b60:	00279793          	slli	a5,a5,0x2
80004b64:	00f12223          	sw	a5,4(sp)
80004b68:	00003417          	auipc	s0,0x3
80004b6c:	06840413          	addi	s0,s0,104 # 80007bd0 <_ZL1G>
80004b70:	00042783          	lw	a5,0(s0)
80004b74:	00f12023          	sw	a5,0(sp)
80004b78:	f38fd0ef          	jal	800022b0 <bench_rand>
80004b7c:	3e800593          	li	a1,1000
80004b80:	229000ef          	jal	800055a8 <__umodsi3>
80004b84:	00003317          	auipc	t1,0x3
80004b88:	05032303          	lw	t1,80(t1) # 80007bd4 <_ZL1N>
80004b8c:	00042403          	lw	s0,0(s0)
80004b90:	00249593          	slli	a1,s1,0x2
80004b94:	08050e63          	beqz	a0,80004c30 <bench_dinic_prepare+0x320>
80004b98:	00012783          	lw	a5,0(sp)
80004b9c:	00c12383          	lw	t2,12(sp)
80004ba0:	0047a683          	lw	a3,4(a5)
80004ba4:	0107a703          	lw	a4,16(a5)
80004ba8:	0147a283          	lw	t0,20(a5)
80004bac:	00469613          	slli	a2,a3,0x4
80004bb0:	00c70633          	add	a2,a4,a2
80004bb4:	00762023          	sw	t2,0(a2)
80004bb8:	00a62423          	sw	a0,8(a2)
80004bbc:	00962223          	sw	s1,4(a2)
80004bc0:	00062623          	sw	zero,12(a2)
80004bc4:	00812603          	lw	a2,8(sp)
80004bc8:	00b285b3          	add	a1,t0,a1
80004bcc:	00269693          	slli	a3,a3,0x2
80004bd0:	00c28533          	add	a0,t0,a2
80004bd4:	0187a603          	lw	a2,24(a5)
80004bd8:	00052283          	lw	t0,0(a0)
80004bdc:	00d606b3          	add	a3,a2,a3
80004be0:	0056a023          	sw	t0,0(a3)
80004be4:	0047a683          	lw	a3,4(a5)
80004be8:	00168293          	addi	t0,a3,1
80004bec:	0057a223          	sw	t0,4(a5)
80004bf0:	00d52023          	sw	a3,0(a0)
80004bf4:	0047a683          	lw	a3,4(a5)
80004bf8:	00469513          	slli	a0,a3,0x4
80004bfc:	00a70733          	add	a4,a4,a0
80004c00:	00972023          	sw	s1,0(a4)
80004c04:	00772223          	sw	t2,4(a4)
80004c08:	00072423          	sw	zero,8(a4)
80004c0c:	00072623          	sw	zero,12(a4)
80004c10:	0005a703          	lw	a4,0(a1)
80004c14:	00269693          	slli	a3,a3,0x2
80004c18:	00d60633          	add	a2,a2,a3
80004c1c:	00e62023          	sw	a4,0(a2)
80004c20:	0047a703          	lw	a4,4(a5)
80004c24:	00170693          	addi	a3,a4,1
80004c28:	00d7a223          	sw	a3,4(a5)
80004c2c:	00e5a023          	sw	a4,0(a1)
80004c30:	00612023          	sw	t1,0(sp)
80004c34:	e7cfd0ef          	jal	800022b0 <bench_rand>
80004c38:	3e800593          	li	a1,1000
80004c3c:	16d000ef          	jal	800055a8 <__umodsi3>
80004c40:	00012303          	lw	t1,0(sp)
80004c44:	00003297          	auipc	t0,0x3
80004c48:	f902a283          	lw	t0,-112(t0) # 80007bd4 <_ZL1N>
80004c4c:	009307b3          	add	a5,t1,s1
80004c50:	00279313          	slli	t1,a5,0x2
80004c54:	00148493          	addi	s1,s1,1
80004c58:	08050c63          	beqz	a0,80004cf0 <bench_dinic_prepare+0x3e0>
80004c5c:	00442683          	lw	a3,4(s0)
80004c60:	01042703          	lw	a4,16(s0)
80004c64:	01442583          	lw	a1,20(s0)
80004c68:	01012383          	lw	t2,16(sp)
80004c6c:	00469613          	slli	a2,a3,0x4
80004c70:	00c70633          	add	a2,a4,a2
80004c74:	00f62023          	sw	a5,0(a2)
80004c78:	00762223          	sw	t2,4(a2)
80004c7c:	00a62423          	sw	a0,8(a2)
80004c80:	00062623          	sw	zero,12(a2)
80004c84:	00658333          	add	t1,a1,t1
80004c88:	01842603          	lw	a2,24(s0)
80004c8c:	00032503          	lw	a0,0(t1)
80004c90:	00269693          	slli	a3,a3,0x2
80004c94:	00d606b3          	add	a3,a2,a3
80004c98:	00a6a023          	sw	a0,0(a3)
80004c9c:	00442683          	lw	a3,4(s0)
80004ca0:	00412503          	lw	a0,4(sp)
80004ca4:	00a585b3          	add	a1,a1,a0
80004ca8:	00168513          	addi	a0,a3,1
80004cac:	00a42223          	sw	a0,4(s0)
80004cb0:	00d32023          	sw	a3,0(t1)
80004cb4:	00442683          	lw	a3,4(s0)
80004cb8:	00469513          	slli	a0,a3,0x4
80004cbc:	00a70733          	add	a4,a4,a0
80004cc0:	00772023          	sw	t2,0(a4)
80004cc4:	00f72223          	sw	a5,4(a4)
80004cc8:	00072423          	sw	zero,8(a4)
80004ccc:	00072623          	sw	zero,12(a4)
80004cd0:	0005a783          	lw	a5,0(a1)
80004cd4:	00269693          	slli	a3,a3,0x2
80004cd8:	00d60633          	add	a2,a2,a3
80004cdc:	00f62023          	sw	a5,0(a2)
80004ce0:	00442783          	lw	a5,4(s0)
80004ce4:	00178713          	addi	a4,a5,1
80004ce8:	00e42223          	sw	a4,4(s0)
80004cec:	00f5a023          	sw	a5,0(a1)
80004cf0:	e654cce3          	blt	s1,t0,80004b68 <bench_dinic_prepare+0x258>
80004cf4:	01c12083          	lw	ra,28(sp)
80004cf8:	01812403          	lw	s0,24(sp)
80004cfc:	01412483          	lw	s1,20(sp)
80004d00:	02010113          	addi	sp,sp,32
80004d04:	00008067          	ret

80004d08 <bench_dinic_run>:
80004d08:	00003797          	auipc	a5,0x3
80004d0c:	ecc7a783          	lw	a5,-308(a5) # 80007bd4 <_ZL1N>
80004d10:	f8410113          	addi	sp,sp,-124
80004d14:	00003517          	auipc	a0,0x3
80004d18:	ebc52503          	lw	a0,-324(a0) # 80007bd0 <_ZL1G>
80004d1c:	00179713          	slli	a4,a5,0x1
80004d20:	04e12023          	sw	a4,64(sp)
80004d24:	06812a23          	sw	s0,116(sp)
80004d28:	00379413          	slli	s0,a5,0x3
80004d2c:	04012783          	lw	a5,64(sp)
80004d30:	06112c23          	sw	ra,120(sp)
80004d34:	06912823          	sw	s1,112(sp)
80004d38:	00170713          	addi	a4,a4,1
80004d3c:	00e52623          	sw	a4,12(a0)
80004d40:	02452703          	lw	a4,36(a0)
80004d44:	00f52423          	sw	a5,8(a0)
80004d48:	02852783          	lw	a5,40(a0)
80004d4c:	01452683          	lw	a3,20(a0)
80004d50:	00e12623          	sw	a4,12(sp)
80004d54:	01c52703          	lw	a4,28(a0)
80004d58:	00f12823          	sw	a5,16(sp)
80004d5c:	00052783          	lw	a5,0(a0)
80004d60:	00068613          	mv	a2,a3
80004d64:	00e12023          	sw	a4,0(sp)
80004d68:	00040693          	mv	a3,s0
80004d6c:	00050293          	mv	t0,a0
80004d70:	00000413          	li	s0,0
80004d74:	01012583          	lw	a1,16(sp)
80004d78:	00058713          	mv	a4,a1
80004d7c:	00f585b3          	add	a1,a1,a5
80004d80:	00f05863          	blez	a5,80004d90 <bench_dinic_run+0x88>
80004d84:	00070023          	sb	zero,0(a4)
80004d88:	00170713          	addi	a4,a4,1
80004d8c:	fee59ce3          	bne	a1,a4,80004d84 <bench_dinic_run+0x7c>
80004d90:	0082a583          	lw	a1,8(t0)
80004d94:	00c12503          	lw	a0,12(sp)
80004d98:	00100713          	li	a4,1
80004d9c:	00259793          	slli	a5,a1,0x2
80004da0:	00b52023          	sw	a1,0(a0)
80004da4:	00012583          	lw	a1,0(sp)
80004da8:	01012503          	lw	a0,16(sp)
80004dac:	00070313          	mv	t1,a4
80004db0:	00f587b3          	add	a5,a1,a5
80004db4:	0007a023          	sw	zero,0(a5)
80004db8:	0082a783          	lw	a5,8(t0)
80004dbc:	00000593          	li	a1,0
80004dc0:	fff00393          	li	t2,-1
80004dc4:	00f507b3          	add	a5,a0,a5
80004dc8:	00e78023          	sb	a4,0(a5)
80004dcc:	02812023          	sw	s0,32(sp)
80004dd0:	00c12703          	lw	a4,12(sp)
80004dd4:	00259793          	slli	a5,a1,0x2
80004dd8:	00f707b3          	add	a5,a4,a5
80004ddc:	0007a703          	lw	a4,0(a5)
80004de0:	00271713          	slli	a4,a4,0x2
80004de4:	00e607b3          	add	a5,a2,a4
80004de8:	0007a783          	lw	a5,0(a5)
80004dec:	0a778663          	beq	a5,t2,80004e98 <bench_dinic_run+0x190>
80004df0:	00012483          	lw	s1,0(sp)
80004df4:	0102a403          	lw	s0,16(t0)
80004df8:	0182a503          	lw	a0,24(t0)
80004dfc:	00e48733          	add	a4,s1,a4
80004e00:	00e12a23          	sw	a4,20(sp)
80004e04:	00812423          	sw	s0,8(sp)
80004e08:	00812403          	lw	s0,8(sp)
80004e0c:	00479713          	slli	a4,a5,0x4
80004e10:	00279793          	slli	a5,a5,0x2
80004e14:	00f507b3          	add	a5,a0,a5
80004e18:	00e40733          	add	a4,s0,a4
80004e1c:	00472403          	lw	s0,4(a4)
80004e20:	00f12223          	sw	a5,4(sp)
80004e24:	01012783          	lw	a5,16(sp)
80004e28:	008787b3          	add	a5,a5,s0
80004e2c:	0007c483          	lbu	s1,0(a5)
80004e30:	04049e63          	bnez	s1,80004e8c <bench_dinic_run+0x184>
80004e34:	00012483          	lw	s1,0(sp)
80004e38:	00241413          	slli	s0,s0,0x2
80004e3c:	00848433          	add	s0,s1,s0
80004e40:	00c12483          	lw	s1,12(sp)
80004e44:	00812c23          	sw	s0,24(sp)
80004e48:	00231413          	slli	s0,t1,0x2
80004e4c:	00848433          	add	s0,s1,s0
80004e50:	00812e23          	sw	s0,28(sp)
80004e54:	00872483          	lw	s1,8(a4)
80004e58:	00c72403          	lw	s0,12(a4)
80004e5c:	02945863          	bge	s0,s1,80004e8c <bench_dinic_run+0x184>
80004e60:	00100413          	li	s0,1
80004e64:	00878023          	sb	s0,0(a5)
80004e68:	01412783          	lw	a5,20(sp)
80004e6c:	01812403          	lw	s0,24(sp)
80004e70:	00130313          	addi	t1,t1,1
80004e74:	0007a783          	lw	a5,0(a5)
80004e78:	00178793          	addi	a5,a5,1
80004e7c:	00f42023          	sw	a5,0(s0)
80004e80:	00472783          	lw	a5,4(a4)
80004e84:	01c12703          	lw	a4,28(sp)
80004e88:	00f72023          	sw	a5,0(a4)
80004e8c:	00412783          	lw	a5,4(sp)
80004e90:	0007a783          	lw	a5,0(a5)
80004e94:	f6779ae3          	bne	a5,t2,80004e08 <bench_dinic_run+0x100>
80004e98:	00158593          	addi	a1,a1,1
80004e9c:	f2b31ae3          	bne	t1,a1,80004dd0 <bench_dinic_run+0xc8>
80004ea0:	00c2a783          	lw	a5,12(t0)
80004ea4:	02012403          	lw	s0,32(sp)
80004ea8:	00f12a23          	sw	a5,20(sp)
80004eac:	01412703          	lw	a4,20(sp)
80004eb0:	01012783          	lw	a5,16(sp)
80004eb4:	00e787b3          	add	a5,a5,a4
80004eb8:	0007c783          	lbu	a5,0(a5)
80004ebc:	4a078463          	beqz	a5,80005364 <bench_dinic_run+0x65c>
80004ec0:	0002a783          	lw	a5,0(t0)
80004ec4:	02f05a63          	blez	a5,80004ef8 <bench_dinic_run+0x1f0>
80004ec8:	0202a503          	lw	a0,32(t0)
80004ecc:	00060593          	mv	a1,a2
80004ed0:	00000713          	li	a4,0
80004ed4:	0005a783          	lw	a5,0(a1)
80004ed8:	00170713          	addi	a4,a4,1
80004edc:	00458593          	addi	a1,a1,4
80004ee0:	00f52023          	sw	a5,0(a0)
80004ee4:	0002a783          	lw	a5,0(t0)
80004ee8:	00450513          	addi	a0,a0,4
80004eec:	fef744e3          	blt	a4,a5,80004ed4 <bench_dinic_run+0x1cc>
80004ef0:	00c2a703          	lw	a4,12(t0)
80004ef4:	00e12a23          	sw	a4,20(sp)
80004ef8:	04012703          	lw	a4,64(sp)
80004efc:	01412583          	lw	a1,20(sp)
80004f00:	42b70e63          	beq	a4,a1,8000533c <bench_dinic_run+0x634>
80004f04:	0202a703          	lw	a4,32(t0)
80004f08:	02e12823          	sw	a4,48(sp)
80004f0c:	03012583          	lw	a1,48(sp)
80004f10:	fff00713          	li	a4,-1
80004f14:	00d585b3          	add	a1,a1,a3
80004f18:	0005a583          	lw	a1,0(a1)
80004f1c:	00b12223          	sw	a1,4(sp)
80004f20:	e4e58ae3          	beq	a1,a4,80004d74 <bench_dinic_run+0x6c>
80004f24:	00012783          	lw	a5,0(sp)
80004f28:	0102a503          	lw	a0,16(t0)
80004f2c:	003f45b7          	lui	a1,0x3f4
80004f30:	00d78333          	add	t1,a5,a3
80004f34:	00612c23          	sw	t1,24(sp)
80004f38:	02d12e23          	sw	a3,60(sp)
80004f3c:	f3f58593          	addi	a1,a1,-193 # 3f3f3f <_entry_offset+0x3f3f3f>
80004f40:	02012a23          	sw	zero,52(sp)
80004f44:	00040493          	mv	s1,s0
80004f48:	00050393          	mv	t2,a0
80004f4c:	00028313          	mv	t1,t0
80004f50:	0240006f          	j	80004f74 <bench_dinic_run+0x26c>
80004f54:	00412783          	lw	a5,4(sp)
80004f58:	01832683          	lw	a3,24(t1)
80004f5c:	00279713          	slli	a4,a5,0x2
80004f60:	00e686b3          	add	a3,a3,a4
80004f64:	0006a703          	lw	a4,0(a3)
80004f68:	fff00793          	li	a5,-1
80004f6c:	00e12223          	sw	a4,4(sp)
80004f70:	38f70863          	beq	a4,a5,80005300 <bench_dinic_run+0x5f8>
80004f74:	00412783          	lw	a5,4(sp)
80004f78:	00012603          	lw	a2,0(sp)
80004f7c:	00479793          	slli	a5,a5,0x4
80004f80:	00f38433          	add	s0,t2,a5
80004f84:	00442703          	lw	a4,4(s0)
80004f88:	01812783          	lw	a5,24(sp)
80004f8c:	0007a683          	lw	a3,0(a5)
80004f90:	00271793          	slli	a5,a4,0x2
80004f94:	00f602b3          	add	t0,a2,a5
80004f98:	0002a503          	lw	a0,0(t0)
80004f9c:	00168693          	addi	a3,a3,1
80004fa0:	faa69ae3          	bne	a3,a0,80004f54 <bench_dinic_run+0x24c>
80004fa4:	00842603          	lw	a2,8(s0)
80004fa8:	00c42683          	lw	a3,12(s0)
80004fac:	40d606b3          	sub	a3,a2,a3
80004fb0:	00d12623          	sw	a3,12(sp)
80004fb4:	00d5d463          	bge	a1,a3,80004fbc <bench_dinic_run+0x2b4>
80004fb8:	00b12623          	sw	a1,12(sp)
80004fbc:	01412683          	lw	a3,20(sp)
80004fc0:	36d70863          	beq	a4,a3,80005330 <bench_dinic_run+0x628>
80004fc4:	00c12703          	lw	a4,12(sp)
80004fc8:	f80706e3          	beqz	a4,80004f54 <bench_dinic_run+0x24c>
80004fcc:	03012703          	lw	a4,48(sp)
80004fd0:	00012e23          	sw	zero,28(sp)
80004fd4:	00f707b3          	add	a5,a4,a5
80004fd8:	0007a603          	lw	a2,0(a5)
80004fdc:	fff00793          	li	a5,-1
80004fe0:	f6f60ae3          	beq	a2,a5,80004f54 <bench_dinic_run+0x24c>
80004fe4:	04812223          	sw	s0,68(sp)
80004fe8:	04b12423          	sw	a1,72(sp)
80004fec:	00c12423          	sw	a2,8(sp)
80004ff0:	0280006f          	j	80005018 <bench_dinic_run+0x310>
80004ff4:	00812703          	lw	a4,8(sp)
80004ff8:	01832783          	lw	a5,24(t1)
80004ffc:	00271693          	slli	a3,a4,0x2
80005000:	00d787b3          	add	a5,a5,a3
80005004:	0007a783          	lw	a5,0(a5)
80005008:	fff00713          	li	a4,-1
8000500c:	00f12423          	sw	a5,8(sp)
80005010:	28e78e63          	beq	a5,a4,800052ac <bench_dinic_run+0x5a4>
80005014:	0002a503          	lw	a0,0(t0)
80005018:	00812783          	lw	a5,8(sp)
8000501c:	00012583          	lw	a1,0(sp)
80005020:	00150613          	addi	a2,a0,1
80005024:	00479793          	slli	a5,a5,0x4
80005028:	00f38733          	add	a4,t2,a5
8000502c:	00472683          	lw	a3,4(a4)
80005030:	00269793          	slli	a5,a3,0x2
80005034:	00f585b3          	add	a1,a1,a5
80005038:	0005a503          	lw	a0,0(a1)
8000503c:	faa61ce3          	bne	a2,a0,80004ff4 <bench_dinic_run+0x2ec>
80005040:	00872403          	lw	s0,8(a4)
80005044:	00c72603          	lw	a2,12(a4)
80005048:	40c40633          	sub	a2,s0,a2
8000504c:	00c12403          	lw	s0,12(sp)
80005050:	02c12023          	sw	a2,32(sp)
80005054:	00c45463          	bge	s0,a2,8000505c <bench_dinic_run+0x354>
80005058:	02812023          	sw	s0,32(sp)
8000505c:	01412603          	lw	a2,20(sp)
80005060:	2ec68663          	beq	a3,a2,8000534c <bench_dinic_run+0x644>
80005064:	02012683          	lw	a3,32(sp)
80005068:	f80686e3          	beqz	a3,80004ff4 <bench_dinic_run+0x2ec>
8000506c:	03012683          	lw	a3,48(sp)
80005070:	02012223          	sw	zero,36(sp)
80005074:	00f687b3          	add	a5,a3,a5
80005078:	0007a403          	lw	s0,0(a5)
8000507c:	fff00793          	li	a5,-1
80005080:	f6f40ae3          	beq	s0,a5,80004ff4 <bench_dinic_run+0x2ec>
80005084:	04512e23          	sw	t0,92(sp)
80005088:	04912c23          	sw	s1,88(sp)
8000508c:	00012283          	lw	t0,0(sp)
80005090:	06e12023          	sw	a4,96(sp)
80005094:	02b12423          	sw	a1,40(sp)
80005098:	0240006f          	j	800050bc <bench_dinic_run+0x3b4>
8000509c:	01832783          	lw	a5,24(t1)
800050a0:	00241413          	slli	s0,s0,0x2
800050a4:	fff00713          	li	a4,-1
800050a8:	008787b3          	add	a5,a5,s0
800050ac:	0007a403          	lw	s0,0(a5)
800050b0:	18e40e63          	beq	s0,a4,8000524c <bench_dinic_run+0x544>
800050b4:	02812783          	lw	a5,40(sp)
800050b8:	0007a503          	lw	a0,0(a5)
800050bc:	00441793          	slli	a5,s0,0x4
800050c0:	00f387b3          	add	a5,t2,a5
800050c4:	0047a583          	lw	a1,4(a5)
800050c8:	00150513          	addi	a0,a0,1
800050cc:	00259613          	slli	a2,a1,0x2
800050d0:	00c28733          	add	a4,t0,a2
800050d4:	00072683          	lw	a3,0(a4)
800050d8:	fcd512e3          	bne	a0,a3,8000509c <bench_dinic_run+0x394>
800050dc:	0087a483          	lw	s1,8(a5)
800050e0:	00c7a503          	lw	a0,12(a5)
800050e4:	40a48533          	sub	a0,s1,a0
800050e8:	02012483          	lw	s1,32(sp)
800050ec:	02a12c23          	sw	a0,56(sp)
800050f0:	00a4d463          	bge	s1,a0,800050f8 <bench_dinic_run+0x3f0>
800050f4:	02912c23          	sw	s1,56(sp)
800050f8:	01412503          	lw	a0,20(sp)
800050fc:	24a58e63          	beq	a1,a0,80005358 <bench_dinic_run+0x650>
80005100:	03812583          	lw	a1,56(sp)
80005104:	f8058ce3          	beqz	a1,8000509c <bench_dinic_run+0x394>
80005108:	03012583          	lw	a1,48(sp)
8000510c:	02012623          	sw	zero,44(sp)
80005110:	00c58633          	add	a2,a1,a2
80005114:	00062483          	lw	s1,0(a2)
80005118:	fff00613          	li	a2,-1
8000511c:	f8c480e3          	beq	s1,a2,8000509c <bench_dinic_run+0x394>
80005120:	06812423          	sw	s0,104(sp)
80005124:	06f12623          	sw	a5,108(sp)
80005128:	00030413          	mv	s0,t1
8000512c:	03812303          	lw	t1,56(sp)
80005130:	0200006f          	j	80005150 <bench_dinic_run+0x448>
80005134:	01842783          	lw	a5,24(s0)
80005138:	00249493          	slli	s1,s1,0x2
8000513c:	fff00693          	li	a3,-1
80005140:	009787b3          	add	a5,a5,s1
80005144:	0007a483          	lw	s1,0(a5)
80005148:	0ad48463          	beq	s1,a3,800051f0 <bench_dinic_run+0x4e8>
8000514c:	00072683          	lw	a3,0(a4)
80005150:	00449793          	slli	a5,s1,0x4
80005154:	00f387b3          	add	a5,t2,a5
80005158:	0047a583          	lw	a1,4(a5)
8000515c:	00168613          	addi	a2,a3,1
80005160:	00259693          	slli	a3,a1,0x2
80005164:	00d286b3          	add	a3,t0,a3
80005168:	0006a683          	lw	a3,0(a3)
8000516c:	fcd614e3          	bne	a2,a3,80005134 <bench_dinic_run+0x42c>
80005170:	0087a683          	lw	a3,8(a5)
80005174:	00c7a603          	lw	a2,12(a5)
80005178:	00040513          	mv	a0,s0
8000517c:	40c68633          	sub	a2,a3,a2
80005180:	00c35463          	bge	t1,a2,80005188 <bench_dinic_run+0x480>
80005184:	00030613          	mv	a2,t1
80005188:	04512a23          	sw	t0,84(sp)
8000518c:	04712823          	sw	t2,80(sp)
80005190:	04612623          	sw	t1,76(sp)
80005194:	02e12c23          	sw	a4,56(sp)
80005198:	06f12223          	sw	a5,100(sp)
8000519c:	d8dfe0ef          	jal	80003f28 <_ZN5Dinic3DFSEii>
800051a0:	05012383          	lw	t2,80(sp)
800051a4:	0014c693          	xori	a3,s1,1
800051a8:	00469693          	slli	a3,a3,0x4
800051ac:	03812703          	lw	a4,56(sp)
800051b0:	04c12303          	lw	t1,76(sp)
800051b4:	05412283          	lw	t0,84(sp)
800051b8:	00d386b3          	add	a3,t2,a3
800051bc:	f6a05ce3          	blez	a0,80005134 <bench_dinic_run+0x42c>
800051c0:	06412783          	lw	a5,100(sp)
800051c4:	02c12583          	lw	a1,44(sp)
800051c8:	40a30333          	sub	t1,t1,a0
800051cc:	00c7a603          	lw	a2,12(a5)
800051d0:	00a585b3          	add	a1,a1,a0
800051d4:	02b12623          	sw	a1,44(sp)
800051d8:	00a60633          	add	a2,a2,a0
800051dc:	00c7a623          	sw	a2,12(a5)
800051e0:	00c6a783          	lw	a5,12(a3)
800051e4:	40a787b3          	sub	a5,a5,a0
800051e8:	00f6a623          	sw	a5,12(a3)
800051ec:	f40314e3          	bnez	t1,80005134 <bench_dinic_run+0x42c>
800051f0:	00040313          	mv	t1,s0
800051f4:	06c12783          	lw	a5,108(sp)
800051f8:	06812403          	lw	s0,104(sp)
800051fc:	02c12703          	lw	a4,44(sp)
80005200:	e8e05ee3          	blez	a4,8000509c <bench_dinic_run+0x394>
80005204:	00c7a703          	lw	a4,12(a5)
80005208:	02c12603          	lw	a2,44(sp)
8000520c:	02012683          	lw	a3,32(sp)
80005210:	00c70733          	add	a4,a4,a2
80005214:	00e7a623          	sw	a4,12(a5)
80005218:	00144793          	xori	a5,s0,1
8000521c:	00479793          	slli	a5,a5,0x4
80005220:	00f387b3          	add	a5,t2,a5
80005224:	00c7a703          	lw	a4,12(a5)
80005228:	40c686b3          	sub	a3,a3,a2
8000522c:	02d12023          	sw	a3,32(sp)
80005230:	02412683          	lw	a3,36(sp)
80005234:	40c70733          	sub	a4,a4,a2
80005238:	00e7a623          	sw	a4,12(a5)
8000523c:	02012783          	lw	a5,32(sp)
80005240:	00c686b3          	add	a3,a3,a2
80005244:	02d12223          	sw	a3,36(sp)
80005248:	e4079ae3          	bnez	a5,8000509c <bench_dinic_run+0x394>
8000524c:	05812483          	lw	s1,88(sp)
80005250:	05c12283          	lw	t0,92(sp)
80005254:	06012703          	lw	a4,96(sp)
80005258:	02412783          	lw	a5,36(sp)
8000525c:	d8f05ce3          	blez	a5,80004ff4 <bench_dinic_run+0x2ec>
80005260:	00c72783          	lw	a5,12(a4)
80005264:	02412603          	lw	a2,36(sp)
80005268:	00c12683          	lw	a3,12(sp)
8000526c:	00c787b3          	add	a5,a5,a2
80005270:	00f72623          	sw	a5,12(a4)
80005274:	00812783          	lw	a5,8(sp)
80005278:	40c686b3          	sub	a3,a3,a2
8000527c:	00d12623          	sw	a3,12(sp)
80005280:	0017c793          	xori	a5,a5,1
80005284:	00479793          	slli	a5,a5,0x4
80005288:	00f387b3          	add	a5,t2,a5
8000528c:	00c7a703          	lw	a4,12(a5)
80005290:	01c12683          	lw	a3,28(sp)
80005294:	40c70733          	sub	a4,a4,a2
80005298:	00e7a623          	sw	a4,12(a5)
8000529c:	00c12783          	lw	a5,12(sp)
800052a0:	00c686b3          	add	a3,a3,a2
800052a4:	00d12e23          	sw	a3,28(sp)
800052a8:	d40796e3          	bnez	a5,80004ff4 <bench_dinic_run+0x2ec>
800052ac:	04412403          	lw	s0,68(sp)
800052b0:	04812583          	lw	a1,72(sp)
800052b4:	01c12783          	lw	a5,28(sp)
800052b8:	c8f05ee3          	blez	a5,80004f54 <bench_dinic_run+0x24c>
800052bc:	00c42783          	lw	a5,12(s0)
800052c0:	01c12683          	lw	a3,28(sp)
800052c4:	01c12703          	lw	a4,28(sp)
800052c8:	00d787b3          	add	a5,a5,a3
800052cc:	00f42623          	sw	a5,12(s0)
800052d0:	00412783          	lw	a5,4(sp)
800052d4:	40e585b3          	sub	a1,a1,a4
800052d8:	03412703          	lw	a4,52(sp)
800052dc:	0017c793          	xori	a5,a5,1
800052e0:	00479793          	slli	a5,a5,0x4
800052e4:	00d70733          	add	a4,a4,a3
800052e8:	00f387b3          	add	a5,t2,a5
800052ec:	02e12a23          	sw	a4,52(sp)
800052f0:	00c7a703          	lw	a4,12(a5)
800052f4:	40d70733          	sub	a4,a4,a3
800052f8:	00e7a623          	sw	a4,12(a5)
800052fc:	c4059ce3          	bnez	a1,80004f54 <bench_dinic_run+0x24c>
80005300:	02432703          	lw	a4,36(t1)
80005304:	00048413          	mv	s0,s1
80005308:	03412483          	lw	s1,52(sp)
8000530c:	00e12623          	sw	a4,12(sp)
80005310:	01c32703          	lw	a4,28(t1)
80005314:	03c12683          	lw	a3,60(sp)
80005318:	00032783          	lw	a5,0(t1)
8000531c:	01432603          	lw	a2,20(t1)
80005320:	00030293          	mv	t0,t1
80005324:	00940433          	add	s0,s0,s1
80005328:	00e12023          	sw	a4,0(sp)
8000532c:	a49ff06f          	j	80004d74 <bench_dinic_run+0x6c>
80005330:	00c12783          	lw	a5,12(sp)
80005334:	00f12e23          	sw	a5,28(sp)
80005338:	f7dff06f          	j	800052b4 <bench_dinic_run+0x5ac>
8000533c:	003f4737          	lui	a4,0x3f4
80005340:	f3f70713          	addi	a4,a4,-193 # 3f3f3f <_entry_offset+0x3f3f3f>
80005344:	00e40433          	add	s0,s0,a4
80005348:	a2dff06f          	j	80004d74 <bench_dinic_run+0x6c>
8000534c:	02012783          	lw	a5,32(sp)
80005350:	02f12223          	sw	a5,36(sp)
80005354:	f05ff06f          	j	80005258 <bench_dinic_run+0x550>
80005358:	03812703          	lw	a4,56(sp)
8000535c:	02e12623          	sw	a4,44(sp)
80005360:	e9dff06f          	j	800051fc <bench_dinic_run+0x4f4>
80005364:	07812083          	lw	ra,120(sp)
80005368:	00003797          	auipc	a5,0x3
8000536c:	8687a223          	sw	s0,-1948(a5) # 80007bcc <_ZL3ans>
80005370:	07412403          	lw	s0,116(sp)
80005374:	07012483          	lw	s1,112(sp)
80005378:	07c10113          	addi	sp,sp,124
8000537c:	00008067          	ret

80005380 <bench_dinic_validate>:
80005380:	00002717          	auipc	a4,0x2
80005384:	7ec72703          	lw	a4,2028(a4) # 80007b6c <setting>
80005388:	00003797          	auipc	a5,0x3
8000538c:	8447a783          	lw	a5,-1980(a5) # 80007bcc <_ZL3ans>
80005390:	00c72503          	lw	a0,12(a4)
80005394:	40f50533          	sub	a0,a0,a5
80005398:	00153513          	seqz	a0,a0
8000539c:	00008067          	ret

800053a0 <putch>:
800053a0:	100007b7          	lui	a5,0x10000
800053a4:	00a78023          	sb	a0,0(a5) # 10000000 <_entry_offset+0x10000000>
800053a8:	00008067          	ret

800053ac <halt>:
800053ac:	00050513          	mv	a0,a0
800053b0:	00100073          	ebreak
800053b4:	0000006f          	j	800053b4 <halt+0x8>

800053b8 <_trm_init>:
800053b8:	ffc10113          	addi	sp,sp,-4
800053bc:	00002517          	auipc	a0,0x2
800053c0:	fc450513          	addi	a0,a0,-60 # 80007380 <mainargs>
800053c4:	00112023          	sw	ra,0(sp)
800053c8:	96dfc0ef          	jal	80001d34 <main>
800053cc:	00050513          	mv	a0,a0
800053d0:	00100073          	ebreak
800053d4:	0000006f          	j	800053d4 <_trm_init+0x1c>

800053d8 <__am_timer_config>:
800053d8:	00100793          	li	a5,1
800053dc:	00f50023          	sb	a5,0(a0)
800053e0:	00f500a3          	sb	a5,1(a0)
800053e4:	00008067          	ret

800053e8 <__am_input_config>:
800053e8:	00100793          	li	a5,1
800053ec:	00f50023          	sb	a5,0(a0)
800053f0:	00008067          	ret

800053f4 <__am_uart_config>:
800053f4:	00050023          	sb	zero,0(a0)
800053f8:	00008067          	ret

800053fc <fail>:
800053fc:	ff410113          	addi	sp,sp,-12
80005400:	00812223          	sw	s0,4(sp)
80005404:	00912023          	sw	s1,0(sp)
80005408:	00112423          	sw	ra,8(sp)
8000540c:	00002417          	auipc	s0,0x2
80005410:	e0c40413          	addi	s0,s0,-500 # 80007218 <k+0x63c>
80005414:	04100513          	li	a0,65
80005418:	00002497          	auipc	s1,0x2
8000541c:	e0a48493          	addi	s1,s1,-502 # 80007222 <k+0x646>
80005420:	f81ff0ef          	jal	800053a0 <putch>
80005424:	00140413          	addi	s0,s0,1
80005428:	00044503          	lbu	a0,0(s0)
8000542c:	fe941ae3          	bne	s0,s1,80005420 <fail+0x24>
80005430:	00002417          	auipc	s0,0x2
80005434:	df440413          	addi	s0,s0,-524 # 80007224 <k+0x648>
80005438:	06100513          	li	a0,97
8000543c:	00002497          	auipc	s1,0x2
80005440:	e0048493          	addi	s1,s1,-512 # 8000723c <k+0x660>
80005444:	f5dff0ef          	jal	800053a0 <putch>
80005448:	00140413          	addi	s0,s0,1
8000544c:	00044503          	lbu	a0,0(s0)
80005450:	fe941ae3          	bne	s0,s1,80005444 <fail+0x48>
80005454:	00002417          	auipc	s0,0x2
80005458:	dec40413          	addi	s0,s0,-532 # 80007240 <k+0x664>
8000545c:	02000513          	li	a0,32
80005460:	00002497          	auipc	s1,0x2
80005464:	e2c48493          	addi	s1,s1,-468 # 8000728c <k+0x6b0>
80005468:	f39ff0ef          	jal	800053a0 <putch>
8000546c:	00140413          	addi	s0,s0,1
80005470:	00044503          	lbu	a0,0(s0)
80005474:	fe941ae3          	bne	s0,s1,80005468 <fail+0x6c>
80005478:	00100513          	li	a0,1
8000547c:	f31ff0ef          	jal	800053ac <halt>

80005480 <ioe_init>:
80005480:	ffc10113          	addi	sp,sp,-4
80005484:	00112023          	sw	ra,0(sp)
80005488:	00002797          	auipc	a5,0x2
8000548c:	49478793          	addi	a5,a5,1172 # 8000791c <lut>
80005490:	00002697          	auipc	a3,0x2
80005494:	68c68693          	addi	a3,a3,1676 # 80007b1c <buf.0>
80005498:	00000617          	auipc	a2,0x0
8000549c:	f6460613          	addi	a2,a2,-156 # 800053fc <fail>
800054a0:	00c0006f          	j	800054ac <ioe_init+0x2c>
800054a4:	00478793          	addi	a5,a5,4
800054a8:	00d78c63          	beq	a5,a3,800054c0 <ioe_init+0x40>
800054ac:	0007a703          	lw	a4,0(a5)
800054b0:	fe071ae3          	bnez	a4,800054a4 <ioe_init+0x24>
800054b4:	00c7a023          	sw	a2,0(a5)
800054b8:	00478793          	addi	a5,a5,4
800054bc:	fed798e3          	bne	a5,a3,800054ac <ioe_init+0x2c>
800054c0:	030000ef          	jal	800054f0 <__am_timer_init>
800054c4:	00012083          	lw	ra,0(sp)
800054c8:	00100513          	li	a0,1
800054cc:	00410113          	addi	sp,sp,4
800054d0:	00008067          	ret

800054d4 <ioe_read>:
800054d4:	00251513          	slli	a0,a0,0x2
800054d8:	00002797          	auipc	a5,0x2
800054dc:	44478793          	addi	a5,a5,1092 # 8000791c <lut>
800054e0:	00a787b3          	add	a5,a5,a0
800054e4:	0007a783          	lw	a5,0(a5)
800054e8:	00058513          	mv	a0,a1
800054ec:	00078067          	jr	a5

800054f0 <__am_timer_init>:
800054f0:	00008067          	ret

800054f4 <__am_timer_uptime>:
800054f4:	020007b7          	lui	a5,0x2000
800054f8:	0047a603          	lw	a2,4(a5) # 2000004 <_entry_offset+0x2000004>
800054fc:	0007a703          	lw	a4,0(a5)
80005500:	00461793          	slli	a5,a2,0x4
80005504:	01c75593          	srli	a1,a4,0x1c
80005508:	00471693          	slli	a3,a4,0x4
8000550c:	40e68733          	sub	a4,a3,a4
80005510:	00f587b3          	add	a5,a1,a5
80005514:	40c787b3          	sub	a5,a5,a2
80005518:	00e6b6b3          	sltu	a3,a3,a4
8000551c:	40d787b3          	sub	a5,a5,a3
80005520:	00f52223          	sw	a5,4(a0)
80005524:	00e52023          	sw	a4,0(a0)
80005528:	00008067          	ret

8000552c <__am_timer_rtc>:
8000552c:	76c00793          	li	a5,1900
80005530:	00052a23          	sw	zero,20(a0)
80005534:	00052823          	sw	zero,16(a0)
80005538:	00052623          	sw	zero,12(a0)
8000553c:	00052423          	sw	zero,8(a0)
80005540:	00052223          	sw	zero,4(a0)
80005544:	00f52023          	sw	a5,0(a0)
80005548:	00008067          	ret

8000554c <__am_input_keybrd>:
8000554c:	00050023          	sb	zero,0(a0)
80005550:	00052223          	sw	zero,4(a0)
80005554:	00008067          	ret

80005558 <__divsi3>:
80005558:	06054063          	bltz	a0,800055b8 <__umodsi3+0x10>
8000555c:	0605c663          	bltz	a1,800055c8 <__umodsi3+0x20>

80005560 <__hidden___udivsi3>:
80005560:	00058613          	mv	a2,a1
80005564:	00050593          	mv	a1,a0
80005568:	fff00513          	li	a0,-1
8000556c:	02060c63          	beqz	a2,800055a4 <__hidden___udivsi3+0x44>
80005570:	00100693          	li	a3,1
80005574:	00b67a63          	bgeu	a2,a1,80005588 <__hidden___udivsi3+0x28>
80005578:	00c05863          	blez	a2,80005588 <__hidden___udivsi3+0x28>
8000557c:	00161613          	slli	a2,a2,0x1
80005580:	00169693          	slli	a3,a3,0x1
80005584:	feb66ae3          	bltu	a2,a1,80005578 <__hidden___udivsi3+0x18>
80005588:	00000513          	li	a0,0
8000558c:	00c5e663          	bltu	a1,a2,80005598 <__hidden___udivsi3+0x38>
80005590:	40c585b3          	sub	a1,a1,a2
80005594:	00d56533          	or	a0,a0,a3
80005598:	0016d693          	srli	a3,a3,0x1
8000559c:	00165613          	srli	a2,a2,0x1
800055a0:	fe0696e3          	bnez	a3,8000558c <__hidden___udivsi3+0x2c>
800055a4:	00008067          	ret

800055a8 <__umodsi3>:
800055a8:	00008293          	mv	t0,ra
800055ac:	fb5ff0ef          	jal	80005560 <__hidden___udivsi3>
800055b0:	00058513          	mv	a0,a1
800055b4:	00028067          	jr	t0
800055b8:	40a00533          	neg	a0,a0
800055bc:	00b04863          	bgtz	a1,800055cc <__umodsi3+0x24>
800055c0:	40b005b3          	neg	a1,a1
800055c4:	f9dff06f          	j	80005560 <__hidden___udivsi3>
800055c8:	40b005b3          	neg	a1,a1
800055cc:	00008293          	mv	t0,ra
800055d0:	f91ff0ef          	jal	80005560 <__hidden___udivsi3>
800055d4:	40a00533          	neg	a0,a0
800055d8:	00028067          	jr	t0

800055dc <__modsi3>:
800055dc:	00008293          	mv	t0,ra
800055e0:	0005ca63          	bltz	a1,800055f4 <__modsi3+0x18>
800055e4:	00054c63          	bltz	a0,800055fc <__modsi3+0x20>
800055e8:	f79ff0ef          	jal	80005560 <__hidden___udivsi3>
800055ec:	00058513          	mv	a0,a1
800055f0:	00028067          	jr	t0
800055f4:	40b005b3          	neg	a1,a1
800055f8:	fe0558e3          	bgez	a0,800055e8 <__modsi3+0xc>
800055fc:	40a00533          	neg	a0,a0
80005600:	f61ff0ef          	jal	80005560 <__hidden___udivsi3>
80005604:	40b00533          	neg	a0,a1
80005608:	00028067          	jr	t0

8000560c <__mulsi3>:
8000560c:	00050613          	mv	a2,a0
80005610:	00000513          	li	a0,0
80005614:	0015f693          	andi	a3,a1,1
80005618:	00068463          	beqz	a3,80005620 <__mulsi3+0x14>
8000561c:	00c50533          	add	a0,a0,a2
80005620:	0015d593          	srli	a1,a1,0x1
80005624:	00161613          	slli	a2,a2,0x1
80005628:	fe0596e3          	bnez	a1,80005614 <__mulsi3+0x8>
8000562c:	00008067          	ret

80005630 <__muldi3>:
80005630:	fe810113          	addi	sp,sp,-24
80005634:	00812823          	sw	s0,16(sp)
80005638:	00a12023          	sw	a0,0(sp)
8000563c:	00068413          	mv	s0,a3
80005640:	00112a23          	sw	ra,20(sp)
80005644:	00050693          	mv	a3,a0
80005648:	00912623          	sw	s1,12(sp)
8000564c:	00060713          	mv	a4,a2
80005650:	00000793          	li	a5,0
80005654:	00000513          	li	a0,0
80005658:	00000313          	li	t1,0
8000565c:	00b12223          	sw	a1,4(sp)
80005660:	00c12423          	sw	a2,8(sp)
80005664:	00d30633          	add	a2,t1,a3
80005668:	00177293          	andi	t0,a4,1
8000566c:	00f503b3          	add	t2,a0,a5
80005670:	01f6d593          	srli	a1,a3,0x1f
80005674:	00175713          	srli	a4,a4,0x1
80005678:	006634b3          	sltu	s1,a2,t1
8000567c:	00179793          	slli	a5,a5,0x1
80005680:	00028663          	beqz	t0,8000568c <__muldi3+0x5c>
80005684:	00060313          	mv	t1,a2
80005688:	00748533          	add	a0,s1,t2
8000568c:	00169693          	slli	a3,a3,0x1
80005690:	00b7e7b3          	or	a5,a5,a1
80005694:	fc0718e3          	bnez	a4,80005664 <__muldi3+0x34>
80005698:	00412583          	lw	a1,4(sp)
8000569c:	00012283          	lw	t0,0(sp)
800056a0:	00050793          	mv	a5,a0
800056a4:	00058863          	beqz	a1,800056b4 <__muldi3+0x84>
800056a8:	00812503          	lw	a0,8(sp)
800056ac:	f61ff0ef          	jal	8000560c <__mulsi3>
800056b0:	00f507b3          	add	a5,a0,a5
800056b4:	00040a63          	beqz	s0,800056c8 <__muldi3+0x98>
800056b8:	00028513          	mv	a0,t0
800056bc:	00040593          	mv	a1,s0
800056c0:	f4dff0ef          	jal	8000560c <__mulsi3>
800056c4:	00f507b3          	add	a5,a0,a5
800056c8:	01412083          	lw	ra,20(sp)
800056cc:	01012403          	lw	s0,16(sp)
800056d0:	00c12483          	lw	s1,12(sp)
800056d4:	00030513          	mv	a0,t1
800056d8:	00078593          	mv	a1,a5
800056dc:	01810113          	addi	sp,sp,24
800056e0:	00008067          	ret

800056e4 <printf>:
800056e4:	fac10113          	addi	sp,sp,-84
800056e8:	02812c23          	sw	s0,56(sp)
800056ec:	04f12823          	sw	a5,80(sp)
800056f0:	02112e23          	sw	ra,60(sp)
800056f4:	04b12023          	sw	a1,64(sp)
800056f8:	04c12223          	sw	a2,68(sp)
800056fc:	04d12423          	sw	a3,72(sp)
80005700:	04e12623          	sw	a4,76(sp)
80005704:	00050413          	mv	s0,a0
80005708:	00054503          	lbu	a0,0(a0)
8000570c:	04010793          	addi	a5,sp,64
80005710:	02f12023          	sw	a5,32(sp)
80005714:	7a050863          	beqz	a0,80005ec4 <printf+0x7e0>
80005718:	02912a23          	sw	s1,52(sp)
8000571c:	00012023          	sw	zero,0(sp)
80005720:	0240006f          	j	80005744 <printf+0x60>
80005724:	c7dff0ef          	jal	800053a0 <putch>
80005728:	00012783          	lw	a5,0(sp)
8000572c:	00040713          	mv	a4,s0
80005730:	00178793          	addi	a5,a5,1
80005734:	00f12023          	sw	a5,0(sp)
80005738:	00174503          	lbu	a0,1(a4)
8000573c:	00170413          	addi	s0,a4,1
80005740:	0a050863          	beqz	a0,800057f0 <printf+0x10c>
80005744:	02500793          	li	a5,37
80005748:	fcf51ee3          	bne	a0,a5,80005724 <printf+0x40>
8000574c:	00144683          	lbu	a3,1(s0)
80005750:	03000793          	li	a5,48
80005754:	00140713          	addi	a4,s0,1
80005758:	00000293          	li	t0,0
8000575c:	00f69863          	bne	a3,a5,8000576c <printf+0x88>
80005760:	00244683          	lbu	a3,2(s0)
80005764:	00240713          	addi	a4,s0,2
80005768:	00100293          	li	t0,1
8000576c:	fd068613          	addi	a2,a3,-48
80005770:	0ff67593          	zext.b	a1,a2
80005774:	00900513          	li	a0,9
80005778:	00000793          	li	a5,0
8000577c:	02b56863          	bltu	a0,a1,800057ac <printf+0xc8>
80005780:	00078593          	mv	a1,a5
80005784:	00259793          	slli	a5,a1,0x2
80005788:	00174683          	lbu	a3,1(a4)
8000578c:	00b787b3          	add	a5,a5,a1
80005790:	00179793          	slli	a5,a5,0x1
80005794:	00f605b3          	add	a1,a2,a5
80005798:	fd068613          	addi	a2,a3,-48
8000579c:	0ff67793          	zext.b	a5,a2
800057a0:	00170713          	addi	a4,a4,1
800057a4:	fef570e3          	bgeu	a0,a5,80005784 <printf+0xa0>
800057a8:	00058793          	mv	a5,a1
800057ac:	f9468693          	addi	a3,a3,-108
800057b0:	0016b693          	seqz	a3,a3
800057b4:	00d70733          	add	a4,a4,a3
800057b8:	00074503          	lbu	a0,0(a4)
800057bc:	02500693          	li	a3,37
800057c0:	5ed50663          	beq	a0,a3,80005dac <printf+0x6c8>
800057c4:	fa850693          	addi	a3,a0,-88
800057c8:	0ff6f693          	zext.b	a3,a3
800057cc:	02000613          	li	a2,32
800057d0:	02d66c63          	bltu	a2,a3,80005808 <printf+0x124>
800057d4:	00002617          	auipc	a2,0x2
800057d8:	bec60613          	addi	a2,a2,-1044 # 800073c0 <mainargs+0x40>
800057dc:	00269693          	slli	a3,a3,0x2
800057e0:	00c686b3          	add	a3,a3,a2
800057e4:	0006a683          	lw	a3,0(a3)
800057e8:	00c686b3          	add	a3,a3,a2
800057ec:	00068067          	jr	a3
800057f0:	03c12083          	lw	ra,60(sp)
800057f4:	03812403          	lw	s0,56(sp)
800057f8:	00012503          	lw	a0,0(sp)
800057fc:	03412483          	lw	s1,52(sp)
80005800:	05410113          	addi	sp,sp,84
80005804:	00008067          	ret
80005808:	02500513          	li	a0,37
8000580c:	00e12223          	sw	a4,4(sp)
80005810:	b91ff0ef          	jal	800053a0 <putch>
80005814:	00412703          	lw	a4,4(sp)
80005818:	00074503          	lbu	a0,0(a4)
8000581c:	b85ff0ef          	jal	800053a0 <putch>
80005820:	00012783          	lw	a5,0(sp)
80005824:	00412703          	lw	a4,4(sp)
80005828:	00278793          	addi	a5,a5,2
8000582c:	00f12023          	sw	a5,0(sp)
80005830:	f09ff06f          	j	80005738 <printf+0x54>
80005834:	02012683          	lw	a3,32(sp)
80005838:	f8850513          	addi	a0,a0,-120
8000583c:	04100393          	li	t2,65
80005840:	00468613          	addi	a2,a3,4
80005844:	02c12023          	sw	a2,32(sp)
80005848:	0006a583          	lw	a1,0(a3)
8000584c:	5a050863          	beqz	a0,80005dfc <printf+0x718>
80005850:	ff638393          	addi	t2,t2,-10
80005854:	00000613          	li	a2,0
80005858:	02410693          	addi	a3,sp,36
8000585c:	00900413          	li	s0,9
80005860:	00f5f513          	andi	a0,a1,15
80005864:	00060493          	mv	s1,a2
80005868:	00750333          	add	t1,a0,t2
8000586c:	00160613          	addi	a2,a2,1
80005870:	00a46463          	bltu	s0,a0,80005878 <printf+0x194>
80005874:	03050313          	addi	t1,a0,48
80005878:	00c68533          	add	a0,a3,a2
8000587c:	0045d593          	srli	a1,a1,0x4
80005880:	fe650fa3          	sb	t1,-1(a0)
80005884:	fc059ee3          	bnez	a1,80005860 <printf+0x17c>
80005888:	00912423          	sw	s1,8(sp)
8000588c:	40c78433          	sub	s0,a5,a2
80005890:	04805263          	blez	s0,800058d4 <printf+0x1f0>
80005894:	02000493          	li	s1,32
80005898:	56029e63          	bnez	t0,80005e14 <printf+0x730>
8000589c:	0ff4f793          	zext.b	a5,s1
800058a0:	00f12223          	sw	a5,4(sp)
800058a4:	00000493          	li	s1,0
800058a8:	00e12623          	sw	a4,12(sp)
800058ac:	00d12823          	sw	a3,16(sp)
800058b0:	00412503          	lw	a0,4(sp)
800058b4:	00148493          	addi	s1,s1,1
800058b8:	ae9ff0ef          	jal	800053a0 <putch>
800058bc:	fe941ae3          	bne	s0,s1,800058b0 <printf+0x1cc>
800058c0:	00012783          	lw	a5,0(sp)
800058c4:	00c12703          	lw	a4,12(sp)
800058c8:	01012683          	lw	a3,16(sp)
800058cc:	008787b3          	add	a5,a5,s0
800058d0:	00f12023          	sw	a5,0(sp)
800058d4:	00812783          	lw	a5,8(sp)
800058d8:	fff68413          	addi	s0,a3,-1
800058dc:	00e12223          	sw	a4,4(sp)
800058e0:	00f684b3          	add	s1,a3,a5
800058e4:	0004c503          	lbu	a0,0(s1)
800058e8:	fff48493          	addi	s1,s1,-1
800058ec:	ab5ff0ef          	jal	800053a0 <putch>
800058f0:	fe941ae3          	bne	s0,s1,800058e4 <printf+0x200>
800058f4:	00812783          	lw	a5,8(sp)
800058f8:	00412703          	lw	a4,4(sp)
800058fc:	00178293          	addi	t0,a5,1
80005900:	00012783          	lw	a5,0(sp)
80005904:	00f287b3          	add	a5,t0,a5
80005908:	00f12023          	sw	a5,0(sp)
8000590c:	e2dff06f          	j	80005738 <printf+0x54>
80005910:	02012783          	lw	a5,32(sp)
80005914:	00e12223          	sw	a4,4(sp)
80005918:	0007c503          	lbu	a0,0(a5)
8000591c:	00478793          	addi	a5,a5,4
80005920:	02f12023          	sw	a5,32(sp)
80005924:	a7dff0ef          	jal	800053a0 <putch>
80005928:	00012783          	lw	a5,0(sp)
8000592c:	00412703          	lw	a4,4(sp)
80005930:	00178793          	addi	a5,a5,1
80005934:	00f12023          	sw	a5,0(sp)
80005938:	e01ff06f          	j	80005738 <printf+0x54>
8000593c:	02012583          	lw	a1,32(sp)
80005940:	00000613          	li	a2,0
80005944:	02410693          	addi	a3,sp,36
80005948:	00458513          	addi	a0,a1,4
8000594c:	0005a583          	lw	a1,0(a1)
80005950:	02a12023          	sw	a0,32(sp)
80005954:	0075f513          	andi	a0,a1,7
80005958:	00060313          	mv	t1,a2
8000595c:	00160613          	addi	a2,a2,1
80005960:	00c683b3          	add	t2,a3,a2
80005964:	03050513          	addi	a0,a0,48
80005968:	fea38fa3          	sb	a0,-1(t2)
8000596c:	0035d593          	srli	a1,a1,0x3
80005970:	fe0592e3          	bnez	a1,80005954 <printf+0x270>
80005974:	40c78433          	sub	s0,a5,a2
80005978:	04805663          	blez	s0,800059c4 <printf+0x2e0>
8000597c:	02000493          	li	s1,32
80005980:	48029663          	bnez	t0,80005e0c <printf+0x728>
80005984:	0ff4f793          	zext.b	a5,s1
80005988:	00f12223          	sw	a5,4(sp)
8000598c:	00000493          	li	s1,0
80005990:	00612423          	sw	t1,8(sp)
80005994:	00e12623          	sw	a4,12(sp)
80005998:	00d12823          	sw	a3,16(sp)
8000599c:	00412503          	lw	a0,4(sp)
800059a0:	00148493          	addi	s1,s1,1
800059a4:	9fdff0ef          	jal	800053a0 <putch>
800059a8:	fe941ae3          	bne	s0,s1,8000599c <printf+0x2b8>
800059ac:	00012783          	lw	a5,0(sp)
800059b0:	00812303          	lw	t1,8(sp)
800059b4:	00c12703          	lw	a4,12(sp)
800059b8:	01012683          	lw	a3,16(sp)
800059bc:	008787b3          	add	a5,a5,s0
800059c0:	00f12023          	sw	a5,0(sp)
800059c4:	006684b3          	add	s1,a3,t1
800059c8:	fff68413          	addi	s0,a3,-1
800059cc:	00612223          	sw	t1,4(sp)
800059d0:	00e12423          	sw	a4,8(sp)
800059d4:	0004c503          	lbu	a0,0(s1)
800059d8:	fff48493          	addi	s1,s1,-1
800059dc:	9c5ff0ef          	jal	800053a0 <putch>
800059e0:	fe941ae3          	bne	s0,s1,800059d4 <printf+0x2f0>
800059e4:	00412303          	lw	t1,4(sp)
800059e8:	00012783          	lw	a5,0(sp)
800059ec:	00812703          	lw	a4,8(sp)
800059f0:	00130313          	addi	t1,t1,1
800059f4:	00f307b3          	add	a5,t1,a5
800059f8:	00f12023          	sw	a5,0(sp)
800059fc:	d3dff06f          	j	80005738 <printf+0x54>
80005a00:	02012683          	lw	a3,32(sp)
80005a04:	00012823          	sw	zero,16(sp)
80005a08:	0006a403          	lw	s0,0(a3)
80005a0c:	00468693          	addi	a3,a3,4
80005a10:	02d12023          	sw	a3,32(sp)
80005a14:	40044463          	bltz	s0,80005e1c <printf+0x738>
80005a18:	02410693          	addi	a3,sp,36
80005a1c:	00040493          	mv	s1,s0
80005a20:	00f12a23          	sw	a5,20(sp)
80005a24:	00000413          	li	s0,0
80005a28:	00e12c23          	sw	a4,24(sp)
80005a2c:	00512e23          	sw	t0,28(sp)
80005a30:	00d12623          	sw	a3,12(sp)
80005a34:	00c12783          	lw	a5,12(sp)
80005a38:	00040313          	mv	t1,s0
80005a3c:	00140413          	addi	s0,s0,1
80005a40:	00878733          	add	a4,a5,s0
80005a44:	00a00593          	li	a1,10
80005a48:	00048513          	mv	a0,s1
80005a4c:	00612423          	sw	t1,8(sp)
80005a50:	00e12223          	sw	a4,4(sp)
80005a54:	b55ff0ef          	jal	800055a8 <__umodsi3>
80005a58:	00412703          	lw	a4,4(sp)
80005a5c:	03050513          	addi	a0,a0,48
80005a60:	00a00593          	li	a1,10
80005a64:	fea70fa3          	sb	a0,-1(a4)
80005a68:	00048513          	mv	a0,s1
80005a6c:	00912223          	sw	s1,4(sp)
80005a70:	af1ff0ef          	jal	80005560 <__hidden___udivsi3>
80005a74:	00412703          	lw	a4,4(sp)
80005a78:	00900793          	li	a5,9
80005a7c:	00812303          	lw	t1,8(sp)
80005a80:	00050493          	mv	s1,a0
80005a84:	fae7e8e3          	bltu	a5,a4,80005a34 <printf+0x350>
80005a88:	01012583          	lw	a1,16(sp)
80005a8c:	01412783          	lw	a5,20(sp)
80005a90:	01812703          	lw	a4,24(sp)
80005a94:	01c12283          	lw	t0,28(sp)
80005a98:	00c12683          	lw	a3,12(sp)
80005a9c:	00040613          	mv	a2,s0
80005aa0:	30059a63          	bnez	a1,80005db4 <printf+0x6d0>
80005aa4:	408784b3          	sub	s1,a5,s0
80005aa8:	3a905063          	blez	s1,80005e48 <printf+0x764>
80005aac:	38028e63          	beqz	t0,80005e48 <printf+0x764>
80005ab0:	00000413          	li	s0,0
80005ab4:	00612223          	sw	t1,4(sp)
80005ab8:	00e12423          	sw	a4,8(sp)
80005abc:	00d12623          	sw	a3,12(sp)
80005ac0:	03000513          	li	a0,48
80005ac4:	00140413          	addi	s0,s0,1
80005ac8:	8d9ff0ef          	jal	800053a0 <putch>
80005acc:	fe941ae3          	bne	s0,s1,80005ac0 <printf+0x3dc>
80005ad0:	00c12683          	lw	a3,12(sp)
80005ad4:	00012603          	lw	a2,0(sp)
80005ad8:	00412303          	lw	t1,4(sp)
80005adc:	02310793          	addi	a5,sp,35
80005ae0:	00c40633          	add	a2,s0,a2
80005ae4:	00668433          	add	s0,a3,t1
80005ae8:	01012683          	lw	a3,16(sp)
80005aec:	00c12023          	sw	a2,0(sp)
80005af0:	00812703          	lw	a4,8(sp)
80005af4:	00d784b3          	add	s1,a5,a3
80005af8:	c4d340e3          	blt	t1,a3,80005738 <printf+0x54>
80005afc:	00612223          	sw	t1,4(sp)
80005b00:	00e12423          	sw	a4,8(sp)
80005b04:	00044503          	lbu	a0,0(s0)
80005b08:	fff40413          	addi	s0,s0,-1
80005b0c:	895ff0ef          	jal	800053a0 <putch>
80005b10:	fe849ae3          	bne	s1,s0,80005b04 <printf+0x420>
80005b14:	01012783          	lw	a5,16(sp)
80005b18:	00412303          	lw	t1,4(sp)
80005b1c:	00012603          	lw	a2,0(sp)
80005b20:	0017c793          	xori	a5,a5,1
80005b24:	006787b3          	add	a5,a5,t1
80005b28:	00c787b3          	add	a5,a5,a2
80005b2c:	00812703          	lw	a4,8(sp)
80005b30:	00f12023          	sw	a5,0(sp)
80005b34:	c05ff06f          	j	80005738 <printf+0x54>
80005b38:	02012603          	lw	a2,32(sp)
80005b3c:	00000413          	li	s0,0
80005b40:	02410693          	addi	a3,sp,36
80005b44:	00460593          	addi	a1,a2,4
80005b48:	00062603          	lw	a2,0(a2)
80005b4c:	00040493          	mv	s1,s0
80005b50:	02b12023          	sw	a1,32(sp)
80005b54:	00060413          	mv	s0,a2
80005b58:	00f12823          	sw	a5,16(sp)
80005b5c:	00e12a23          	sw	a4,20(sp)
80005b60:	00512c23          	sw	t0,24(sp)
80005b64:	00d12623          	sw	a3,12(sp)
80005b68:	00c12783          	lw	a5,12(sp)
80005b6c:	00048713          	mv	a4,s1
80005b70:	00148493          	addi	s1,s1,1
80005b74:	009786b3          	add	a3,a5,s1
80005b78:	00a00593          	li	a1,10
80005b7c:	00040513          	mv	a0,s0
80005b80:	00e12423          	sw	a4,8(sp)
80005b84:	00d12223          	sw	a3,4(sp)
80005b88:	a21ff0ef          	jal	800055a8 <__umodsi3>
80005b8c:	00412683          	lw	a3,4(sp)
80005b90:	03050513          	addi	a0,a0,48
80005b94:	00a00593          	li	a1,10
80005b98:	fea68fa3          	sb	a0,-1(a3)
80005b9c:	00040513          	mv	a0,s0
80005ba0:	00812223          	sw	s0,4(sp)
80005ba4:	9bdff0ef          	jal	80005560 <__hidden___udivsi3>
80005ba8:	00412683          	lw	a3,4(sp)
80005bac:	00900793          	li	a5,9
80005bb0:	00050413          	mv	s0,a0
80005bb4:	fad7eae3          	bltu	a5,a3,80005b68 <printf+0x484>
80005bb8:	01012783          	lw	a5,16(sp)
80005bbc:	00048413          	mv	s0,s1
80005bc0:	01812283          	lw	t0,24(sp)
80005bc4:	40878633          	sub	a2,a5,s0
80005bc8:	00812483          	lw	s1,8(sp)
80005bcc:	01412703          	lw	a4,20(sp)
80005bd0:	00c12683          	lw	a3,12(sp)
80005bd4:	04c05863          	blez	a2,80005c24 <printf+0x540>
80005bd8:	02000793          	li	a5,32
80005bdc:	22029463          	bnez	t0,80005e04 <printf+0x720>
80005be0:	00000413          	li	s0,0
80005be4:	00912623          	sw	s1,12(sp)
80005be8:	00f12223          	sw	a5,4(sp)
80005bec:	00040493          	mv	s1,s0
80005bf0:	00e12423          	sw	a4,8(sp)
80005bf4:	00060413          	mv	s0,a2
80005bf8:	00d12823          	sw	a3,16(sp)
80005bfc:	00412503          	lw	a0,4(sp)
80005c00:	00148493          	addi	s1,s1,1
80005c04:	f9cff0ef          	jal	800053a0 <putch>
80005c08:	fe941ae3          	bne	s0,s1,80005bfc <printf+0x518>
80005c0c:	00012783          	lw	a5,0(sp)
80005c10:	00812703          	lw	a4,8(sp)
80005c14:	00c12483          	lw	s1,12(sp)
80005c18:	01012683          	lw	a3,16(sp)
80005c1c:	00f407b3          	add	a5,s0,a5
80005c20:	00f12023          	sw	a5,0(sp)
80005c24:	00968433          	add	s0,a3,s1
80005c28:	00912423          	sw	s1,8(sp)
80005c2c:	00e12223          	sw	a4,4(sp)
80005c30:	00040493          	mv	s1,s0
80005c34:	fff68413          	addi	s0,a3,-1
80005c38:	0004c503          	lbu	a0,0(s1)
80005c3c:	fff48493          	addi	s1,s1,-1
80005c40:	f60ff0ef          	jal	800053a0 <putch>
80005c44:	fe941ae3          	bne	s0,s1,80005c38 <printf+0x554>
80005c48:	00812483          	lw	s1,8(sp)
80005c4c:	00012783          	lw	a5,0(sp)
80005c50:	00412703          	lw	a4,4(sp)
80005c54:	00148493          	addi	s1,s1,1
80005c58:	00f487b3          	add	a5,s1,a5
80005c5c:	00f12023          	sw	a5,0(sp)
80005c60:	ad9ff06f          	j	80005738 <printf+0x54>
80005c64:	02012683          	lw	a3,32(sp)
80005c68:	0006a483          	lw	s1,0(a3)
80005c6c:	00468693          	addi	a3,a3,4
80005c70:	02d12023          	sw	a3,32(sp)
80005c74:	0004c503          	lbu	a0,0(s1)
80005c78:	26050263          	beqz	a0,80005edc <printf+0x7f8>
80005c7c:	00000693          	li	a3,0
80005c80:	00168693          	addi	a3,a3,1
80005c84:	00d48633          	add	a2,s1,a3
80005c88:	00064603          	lbu	a2,0(a2)
80005c8c:	fe061ae3          	bnez	a2,80005c80 <printf+0x59c>
80005c90:	40d787b3          	sub	a5,a5,a3
80005c94:	04f05263          	blez	a5,80005cd8 <printf+0x5f4>
80005c98:	00000413          	li	s0,0
80005c9c:	00912223          	sw	s1,4(sp)
80005ca0:	00e12423          	sw	a4,8(sp)
80005ca4:	00040493          	mv	s1,s0
80005ca8:	00078413          	mv	s0,a5
80005cac:	02000513          	li	a0,32
80005cb0:	00148493          	addi	s1,s1,1
80005cb4:	eecff0ef          	jal	800053a0 <putch>
80005cb8:	fe84cae3          	blt	s1,s0,80005cac <printf+0x5c8>
80005cbc:	00412483          	lw	s1,4(sp)
80005cc0:	00012683          	lw	a3,0(sp)
80005cc4:	00812703          	lw	a4,8(sp)
80005cc8:	0004c503          	lbu	a0,0(s1)
80005ccc:	00d407b3          	add	a5,s0,a3
80005cd0:	00f12023          	sw	a5,0(sp)
80005cd4:	a60502e3          	beqz	a0,80005738 <printf+0x54>
80005cd8:	00048413          	mv	s0,s1
80005cdc:	00e12223          	sw	a4,4(sp)
80005ce0:	00140413          	addi	s0,s0,1
80005ce4:	ebcff0ef          	jal	800053a0 <putch>
80005ce8:	00044503          	lbu	a0,0(s0)
80005cec:	fe051ae3          	bnez	a0,80005ce0 <printf+0x5fc>
80005cf0:	00012783          	lw	a5,0(sp)
80005cf4:	40940433          	sub	s0,s0,s1
80005cf8:	00412703          	lw	a4,4(sp)
80005cfc:	00f407b3          	add	a5,s0,a5
80005d00:	00f12023          	sw	a5,0(sp)
80005d04:	a35ff06f          	j	80005738 <printf+0x54>
80005d08:	02012783          	lw	a5,32(sp)
80005d0c:	03000513          	li	a0,48
80005d10:	00e12223          	sw	a4,4(sp)
80005d14:	00478693          	addi	a3,a5,4
80005d18:	0007a403          	lw	s0,0(a5)
80005d1c:	02d12023          	sw	a3,32(sp)
80005d20:	e80ff0ef          	jal	800053a0 <putch>
80005d24:	07800513          	li	a0,120
80005d28:	e78ff0ef          	jal	800053a0 <putch>
80005d2c:	00412703          	lw	a4,4(sp)
80005d30:	0e040e63          	beqz	s0,80005e2c <printf+0x748>
80005d34:	00040793          	mv	a5,s0
80005d38:	00000513          	li	a0,0
80005d3c:	02410693          	addi	a3,sp,36
80005d40:	00900293          	li	t0,9
80005d44:	0080006f          	j	80005d4c <printf+0x668>
80005d48:	00060513          	mv	a0,a2
80005d4c:	00f7f613          	andi	a2,a5,15
80005d50:	05760593          	addi	a1,a2,87
80005d54:	00c2e463          	bltu	t0,a2,80005d5c <printf+0x678>
80005d58:	03060593          	addi	a1,a2,48
80005d5c:	00150613          	addi	a2,a0,1
80005d60:	00c68333          	add	t1,a3,a2
80005d64:	0047d793          	srli	a5,a5,0x4
80005d68:	feb30fa3          	sb	a1,-1(t1)
80005d6c:	fc079ee3          	bnez	a5,80005d48 <printf+0x664>
80005d70:	00a684b3          	add	s1,a3,a0
80005d74:	fff68413          	addi	s0,a3,-1
80005d78:	00a12223          	sw	a0,4(sp)
80005d7c:	00e12423          	sw	a4,8(sp)
80005d80:	0004c503          	lbu	a0,0(s1)
80005d84:	fff48493          	addi	s1,s1,-1
80005d88:	e18ff0ef          	jal	800053a0 <putch>
80005d8c:	fe941ae3          	bne	s0,s1,80005d80 <printf+0x69c>
80005d90:	00012783          	lw	a5,0(sp)
80005d94:	00412503          	lw	a0,4(sp)
80005d98:	00812703          	lw	a4,8(sp)
80005d9c:	00378793          	addi	a5,a5,3
80005da0:	00a787b3          	add	a5,a5,a0
80005da4:	00f12023          	sw	a5,0(sp)
80005da8:	991ff06f          	j	80005738 <printf+0x54>
80005dac:	00e12223          	sw	a4,4(sp)
80005db0:	b75ff06f          	j	80005924 <printf+0x240>
80005db4:	02d00513          	li	a0,45
80005db8:	002405b3          	add	a1,s0,sp
80005dbc:	00230493          	addi	s1,t1,2
80005dc0:	02a58223          	sb	a0,36(a1)
80005dc4:	409784b3          	sub	s1,a5,s1
80005dc8:	08905263          	blez	s1,80005e4c <printf+0x768>
80005dcc:	08028063          	beqz	t0,80005e4c <printf+0x768>
80005dd0:	00012783          	lw	a5,0(sp)
80005dd4:	00d12623          	sw	a3,12(sp)
80005dd8:	00e12423          	sw	a4,8(sp)
80005ddc:	00178793          	addi	a5,a5,1
80005de0:	00612223          	sw	t1,4(sp)
80005de4:	00f12023          	sw	a5,0(sp)
80005de8:	db8ff0ef          	jal	800053a0 <putch>
80005dec:	00c12683          	lw	a3,12(sp)
80005df0:	00812703          	lw	a4,8(sp)
80005df4:	00412303          	lw	t1,4(sp)
80005df8:	cb9ff06f          	j	80005ab0 <printf+0x3cc>
80005dfc:	06100393          	li	t2,97
80005e00:	a51ff06f          	j	80005850 <printf+0x16c>
80005e04:	03000793          	li	a5,48
80005e08:	dd9ff06f          	j	80005be0 <printf+0x4fc>
80005e0c:	03000493          	li	s1,48
80005e10:	b75ff06f          	j	80005984 <printf+0x2a0>
80005e14:	03000493          	li	s1,48
80005e18:	a85ff06f          	j	8000589c <printf+0x1b8>
80005e1c:	00100693          	li	a3,1
80005e20:	40800433          	neg	s0,s0
80005e24:	00d12823          	sw	a3,16(sp)
80005e28:	bf1ff06f          	j	80005a18 <printf+0x334>
80005e2c:	03000513          	li	a0,48
80005e30:	d70ff0ef          	jal	800053a0 <putch>
80005e34:	00012783          	lw	a5,0(sp)
80005e38:	00412703          	lw	a4,4(sp)
80005e3c:	00378793          	addi	a5,a5,3
80005e40:	00f12023          	sw	a5,0(sp)
80005e44:	8f5ff06f          	j	80005738 <printf+0x54>
80005e48:	00030613          	mv	a2,t1
80005e4c:	00000413          	li	s0,0
80005e50:	02905c63          	blez	s1,80005e88 <printf+0x7a4>
80005e54:	00c12223          	sw	a2,4(sp)
80005e58:	00e12423          	sw	a4,8(sp)
80005e5c:	00d12623          	sw	a3,12(sp)
80005e60:	02000513          	li	a0,32
80005e64:	00140413          	addi	s0,s0,1
80005e68:	d38ff0ef          	jal	800053a0 <putch>
80005e6c:	fe941ae3          	bne	s0,s1,80005e60 <printf+0x77c>
80005e70:	00012783          	lw	a5,0(sp)
80005e74:	00412603          	lw	a2,4(sp)
80005e78:	00812703          	lw	a4,8(sp)
80005e7c:	00c12683          	lw	a3,12(sp)
80005e80:	00f407b3          	add	a5,s0,a5
80005e84:	00f12023          	sw	a5,0(sp)
80005e88:	00c684b3          	add	s1,a3,a2
80005e8c:	fff68413          	addi	s0,a3,-1
80005e90:	00c12223          	sw	a2,4(sp)
80005e94:	00e12423          	sw	a4,8(sp)
80005e98:	0004c503          	lbu	a0,0(s1)
80005e9c:	fff48493          	addi	s1,s1,-1
80005ea0:	d00ff0ef          	jal	800053a0 <putch>
80005ea4:	fe941ae3          	bne	s0,s1,80005e98 <printf+0x7b4>
80005ea8:	00412603          	lw	a2,4(sp)
80005eac:	00012783          	lw	a5,0(sp)
80005eb0:	00812703          	lw	a4,8(sp)
80005eb4:	00160613          	addi	a2,a2,1
80005eb8:	00f607b3          	add	a5,a2,a5
80005ebc:	00f12023          	sw	a5,0(sp)
80005ec0:	879ff06f          	j	80005738 <printf+0x54>
80005ec4:	03c12083          	lw	ra,60(sp)
80005ec8:	03812403          	lw	s0,56(sp)
80005ecc:	00012023          	sw	zero,0(sp)
80005ed0:	00012503          	lw	a0,0(sp)
80005ed4:	05410113          	addi	sp,sp,84
80005ed8:	00008067          	ret
80005edc:	daf04ee3          	bgtz	a5,80005c98 <printf+0x5b4>
80005ee0:	859ff06f          	j	80005738 <printf+0x54>

80005ee4 <vsprintf>:
80005ee4:	fbc10113          	addi	sp,sp,-68
80005ee8:	04112023          	sw	ra,64(sp)
80005eec:	02812e23          	sw	s0,60(sp)
80005ef0:	0005c783          	lbu	a5,0(a1)
80005ef4:	56078063          	beqz	a5,80006454 <vsprintf+0x570>
80005ef8:	00060393          	mv	t2,a2
80005efc:	00900293          	li	t0,9
80005f00:	00050693          	mv	a3,a0
80005f04:	00058613          	mv	a2,a1
80005f08:	01c0006f          	j	80005f24 <vsprintf+0x40>
80005f0c:	00f68023          	sb	a5,0(a3)
80005f10:	00060713          	mv	a4,a2
80005f14:	00168693          	addi	a3,a3,1
80005f18:	00174783          	lbu	a5,1(a4)
80005f1c:	00170613          	addi	a2,a4,1
80005f20:	0a078663          	beqz	a5,80005fcc <vsprintf+0xe8>
80005f24:	02500713          	li	a4,37
80005f28:	fee792e3          	bne	a5,a4,80005f0c <vsprintf+0x28>
80005f2c:	00164783          	lbu	a5,1(a2)
80005f30:	03000313          	li	t1,48
80005f34:	00160713          	addi	a4,a2,1
80005f38:	00000593          	li	a1,0
80005f3c:	00679863          	bne	a5,t1,80005f4c <vsprintf+0x68>
80005f40:	00264783          	lbu	a5,2(a2)
80005f44:	00260713          	addi	a4,a2,2
80005f48:	00100593          	li	a1,1
80005f4c:	fd078613          	addi	a2,a5,-48
80005f50:	0ff67313          	zext.b	t1,a2
80005f54:	00000413          	li	s0,0
80005f58:	0262e863          	bltu	t0,t1,80005f88 <vsprintf+0xa4>
80005f5c:	00040313          	mv	t1,s0
80005f60:	00231413          	slli	s0,t1,0x2
80005f64:	00174783          	lbu	a5,1(a4)
80005f68:	00640433          	add	s0,s0,t1
80005f6c:	00141413          	slli	s0,s0,0x1
80005f70:	00860333          	add	t1,a2,s0
80005f74:	fd078613          	addi	a2,a5,-48
80005f78:	0ff67413          	zext.b	s0,a2
80005f7c:	00170713          	addi	a4,a4,1
80005f80:	fe82f0e3          	bgeu	t0,s0,80005f60 <vsprintf+0x7c>
80005f84:	00030413          	mv	s0,t1
80005f88:	f9478793          	addi	a5,a5,-108
80005f8c:	0017b793          	seqz	a5,a5
80005f90:	00f70733          	add	a4,a4,a5
80005f94:	00074603          	lbu	a2,0(a4)
80005f98:	02500793          	li	a5,37
80005f9c:	4af60463          	beq	a2,a5,80006444 <vsprintf+0x560>
80005fa0:	fa860793          	addi	a5,a2,-88
80005fa4:	0ff7f793          	zext.b	a5,a5
80005fa8:	02000313          	li	t1,32
80005fac:	04f36263          	bltu	t1,a5,80005ff0 <vsprintf+0x10c>
80005fb0:	00001317          	auipc	t1,0x1
80005fb4:	49430313          	addi	t1,t1,1172 # 80007444 <mainargs+0xc4>
80005fb8:	00279793          	slli	a5,a5,0x2
80005fbc:	006787b3          	add	a5,a5,t1
80005fc0:	0007a783          	lw	a5,0(a5)
80005fc4:	006787b3          	add	a5,a5,t1
80005fc8:	00078067          	jr	a5
80005fcc:	00050413          	mv	s0,a0
80005fd0:	00068513          	mv	a0,a3
80005fd4:	00050023          	sb	zero,0(a0)
80005fd8:	40868433          	sub	s0,a3,s0
80005fdc:	04012083          	lw	ra,64(sp)
80005fe0:	00040513          	mv	a0,s0
80005fe4:	03c12403          	lw	s0,60(sp)
80005fe8:	04410113          	addi	sp,sp,68
80005fec:	00008067          	ret
80005ff0:	02500793          	li	a5,37
80005ff4:	00f68023          	sb	a5,0(a3)
80005ff8:	00074783          	lbu	a5,0(a4)
80005ffc:	00268693          	addi	a3,a3,2
80006000:	fef68fa3          	sb	a5,-1(a3)
80006004:	f15ff06f          	j	80005f18 <vsprintf+0x34>
80006008:	f8860793          	addi	a5,a2,-120
8000600c:	00438613          	addi	a2,t2,4
80006010:	00c12023          	sw	a2,0(sp)
80006014:	02912c23          	sw	s1,56(sp)
80006018:	0003a603          	lw	a2,0(t2)
8000601c:	04100393          	li	t2,65
80006020:	00079463          	bnez	a5,80006028 <vsprintf+0x144>
80006024:	06100393          	li	t2,97
80006028:	ff638393          	addi	t2,t2,-10
8000602c:	00000793          	li	a5,0
80006030:	02810493          	addi	s1,sp,40
80006034:	00d12223          	sw	a3,4(sp)
80006038:	00812423          	sw	s0,8(sp)
8000603c:	00e12623          	sw	a4,12(sp)
80006040:	00f67693          	andi	a3,a2,15
80006044:	00900713          	li	a4,9
80006048:	00078313          	mv	t1,a5
8000604c:	00768433          	add	s0,a3,t2
80006050:	00178793          	addi	a5,a5,1
80006054:	00d76463          	bltu	a4,a3,8000605c <vsprintf+0x178>
80006058:	03068413          	addi	s0,a3,48
8000605c:	00f486b3          	add	a3,s1,a5
80006060:	00465613          	srli	a2,a2,0x4
80006064:	fe868fa3          	sb	s0,-1(a3)
80006068:	fc061ce3          	bnez	a2,80006040 <vsprintf+0x15c>
8000606c:	00812403          	lw	s0,8(sp)
80006070:	00412683          	lw	a3,4(sp)
80006074:	00c12703          	lw	a4,12(sp)
80006078:	40f407b3          	sub	a5,s0,a5
8000607c:	02f05063          	blez	a5,8000609c <vsprintf+0x1b8>
80006080:	02000613          	li	a2,32
80006084:	00058463          	beqz	a1,8000608c <vsprintf+0x1a8>
80006088:	03000613          	li	a2,48
8000608c:	00f687b3          	add	a5,a3,a5
80006090:	00168693          	addi	a3,a3,1
80006094:	fec68fa3          	sb	a2,-1(a3)
80006098:	fed79ce3          	bne	a5,a3,80006090 <vsprintf+0x1ac>
8000609c:	006487b3          	add	a5,s1,t1
800060a0:	fff48393          	addi	t2,s1,-1
800060a4:	00068613          	mv	a2,a3
800060a8:	0007c583          	lbu	a1,0(a5)
800060ac:	fff78793          	addi	a5,a5,-1
800060b0:	00160613          	addi	a2,a2,1
800060b4:	feb60fa3          	sb	a1,-1(a2)
800060b8:	fef398e3          	bne	t2,a5,800060a8 <vsprintf+0x1c4>
800060bc:	00130313          	addi	t1,t1,1
800060c0:	00012383          	lw	t2,0(sp)
800060c4:	03812483          	lw	s1,56(sp)
800060c8:	006686b3          	add	a3,a3,t1
800060cc:	e4dff06f          	j	80005f18 <vsprintf+0x34>
800060d0:	0003a783          	lw	a5,0(t2)
800060d4:	00168693          	addi	a3,a3,1
800060d8:	00438393          	addi	t2,t2,4
800060dc:	fef68fa3          	sb	a5,-1(a3)
800060e0:	e39ff06f          	j	80005f18 <vsprintf+0x34>
800060e4:	0003a783          	lw	a5,0(t2)
800060e8:	00438613          	addi	a2,t2,4
800060ec:	02912c23          	sw	s1,56(sp)
800060f0:	00c12623          	sw	a2,12(sp)
800060f4:	00000393          	li	t2,0
800060f8:	0007d663          	bgez	a5,80006104 <vsprintf+0x220>
800060fc:	40f007b3          	neg	a5,a5
80006100:	00100393          	li	t2,1
80006104:	02810493          	addi	s1,sp,40
80006108:	00812a23          	sw	s0,20(sp)
8000610c:	00912423          	sw	s1,8(sp)
80006110:	00d12823          	sw	a3,16(sp)
80006114:	00000413          	li	s0,0
80006118:	00e12c23          	sw	a4,24(sp)
8000611c:	00b12e23          	sw	a1,28(sp)
80006120:	02712023          	sw	t2,32(sp)
80006124:	00078493          	mv	s1,a5
80006128:	02a12223          	sw	a0,36(sp)
8000612c:	00812783          	lw	a5,8(sp)
80006130:	00040613          	mv	a2,s0
80006134:	00140413          	addi	s0,s0,1
80006138:	00878733          	add	a4,a5,s0
8000613c:	00a00593          	li	a1,10
80006140:	00048513          	mv	a0,s1
80006144:	00c12223          	sw	a2,4(sp)
80006148:	00e12023          	sw	a4,0(sp)
8000614c:	c5cff0ef          	jal	800055a8 <__umodsi3>
80006150:	00012703          	lw	a4,0(sp)
80006154:	03050513          	addi	a0,a0,48
80006158:	00a00593          	li	a1,10
8000615c:	fea70fa3          	sb	a0,-1(a4)
80006160:	00048513          	mv	a0,s1
80006164:	00912023          	sw	s1,0(sp)
80006168:	bf8ff0ef          	jal	80005560 <__hidden___udivsi3>
8000616c:	00012703          	lw	a4,0(sp)
80006170:	00900793          	li	a5,9
80006174:	00412603          	lw	a2,4(sp)
80006178:	00050493          	mv	s1,a0
8000617c:	00078293          	mv	t0,a5
80006180:	fae7e6e3          	bltu	a5,a4,8000612c <vsprintf+0x248>
80006184:	01c12583          	lw	a1,28(sp)
80006188:	02012383          	lw	t2,32(sp)
8000618c:	00040313          	mv	t1,s0
80006190:	00b12023          	sw	a1,0(sp)
80006194:	01012683          	lw	a3,16(sp)
80006198:	01412403          	lw	s0,20(sp)
8000619c:	01812703          	lw	a4,24(sp)
800061a0:	00812483          	lw	s1,8(sp)
800061a4:	02412503          	lw	a0,36(sp)
800061a8:	2c039463          	bnez	t2,80006470 <vsprintf+0x58c>
800061ac:	406407b3          	sub	a5,s0,t1
800061b0:	2ef05863          	blez	a5,800064a0 <vsprintf+0x5bc>
800061b4:	2e058663          	beqz	a1,800064a0 <vsprintf+0x5bc>
800061b8:	00f685b3          	add	a1,a3,a5
800061bc:	03000793          	li	a5,48
800061c0:	00168693          	addi	a3,a3,1
800061c4:	fef68fa3          	sb	a5,-1(a3)
800061c8:	feb69ce3          	bne	a3,a1,800061c0 <vsprintf+0x2dc>
800061cc:	00068793          	mv	a5,a3
800061d0:	02764663          	blt	a2,t2,800061fc <vsprintf+0x318>
800061d4:	0013c693          	xori	a3,t2,1
800061d8:	00c686b3          	add	a3,a3,a2
800061dc:	00d786b3          	add	a3,a5,a3
800061e0:	00c48633          	add	a2,s1,a2
800061e4:	00064303          	lbu	t1,0(a2)
800061e8:	00078593          	mv	a1,a5
800061ec:	00178793          	addi	a5,a5,1
800061f0:	00658023          	sb	t1,0(a1)
800061f4:	fff60613          	addi	a2,a2,-1
800061f8:	fed796e3          	bne	a5,a3,800061e4 <vsprintf+0x300>
800061fc:	00c12383          	lw	t2,12(sp)
80006200:	03812483          	lw	s1,56(sp)
80006204:	d15ff06f          	j	80005f18 <vsprintf+0x34>
80006208:	0003a603          	lw	a2,0(t2)
8000620c:	02912c23          	sw	s1,56(sp)
80006210:	00438393          	addi	t2,t2,4
80006214:	00000793          	li	a5,0
80006218:	02810493          	addi	s1,sp,40
8000621c:	00d12023          	sw	a3,0(sp)
80006220:	00812223          	sw	s0,4(sp)
80006224:	00767693          	andi	a3,a2,7
80006228:	00078313          	mv	t1,a5
8000622c:	00178793          	addi	a5,a5,1
80006230:	00f48433          	add	s0,s1,a5
80006234:	03068693          	addi	a3,a3,48
80006238:	fed40fa3          	sb	a3,-1(s0)
8000623c:	00365613          	srli	a2,a2,0x3
80006240:	fe0612e3          	bnez	a2,80006224 <vsprintf+0x340>
80006244:	00412403          	lw	s0,4(sp)
80006248:	00012683          	lw	a3,0(sp)
8000624c:	40f407b3          	sub	a5,s0,a5
80006250:	02f05063          	blez	a5,80006270 <vsprintf+0x38c>
80006254:	02000613          	li	a2,32
80006258:	00058463          	beqz	a1,80006260 <vsprintf+0x37c>
8000625c:	03000613          	li	a2,48
80006260:	00f687b3          	add	a5,a3,a5
80006264:	00168693          	addi	a3,a3,1
80006268:	fec68fa3          	sb	a2,-1(a3)
8000626c:	fef69ce3          	bne	a3,a5,80006264 <vsprintf+0x380>
80006270:	006487b3          	add	a5,s1,t1
80006274:	fff48413          	addi	s0,s1,-1
80006278:	00068613          	mv	a2,a3
8000627c:	0007c583          	lbu	a1,0(a5)
80006280:	fff78793          	addi	a5,a5,-1
80006284:	00160613          	addi	a2,a2,1
80006288:	feb60fa3          	sb	a1,-1(a2)
8000628c:	fef418e3          	bne	s0,a5,8000627c <vsprintf+0x398>
80006290:	00130313          	addi	t1,t1,1
80006294:	03812483          	lw	s1,56(sp)
80006298:	006686b3          	add	a3,a3,t1
8000629c:	c7dff06f          	j	80005f18 <vsprintf+0x34>
800062a0:	0003a783          	lw	a5,0(t2)
800062a4:	07800613          	li	a2,120
800062a8:	03000593          	li	a1,48
800062ac:	00c680a3          	sb	a2,1(a3)
800062b0:	00b68023          	sb	a1,0(a3)
800062b4:	00438613          	addi	a2,t2,4
800062b8:	22079c63          	bnez	a5,800064f0 <vsprintf+0x60c>
800062bc:	00b68123          	sb	a1,2(a3)
800062c0:	00060393          	mv	t2,a2
800062c4:	00368693          	addi	a3,a3,3
800062c8:	c51ff06f          	j	80005f18 <vsprintf+0x34>
800062cc:	0003a783          	lw	a5,0(t2)
800062d0:	00438393          	addi	t2,t2,4
800062d4:	0007c603          	lbu	a2,0(a5)
800062d8:	2a060063          	beqz	a2,80006578 <vsprintf+0x694>
800062dc:	00000593          	li	a1,0
800062e0:	00158593          	addi	a1,a1,1
800062e4:	00b78333          	add	t1,a5,a1
800062e8:	00034303          	lbu	t1,0(t1)
800062ec:	fe031ae3          	bnez	t1,800062e0 <vsprintf+0x3fc>
800062f0:	40b40433          	sub	s0,s0,a1
800062f4:	02805463          	blez	s0,8000631c <vsprintf+0x438>
800062f8:	00000613          	li	a2,0
800062fc:	02000313          	li	t1,32
80006300:	00c685b3          	add	a1,a3,a2
80006304:	00658023          	sb	t1,0(a1)
80006308:	00160613          	addi	a2,a2,1
8000630c:	fe864ae3          	blt	a2,s0,80006300 <vsprintf+0x41c>
80006310:	0007c603          	lbu	a2,0(a5)
80006314:	008686b3          	add	a3,a3,s0
80006318:	c00600e3          	beqz	a2,80005f18 <vsprintf+0x34>
8000631c:	00178793          	addi	a5,a5,1
80006320:	00c68023          	sb	a2,0(a3)
80006324:	0007c603          	lbu	a2,0(a5)
80006328:	00168693          	addi	a3,a3,1
8000632c:	be0606e3          	beqz	a2,80005f18 <vsprintf+0x34>
80006330:	00178793          	addi	a5,a5,1
80006334:	00c68023          	sb	a2,0(a3)
80006338:	0007c603          	lbu	a2,0(a5)
8000633c:	00168693          	addi	a3,a3,1
80006340:	fc061ee3          	bnez	a2,8000631c <vsprintf+0x438>
80006344:	bd5ff06f          	j	80005f18 <vsprintf+0x34>
80006348:	0003a783          	lw	a5,0(t2)
8000634c:	02912c23          	sw	s1,56(sp)
80006350:	00438393          	addi	t2,t2,4
80006354:	02810493          	addi	s1,sp,40
80006358:	00812823          	sw	s0,16(sp)
8000635c:	00912423          	sw	s1,8(sp)
80006360:	00d12623          	sw	a3,12(sp)
80006364:	00078413          	mv	s0,a5
80006368:	00e12a23          	sw	a4,20(sp)
8000636c:	00b12c23          	sw	a1,24(sp)
80006370:	00712e23          	sw	t2,28(sp)
80006374:	00000493          	li	s1,0
80006378:	02a12023          	sw	a0,32(sp)
8000637c:	00812783          	lw	a5,8(sp)
80006380:	00048313          	mv	t1,s1
80006384:	00148493          	addi	s1,s1,1
80006388:	00978733          	add	a4,a5,s1
8000638c:	00a00593          	li	a1,10
80006390:	00040513          	mv	a0,s0
80006394:	00612223          	sw	t1,4(sp)
80006398:	00e12023          	sw	a4,0(sp)
8000639c:	a0cff0ef          	jal	800055a8 <__umodsi3>
800063a0:	00012703          	lw	a4,0(sp)
800063a4:	03050513          	addi	a0,a0,48
800063a8:	00a00593          	li	a1,10
800063ac:	fea70fa3          	sb	a0,-1(a4)
800063b0:	00040513          	mv	a0,s0
800063b4:	00812023          	sw	s0,0(sp)
800063b8:	9a8ff0ef          	jal	80005560 <__hidden___udivsi3>
800063bc:	00012703          	lw	a4,0(sp)
800063c0:	00900793          	li	a5,9
800063c4:	00412303          	lw	t1,4(sp)
800063c8:	00050413          	mv	s0,a0
800063cc:	00078293          	mv	t0,a5
800063d0:	fae7e6e3          	bltu	a5,a4,8000637c <vsprintf+0x498>
800063d4:	01012403          	lw	s0,16(sp)
800063d8:	00c12683          	lw	a3,12(sp)
800063dc:	01412703          	lw	a4,20(sp)
800063e0:	409407b3          	sub	a5,s0,s1
800063e4:	01812583          	lw	a1,24(sp)
800063e8:	01c12383          	lw	t2,28(sp)
800063ec:	00812483          	lw	s1,8(sp)
800063f0:	02012503          	lw	a0,32(sp)
800063f4:	02f05063          	blez	a5,80006414 <vsprintf+0x530>
800063f8:	02000613          	li	a2,32
800063fc:	00058463          	beqz	a1,80006404 <vsprintf+0x520>
80006400:	03000613          	li	a2,48
80006404:	00f687b3          	add	a5,a3,a5
80006408:	00168693          	addi	a3,a3,1
8000640c:	fec68fa3          	sb	a2,-1(a3)
80006410:	fef69ce3          	bne	a3,a5,80006408 <vsprintf+0x524>
80006414:	006487b3          	add	a5,s1,t1
80006418:	fff48413          	addi	s0,s1,-1
8000641c:	00068613          	mv	a2,a3
80006420:	0007c583          	lbu	a1,0(a5)
80006424:	fff78793          	addi	a5,a5,-1
80006428:	00160613          	addi	a2,a2,1
8000642c:	feb60fa3          	sb	a1,-1(a2)
80006430:	fef418e3          	bne	s0,a5,80006420 <vsprintf+0x53c>
80006434:	00130313          	addi	t1,t1,1
80006438:	03812483          	lw	s1,56(sp)
8000643c:	006686b3          	add	a3,a3,t1
80006440:	ad9ff06f          	j	80005f18 <vsprintf+0x34>
80006444:	02500793          	li	a5,37
80006448:	00f68023          	sb	a5,0(a3)
8000644c:	00168693          	addi	a3,a3,1
80006450:	ac9ff06f          	j	80005f18 <vsprintf+0x34>
80006454:	00050023          	sb	zero,0(a0)
80006458:	00000413          	li	s0,0
8000645c:	04012083          	lw	ra,64(sp)
80006460:	00040513          	mv	a0,s0
80006464:	03c12403          	lw	s0,60(sp)
80006468:	04410113          	addi	sp,sp,68
8000646c:	00008067          	ret
80006470:	002307b3          	add	a5,t1,sp
80006474:	02d00593          	li	a1,45
80006478:	02b78423          	sb	a1,40(a5)
8000647c:	00260793          	addi	a5,a2,2
80006480:	40f407b3          	sub	a5,s0,a5
80006484:	02f05063          	blez	a5,800064a4 <vsprintf+0x5c0>
80006488:	00012583          	lw	a1,0(sp)
8000648c:	00058c63          	beqz	a1,800064a4 <vsprintf+0x5c0>
80006490:	02d00593          	li	a1,45
80006494:	00b68023          	sb	a1,0(a3)
80006498:	00168693          	addi	a3,a3,1
8000649c:	d1dff06f          	j	800061b8 <vsprintf+0x2d4>
800064a0:	00060313          	mv	t1,a2
800064a4:	00f685b3          	add	a1,a3,a5
800064a8:	00068613          	mv	a2,a3
800064ac:	02000393          	li	t2,32
800064b0:	00f05a63          	blez	a5,800064c4 <vsprintf+0x5e0>
800064b4:	00160613          	addi	a2,a2,1
800064b8:	fe760fa3          	sb	t2,-1(a2)
800064bc:	feb61ce3          	bne	a2,a1,800064b4 <vsprintf+0x5d0>
800064c0:	00060693          	mv	a3,a2
800064c4:	006487b3          	add	a5,s1,t1
800064c8:	fff48393          	addi	t2,s1,-1
800064cc:	00068613          	mv	a2,a3
800064d0:	0007c583          	lbu	a1,0(a5)
800064d4:	fff78793          	addi	a5,a5,-1
800064d8:	00160613          	addi	a2,a2,1
800064dc:	feb60fa3          	sb	a1,-1(a2)
800064e0:	fef398e3          	bne	t2,a5,800064d0 <vsprintf+0x5ec>
800064e4:	00130313          	addi	t1,t1,1
800064e8:	006686b3          	add	a3,a3,t1
800064ec:	d11ff06f          	j	800061fc <vsprintf+0x318>
800064f0:	00268593          	addi	a1,a3,2
800064f4:	02912c23          	sw	s1,56(sp)
800064f8:	00000313          	li	t1,0
800064fc:	02810493          	addi	s1,sp,40
80006500:	00900413          	li	s0,9
80006504:	00d12023          	sw	a3,0(sp)
80006508:	00b12223          	sw	a1,4(sp)
8000650c:	0080006f          	j	80006514 <vsprintf+0x630>
80006510:	00068313          	mv	t1,a3
80006514:	00f7f693          	andi	a3,a5,15
80006518:	05768593          	addi	a1,a3,87
8000651c:	00d46463          	bltu	s0,a3,80006524 <vsprintf+0x640>
80006520:	03068593          	addi	a1,a3,48
80006524:	00130693          	addi	a3,t1,1
80006528:	00d483b3          	add	t2,s1,a3
8000652c:	0047d793          	srli	a5,a5,0x4
80006530:	feb38fa3          	sb	a1,-1(t2)
80006534:	fc079ee3          	bnez	a5,80006510 <vsprintf+0x62c>
80006538:	00012683          	lw	a3,0(sp)
8000653c:	00412583          	lw	a1,4(sp)
80006540:	00330413          	addi	s0,t1,3
80006544:	006483b3          	add	t2,s1,t1
80006548:	00868433          	add	s0,a3,s0
8000654c:	00058793          	mv	a5,a1
80006550:	0003c683          	lbu	a3,0(t2)
80006554:	00178793          	addi	a5,a5,1
80006558:	fff38393          	addi	t2,t2,-1
8000655c:	fed78fa3          	sb	a3,-1(a5)
80006560:	fe8798e3          	bne	a5,s0,80006550 <vsprintf+0x66c>
80006564:	00158593          	addi	a1,a1,1
80006568:	03812483          	lw	s1,56(sp)
8000656c:	006586b3          	add	a3,a1,t1
80006570:	00060393          	mv	t2,a2
80006574:	9a5ff06f          	j	80005f18 <vsprintf+0x34>
80006578:	d88040e3          	bgtz	s0,800062f8 <vsprintf+0x414>
8000657c:	99dff06f          	j	80005f18 <vsprintf+0x34>

80006580 <sprintf>:
80006580:	fe810113          	addi	sp,sp,-24
80006584:	00810313          	addi	t1,sp,8
80006588:	00c12423          	sw	a2,8(sp)
8000658c:	00030613          	mv	a2,t1
80006590:	00112223          	sw	ra,4(sp)
80006594:	00d12623          	sw	a3,12(sp)
80006598:	00e12823          	sw	a4,16(sp)
8000659c:	00f12a23          	sw	a5,20(sp)
800065a0:	00612023          	sw	t1,0(sp)
800065a4:	941ff0ef          	jal	80005ee4 <vsprintf>
800065a8:	00412083          	lw	ra,4(sp)
800065ac:	01810113          	addi	sp,sp,24
800065b0:	00008067          	ret

800065b4 <__udivmoddi4>:
800065b4:	fe010113          	addi	sp,sp,-32
800065b8:	00812c23          	sw	s0,24(sp)
800065bc:	00912a23          	sw	s1,20(sp)
800065c0:	00112e23          	sw	ra,28(sp)
800065c4:	00070493          	mv	s1,a4
800065c8:	00050413          	mv	s0,a0
800065cc:	04059463          	bnez	a1,80006614 <__udivmoddi4+0x60>
800065d0:	1e069263          	bnez	a3,800067b4 <__udivmoddi4+0x200>
800065d4:	00070e63          	beqz	a4,800065f0 <__udivmoddi4+0x3c>
800065d8:	00060593          	mv	a1,a2
800065dc:	00c12023          	sw	a2,0(sp)
800065e0:	fc9fe0ef          	jal	800055a8 <__umodsi3>
800065e4:	00012603          	lw	a2,0(sp)
800065e8:	0004a223          	sw	zero,4(s1)
800065ec:	00a4a023          	sw	a0,0(s1)
800065f0:	00060593          	mv	a1,a2
800065f4:	00040513          	mv	a0,s0
800065f8:	f69fe0ef          	jal	80005560 <__hidden___udivsi3>
800065fc:	01c12083          	lw	ra,28(sp)
80006600:	01812403          	lw	s0,24(sp)
80006604:	01412483          	lw	s1,20(sp)
80006608:	00000593          	li	a1,0
8000660c:	02010113          	addi	sp,sp,32
80006610:	00008067          	ret
80006614:	00058313          	mv	t1,a1
80006618:	12061263          	bnez	a2,8000673c <__udivmoddi4+0x188>
8000661c:	20068863          	beqz	a3,8000682c <__udivmoddi4+0x278>
80006620:	28050a63          	beqz	a0,800068b4 <__udivmoddi4+0x300>
80006624:	fff68713          	addi	a4,a3,-1
80006628:	00d775b3          	and	a1,a4,a3
8000662c:	2c058863          	beqz	a1,800068fc <__udivmoddi4+0x348>
80006630:	00068513          	mv	a0,a3
80006634:	00c12823          	sw	a2,16(sp)
80006638:	00612623          	sw	t1,12(sp)
8000663c:	00612223          	sw	t1,4(sp)
80006640:	00d12423          	sw	a3,8(sp)
80006644:	34c000ef          	jal	80006990 <__clzsi2>
80006648:	00a12023          	sw	a0,0(sp)
8000664c:	00412503          	lw	a0,4(sp)
80006650:	340000ef          	jal	80006990 <__clzsi2>
80006654:	00012783          	lw	a5,0(sp)
80006658:	01e00713          	li	a4,30
8000665c:	00812683          	lw	a3,8(sp)
80006660:	40a78533          	sub	a0,a5,a0
80006664:	00c12303          	lw	t1,12(sp)
80006668:	00412783          	lw	a5,4(sp)
8000666c:	01012603          	lw	a2,16(sp)
80006670:	1ca76063          	bltu	a4,a0,80006830 <__udivmoddi4+0x27c>
80006674:	00150513          	addi	a0,a0,1
80006678:	02000593          	li	a1,32
8000667c:	40a585b3          	sub	a1,a1,a0
80006680:	00b79333          	sll	t1,a5,a1
80006684:	00a45733          	srl	a4,s0,a0
80006688:	00a7d3b3          	srl	t2,a5,a0
8000668c:	00b415b3          	sll	a1,s0,a1
80006690:	00e367b3          	or	a5,t1,a4
80006694:	00000293          	li	t0,0
80006698:	00000313          	li	t1,0
8000669c:	01f5d413          	srli	s0,a1,0x1f
800066a0:	00179713          	slli	a4,a5,0x1
800066a4:	00876733          	or	a4,a4,s0
800066a8:	01f7d793          	srli	a5,a5,0x1f
800066ac:	00139393          	slli	t2,t2,0x1
800066b0:	00f3e3b3          	or	t2,t2,a5
800066b4:	00159413          	slli	s0,a1,0x1
800066b8:	40e607b3          	sub	a5,a2,a4
800066bc:	01f2d593          	srli	a1,t0,0x1f
800066c0:	00129293          	slli	t0,t0,0x1
800066c4:	00b465b3          	or	a1,s0,a1
800066c8:	0062e2b3          	or	t0,t0,t1
800066cc:	00f63433          	sltu	s0,a2,a5
800066d0:	40768333          	sub	t1,a3,t2
800066d4:	0017b793          	seqz	a5,a5
800066d8:	40830333          	sub	t1,t1,s0
800066dc:	40f30333          	sub	t1,t1,a5
800066e0:	41f35793          	srai	a5,t1,0x1f
800066e4:	00d7f433          	and	s0,a5,a3
800066e8:	00c7f7b3          	and	a5,a5,a2
800066ec:	40f707b3          	sub	a5,a4,a5
800066f0:	40838433          	sub	s0,t2,s0
800066f4:	00f73733          	sltu	a4,a4,a5
800066f8:	fff50513          	addi	a0,a0,-1
800066fc:	01f35313          	srli	t1,t1,0x1f
80006700:	40e403b3          	sub	t2,s0,a4
80006704:	f8051ce3          	bnez	a0,8000669c <__udivmoddi4+0xe8>
80006708:	00159593          	slli	a1,a1,0x1
8000670c:	01f2d713          	srli	a4,t0,0x1f
80006710:	00129513          	slli	a0,t0,0x1
80006714:	00b705b3          	add	a1,a4,a1
80006718:	00656533          	or	a0,a0,t1
8000671c:	0a048663          	beqz	s1,800067c8 <__udivmoddi4+0x214>
80006720:	01c12083          	lw	ra,28(sp)
80006724:	01812403          	lw	s0,24(sp)
80006728:	00f4a023          	sw	a5,0(s1)
8000672c:	0074a223          	sw	t2,4(s1)
80006730:	01412483          	lw	s1,20(sp)
80006734:	02010113          	addi	sp,sp,32
80006738:	00008067          	ret
8000673c:	0a068063          	beqz	a3,800067dc <__udivmoddi4+0x228>
80006740:	00068513          	mv	a0,a3
80006744:	00c12823          	sw	a2,16(sp)
80006748:	00b12423          	sw	a1,8(sp)
8000674c:	00b12223          	sw	a1,4(sp)
80006750:	00d12623          	sw	a3,12(sp)
80006754:	23c000ef          	jal	80006990 <__clzsi2>
80006758:	00a12023          	sw	a0,0(sp)
8000675c:	00412503          	lw	a0,4(sp)
80006760:	230000ef          	jal	80006990 <__clzsi2>
80006764:	00012783          	lw	a5,0(sp)
80006768:	01f00713          	li	a4,31
8000676c:	00812303          	lw	t1,8(sp)
80006770:	40a78533          	sub	a0,a5,a0
80006774:	0aa76e63          	bltu	a4,a0,80006830 <__udivmoddi4+0x27c>
80006778:	00150513          	addi	a0,a0,1
8000677c:	02000713          	li	a4,32
80006780:	00412783          	lw	a5,4(sp)
80006784:	00c12683          	lw	a3,12(sp)
80006788:	01012603          	lw	a2,16(sp)
8000678c:	00040593          	mv	a1,s0
80006790:	18e50c63          	beq	a0,a4,80006928 <__udivmoddi4+0x374>
80006794:	40a70733          	sub	a4,a4,a0
80006798:	00e792b3          	sll	t0,a5,a4
8000679c:	00a45333          	srl	t1,s0,a0
800067a0:	00a7d3b3          	srl	t2,a5,a0
800067a4:	00e415b3          	sll	a1,s0,a4
800067a8:	0062e7b3          	or	a5,t0,t1
800067ac:	00000293          	li	t0,0
800067b0:	ee9ff06f          	j	80006698 <__udivmoddi4+0xe4>
800067b4:	00070663          	beqz	a4,800067c0 <__udivmoddi4+0x20c>
800067b8:	00a4a023          	sw	a0,0(s1)
800067bc:	00072223          	sw	zero,4(a4)
800067c0:	00000513          	li	a0,0
800067c4:	00000593          	li	a1,0
800067c8:	01c12083          	lw	ra,28(sp)
800067cc:	01812403          	lw	s0,24(sp)
800067d0:	01412483          	lw	s1,20(sp)
800067d4:	02010113          	addi	sp,sp,32
800067d8:	00008067          	ret
800067dc:	fff60713          	addi	a4,a2,-1
800067e0:	00c775b3          	and	a1,a4,a2
800067e4:	04059e63          	bnez	a1,80006840 <__udivmoddi4+0x28c>
800067e8:	00048863          	beqz	s1,800067f8 <__udivmoddi4+0x244>
800067ec:	00a77733          	and	a4,a4,a0
800067f0:	00e4a023          	sw	a4,0(s1)
800067f4:	0004a223          	sw	zero,4(s1)
800067f8:	00100793          	li	a5,1
800067fc:	0ef60a63          	beq	a2,a5,800068f0 <__udivmoddi4+0x33c>
80006800:	00060513          	mv	a0,a2
80006804:	00612023          	sw	t1,0(sp)
80006808:	218000ef          	jal	80006a20 <__ctzsi2>
8000680c:	00012303          	lw	t1,0(sp)
80006810:	02000293          	li	t0,32
80006814:	40a282b3          	sub	t0,t0,a0
80006818:	00a45733          	srl	a4,s0,a0
8000681c:	005312b3          	sll	t0,t1,t0
80006820:	00a355b3          	srl	a1,t1,a0
80006824:	00e2e533          	or	a0,t0,a4
80006828:	fa1ff06f          	j	800067c8 <__udivmoddi4+0x214>
8000682c:	00100073          	ebreak
80006830:	f80488e3          	beqz	s1,800067c0 <__udivmoddi4+0x20c>
80006834:	0084a023          	sw	s0,0(s1)
80006838:	0064a223          	sw	t1,4(s1)
8000683c:	f85ff06f          	j	800067c0 <__udivmoddi4+0x20c>
80006840:	00060513          	mv	a0,a2
80006844:	00d12823          	sw	a3,16(sp)
80006848:	00612223          	sw	t1,4(sp)
8000684c:	00d12623          	sw	a3,12(sp)
80006850:	00c12423          	sw	a2,8(sp)
80006854:	13c000ef          	jal	80006990 <__clzsi2>
80006858:	00a12023          	sw	a0,0(sp)
8000685c:	00412503          	lw	a0,4(sp)
80006860:	130000ef          	jal	80006990 <__clzsi2>
80006864:	00012783          	lw	a5,0(sp)
80006868:	02000313          	li	t1,32
8000686c:	00812603          	lw	a2,8(sp)
80006870:	40a78733          	sub	a4,a5,a0
80006874:	02170513          	addi	a0,a4,33
80006878:	00412783          	lw	a5,4(sp)
8000687c:	00c12283          	lw	t0,12(sp)
80006880:	01012683          	lw	a3,16(sp)
80006884:	00040593          	mv	a1,s0
80006888:	00000393          	li	t2,0
8000688c:	e06506e3          	beq	a0,t1,80006698 <__udivmoddi4+0xe4>
80006890:	01f00413          	li	s0,31
80006894:	0aa46063          	bltu	s0,a0,80006934 <__udivmoddi4+0x380>
80006898:	40a30333          	sub	t1,t1,a0
8000689c:	00a5d733          	srl	a4,a1,a0
800068a0:	00679433          	sll	s0,a5,t1
800068a4:	00a7d3b3          	srl	t2,a5,a0
800068a8:	006595b3          	sll	a1,a1,t1
800068ac:	00e467b3          	or	a5,s0,a4
800068b0:	de9ff06f          	j	80006698 <__udivmoddi4+0xe4>
800068b4:	02070463          	beqz	a4,800068dc <__udivmoddi4+0x328>
800068b8:	00068593          	mv	a1,a3
800068bc:	00030513          	mv	a0,t1
800068c0:	00d12223          	sw	a3,4(sp)
800068c4:	00612023          	sw	t1,0(sp)
800068c8:	ce1fe0ef          	jal	800055a8 <__umodsi3>
800068cc:	00412683          	lw	a3,4(sp)
800068d0:	00012303          	lw	t1,0(sp)
800068d4:	0004a023          	sw	zero,0(s1)
800068d8:	00a4a223          	sw	a0,4(s1)
800068dc:	00068593          	mv	a1,a3
800068e0:	00030513          	mv	a0,t1
800068e4:	c7dfe0ef          	jal	80005560 <__hidden___udivsi3>
800068e8:	00000593          	li	a1,0
800068ec:	eddff06f          	j	800067c8 <__udivmoddi4+0x214>
800068f0:	00040513          	mv	a0,s0
800068f4:	00030593          	mv	a1,t1
800068f8:	ed1ff06f          	j	800067c8 <__udivmoddi4+0x214>
800068fc:	00048863          	beqz	s1,8000690c <__udivmoddi4+0x358>
80006900:	00677733          	and	a4,a4,t1
80006904:	00e4a223          	sw	a4,4(s1)
80006908:	00a4a023          	sw	a0,0(s1)
8000690c:	00068513          	mv	a0,a3
80006910:	00612023          	sw	t1,0(sp)
80006914:	10c000ef          	jal	80006a20 <__ctzsi2>
80006918:	00012303          	lw	t1,0(sp)
8000691c:	00000593          	li	a1,0
80006920:	00a35533          	srl	a0,t1,a0
80006924:	ea5ff06f          	j	800067c8 <__udivmoddi4+0x214>
80006928:	00000393          	li	t2,0
8000692c:	00000293          	li	t0,0
80006930:	d69ff06f          	j	80006698 <__udivmoddi4+0xe4>
80006934:	04000313          	li	t1,64
80006938:	00170713          	addi	a4,a4,1
8000693c:	40a30333          	sub	t1,t1,a0
80006940:	006592b3          	sll	t0,a1,t1
80006944:	00679333          	sll	t1,a5,t1
80006948:	00e5d5b3          	srl	a1,a1,a4
8000694c:	00b365b3          	or	a1,t1,a1
80006950:	00e7d7b3          	srl	a5,a5,a4
80006954:	d45ff06f          	j	80006698 <__udivmoddi4+0xe4>

80006958 <__udivdi3>:
80006958:	00000713          	li	a4,0
8000695c:	c59ff06f          	j	800065b4 <__udivmoddi4>

80006960 <__umoddi3>:
80006960:	fec10113          	addi	sp,sp,-20
80006964:	00b10713          	addi	a4,sp,11
80006968:	ff877713          	andi	a4,a4,-8
8000696c:	00112823          	sw	ra,16(sp)
80006970:	00e12023          	sw	a4,0(sp)
80006974:	c41ff0ef          	jal	800065b4 <__udivmoddi4>
80006978:	00012703          	lw	a4,0(sp)
8000697c:	01012083          	lw	ra,16(sp)
80006980:	00072503          	lw	a0,0(a4)
80006984:	00472583          	lw	a1,4(a4)
80006988:	01410113          	addi	sp,sp,20
8000698c:	00008067          	ret

80006990 <__clzsi2>:
80006990:	000106b7          	lui	a3,0x10
80006994:	00d536b3          	sltu	a3,a0,a3
80006998:	00469693          	slli	a3,a3,0x4
8000699c:	01000793          	li	a5,16
800069a0:	40d787b3          	sub	a5,a5,a3
800069a4:	00010737          	lui	a4,0x10
800069a8:	00f557b3          	srl	a5,a0,a5
800069ac:	f0070713          	addi	a4,a4,-256 # ff00 <_entry_offset+0xff00>
800069b0:	00e7f733          	and	a4,a5,a4
800069b4:	00173713          	seqz	a4,a4
800069b8:	00371713          	slli	a4,a4,0x3
800069bc:	00800613          	li	a2,8
800069c0:	40e60633          	sub	a2,a2,a4
800069c4:	00c7d7b3          	srl	a5,a5,a2
800069c8:	00d70733          	add	a4,a4,a3
800069cc:	0f07f693          	andi	a3,a5,240
800069d0:	0016b693          	seqz	a3,a3
800069d4:	00269693          	slli	a3,a3,0x2
800069d8:	00400613          	li	a2,4
800069dc:	40d60633          	sub	a2,a2,a3
800069e0:	00c7d7b3          	srl	a5,a5,a2
800069e4:	00e686b3          	add	a3,a3,a4
800069e8:	00c7f713          	andi	a4,a5,12
800069ec:	00173713          	seqz	a4,a4
800069f0:	00200513          	li	a0,2
800069f4:	00171713          	slli	a4,a4,0x1
800069f8:	40e50633          	sub	a2,a0,a4
800069fc:	00c7d7b3          	srl	a5,a5,a2
80006a00:	0017d613          	srli	a2,a5,0x1
80006a04:	00167613          	andi	a2,a2,1
80006a08:	40f50533          	sub	a0,a0,a5
80006a0c:	00060463          	beqz	a2,80006a14 <__clzsi2+0x84>
80006a10:	00000513          	li	a0,0
80006a14:	00d70733          	add	a4,a4,a3
80006a18:	00e50533          	add	a0,a0,a4
80006a1c:	00008067          	ret

80006a20 <__ctzsi2>:
80006a20:	01051313          	slli	t1,a0,0x10
80006a24:	01035313          	srli	t1,t1,0x10
80006a28:	00133313          	seqz	t1,t1
80006a2c:	00431313          	slli	t1,t1,0x4
80006a30:	006557b3          	srl	a5,a0,t1
80006a34:	0ff7f613          	zext.b	a2,a5
80006a38:	00163613          	seqz	a2,a2
80006a3c:	00361613          	slli	a2,a2,0x3
80006a40:	00c7d7b3          	srl	a5,a5,a2
80006a44:	00f7f693          	andi	a3,a5,15
80006a48:	0016b693          	seqz	a3,a3
80006a4c:	00269693          	slli	a3,a3,0x2
80006a50:	00d7d7b3          	srl	a5,a5,a3
80006a54:	0037f713          	andi	a4,a5,3
80006a58:	00173713          	seqz	a4,a4
80006a5c:	00171713          	slli	a4,a4,0x1
80006a60:	00e7d7b3          	srl	a5,a5,a4
80006a64:	0037f793          	andi	a5,a5,3
80006a68:	00660633          	add	a2,a2,t1
80006a6c:	fff7c313          	not	t1,a5
80006a70:	00c686b3          	add	a3,a3,a2
80006a74:	0017d793          	srli	a5,a5,0x1
80006a78:	01f31613          	slli	a2,t1,0x1f
80006a7c:	00200593          	li	a1,2
80006a80:	41f65313          	srai	t1,a2,0x1f
80006a84:	40f585b3          	sub	a1,a1,a5
80006a88:	00d70533          	add	a0,a4,a3
80006a8c:	00b375b3          	and	a1,t1,a1
80006a90:	00a58533          	add	a0,a1,a0
80006a94:	00008067          	ret

80006a98 <strcmp>:
80006a98:	00054783          	lbu	a5,0(a0)
80006a9c:	00079c63          	bnez	a5,80006ab4 <strcmp+0x1c>
80006aa0:	0340006f          	j	80006ad4 <strcmp+0x3c>
80006aa4:	00070e63          	beqz	a4,80006ac0 <strcmp+0x28>
80006aa8:	00054783          	lbu	a5,0(a0)
80006aac:	00078e63          	beqz	a5,80006ac8 <strcmp+0x30>
80006ab0:	00158593          	addi	a1,a1,1
80006ab4:	0005c703          	lbu	a4,0(a1)
80006ab8:	00150513          	addi	a0,a0,1
80006abc:	fef704e3          	beq	a4,a5,80006aa4 <strcmp+0xc>
80006ac0:	40e78533          	sub	a0,a5,a4
80006ac4:	00008067          	ret
80006ac8:	0015c703          	lbu	a4,1(a1)
80006acc:	40e78533          	sub	a0,a5,a4
80006ad0:	00008067          	ret
80006ad4:	0005c703          	lbu	a4,0(a1)
80006ad8:	fe9ff06f          	j	80006ac0 <strcmp+0x28>
