
/home/yunhai/ysyx-workbench/am-kernels/kernels/yield-os/build/yield-os-riscv32e-npc.elf:     file format elf32-littleriscv


Disassembly of section .text:

80000000 <_start>:
80000000:	00000413          	li	s0,0
80000004:	00021117          	auipc	sp,0x21
80000008:	ffc10113          	addi	sp,sp,-4 # 80021000 <_end>
8000000c:	1a4000ef          	jal	800001b0 <_trm_init>

80000010 <schedule>:
80000010:	00001717          	auipc	a4,0x1
80000014:	db872703          	lw	a4,-584(a4) # 80000dc8 <current>
80000018:	00009797          	auipc	a5,0x9
8000001c:	db478793          	addi	a5,a5,-588 # 80008dcc <pcb>
80000020:	00b72023          	sw	a1,0(a4)
80000024:	00f70a63          	beq	a4,a5,80000038 <schedule+0x28>
80000028:	0007a503          	lw	a0,0(a5)
8000002c:	00001717          	auipc	a4,0x1
80000030:	d8f72e23          	sw	a5,-612(a4) # 80000dc8 <current>
80000034:	00008067          	ret
80000038:	00011797          	auipc	a5,0x11
8000003c:	d9478793          	addi	a5,a5,-620 # 80010dcc <pcb+0x8000>
80000040:	0007a503          	lw	a0,0(a5)
80000044:	00001717          	auipc	a4,0x1
80000048:	d8f72223          	sw	a5,-636(a4) # 80000dc8 <current>
8000004c:	00008067          	ret

80000050 <f>:
80000050:	00353793          	sltiu	a5,a0,3
80000054:	40f007b3          	neg	a5,a5
80000058:	00f57533          	and	a0,a0,a5
8000005c:	00001797          	auipc	a5,0x1
80000060:	bd478793          	addi	a5,a5,-1068 # 80000c30 <_etext>
80000064:	ff410113          	addi	sp,sp,-12
80000068:	00a787b3          	add	a5,a5,a0
8000006c:	00812223          	sw	s0,4(sp)
80000070:	0007c403          	lbu	s0,0(a5)
80000074:	00112423          	sw	ra,8(sp)
80000078:	00040513          	mv	a0,s0
8000007c:	11c000ef          	jal	80000198 <putch>
80000080:	00012023          	sw	zero,0(sp)
80000084:	00012783          	lw	a5,0(sp)
80000088:	06300713          	li	a4,99
8000008c:	00f74c63          	blt	a4,a5,800000a4 <f+0x54>
80000090:	00012783          	lw	a5,0(sp)
80000094:	00178793          	addi	a5,a5,1
80000098:	00f12023          	sw	a5,0(sp)
8000009c:	00012783          	lw	a5,0(sp)
800000a0:	fef758e3          	bge	a4,a5,80000090 <f+0x40>
800000a4:	218000ef          	jal	800002bc <yield>
800000a8:	fd1ff06f          	j	80000078 <f+0x28>

800000ac <main>:
800000ac:	fe410113          	addi	sp,sp,-28
800000b0:	00000517          	auipc	a0,0x0
800000b4:	f6050513          	addi	a0,a0,-160 # 80000010 <schedule>
800000b8:	00112c23          	sw	ra,24(sp)
800000bc:	00812a23          	sw	s0,20(sp)
800000c0:	00912823          	sw	s1,16(sp)
800000c4:	1ac000ef          	jal	80000270 <cte_init>
800000c8:	00011597          	auipc	a1,0x11
800000cc:	d0458593          	addi	a1,a1,-764 # 80010dcc <pcb+0x8000>
800000d0:	00100693          	li	a3,1
800000d4:	00000617          	auipc	a2,0x0
800000d8:	f7c60613          	addi	a2,a2,-132 # 80000050 <f>
800000dc:	00009517          	auipc	a0,0x9
800000e0:	cf050513          	addi	a0,a0,-784 # 80008dcc <pcb>
800000e4:	1b4000ef          	jal	80000298 <kcontext>
800000e8:	00009797          	auipc	a5,0x9
800000ec:	ce478793          	addi	a5,a5,-796 # 80008dcc <pcb>
800000f0:	00a7a023          	sw	a0,0(a5)
800000f4:	00200693          	li	a3,2
800000f8:	00000617          	auipc	a2,0x0
800000fc:	f5860613          	addi	a2,a2,-168 # 80000050 <f>
80000100:	00019597          	auipc	a1,0x19
80000104:	ccc58593          	addi	a1,a1,-820 # 80018dcc <user_handler>
80000108:	00011517          	auipc	a0,0x11
8000010c:	cc450513          	addi	a0,a0,-828 # 80010dcc <pcb+0x8000>
80000110:	188000ef          	jal	80000298 <kcontext>
80000114:	00011797          	auipc	a5,0x11
80000118:	cb878793          	addi	a5,a5,-840 # 80010dcc <pcb+0x8000>
8000011c:	00a7a023          	sw	a0,0(a5)
80000120:	19c000ef          	jal	800002bc <yield>
80000124:	00001417          	auipc	s0,0x1
80000128:	b1040413          	addi	s0,s0,-1264 # 80000c34 <_etext+0x4>
8000012c:	04100513          	li	a0,65
80000130:	00001497          	auipc	s1,0x1
80000134:	b0e48493          	addi	s1,s1,-1266 # 80000c3e <_etext+0xe>
80000138:	060000ef          	jal	80000198 <putch>
8000013c:	00140413          	addi	s0,s0,1
80000140:	00044503          	lbu	a0,0(s0)
80000144:	fe941ae3          	bne	s0,s1,80000138 <main+0x8c>
80000148:	00001417          	auipc	s0,0x1
8000014c:	af840413          	addi	s0,s0,-1288 # 80000c40 <_etext+0x10>
80000150:	05300513          	li	a0,83
80000154:	00001497          	auipc	s1,0x1
80000158:	b0248493          	addi	s1,s1,-1278 # 80000c56 <_etext+0x26>
8000015c:	03c000ef          	jal	80000198 <putch>
80000160:	00140413          	addi	s0,s0,1
80000164:	00044503          	lbu	a0,0(s0)
80000168:	fe941ae3          	bne	s0,s1,8000015c <main+0xb0>
8000016c:	00001417          	auipc	s0,0x1
80000170:	aec40413          	addi	s0,s0,-1300 # 80000c58 <_etext+0x28>
80000174:	02000513          	li	a0,32
80000178:	00001497          	auipc	s1,0x1
8000017c:	b2b48493          	addi	s1,s1,-1237 # 80000ca3 <_etext+0x73>
80000180:	018000ef          	jal	80000198 <putch>
80000184:	00140413          	addi	s0,s0,1
80000188:	00044503          	lbu	a0,0(s0)
8000018c:	fe941ae3          	bne	s0,s1,80000180 <main+0xd4>
80000190:	00100513          	li	a0,1
80000194:	010000ef          	jal	800001a4 <halt>

80000198 <putch>:
80000198:	100007b7          	lui	a5,0x10000
8000019c:	00a78023          	sb	a0,0(a5) # 10000000 <_entry_offset+0x10000000>
800001a0:	00008067          	ret

800001a4 <halt>:
800001a4:	00050513          	mv	a0,a0
800001a8:	00100073          	ebreak
800001ac:	0000006f          	j	800001ac <halt+0x8>

800001b0 <_trm_init>:
800001b0:	ffc10113          	addi	sp,sp,-4
800001b4:	00001517          	auipc	a0,0x1
800001b8:	b5050513          	addi	a0,a0,-1200 # 80000d04 <mainargs>
800001bc:	00112023          	sw	ra,0(sp)
800001c0:	eedff0ef          	jal	800000ac <main>
800001c4:	00050513          	mv	a0,a0
800001c8:	00100073          	ebreak
800001cc:	0000006f          	j	800001cc <_trm_init+0x1c>

800001d0 <__am_irq_handle>:
800001d0:	04852783          	lw	a5,72(a0)
800001d4:	00019717          	auipc	a4,0x19
800001d8:	bf872703          	lw	a4,-1032(a4) # 80018dcc <user_handler>
800001dc:	00478793          	addi	a5,a5,4
800001e0:	04f52423          	sw	a5,72(a0)
800001e4:	06070463          	beqz	a4,8000024c <__am_irq_handle+0x7c>
800001e8:	04052603          	lw	a2,64(a0)
800001ec:	fdc10113          	addi	sp,sp,-36
800001f0:	02112023          	sw	ra,32(sp)
800001f4:	00012a23          	sw	zero,20(sp)
800001f8:	00012c23          	sw	zero,24(sp)
800001fc:	00012e23          	sw	zero,28(sp)
80000200:	00b00693          	li	a3,11
80000204:	00400793          	li	a5,4
80000208:	02d60e63          	beq	a2,a3,80000244 <__am_irq_handle+0x74>
8000020c:	01812603          	lw	a2,24(sp)
80000210:	01c12683          	lw	a3,28(sp)
80000214:	00050593          	mv	a1,a0
80000218:	01412503          	lw	a0,20(sp)
8000021c:	00f12023          	sw	a5,0(sp)
80000220:	00c12423          	sw	a2,8(sp)
80000224:	00a12223          	sw	a0,4(sp)
80000228:	00d12623          	sw	a3,12(sp)
8000022c:	00010513          	mv	a0,sp
80000230:	000700e7          	jalr	a4
80000234:	00050e63          	beqz	a0,80000250 <__am_irq_handle+0x80>
80000238:	02012083          	lw	ra,32(sp)
8000023c:	02410113          	addi	sp,sp,36
80000240:	00008067          	ret
80000244:	00100793          	li	a5,1
80000248:	fc5ff06f          	j	8000020c <__am_irq_handle+0x3c>
8000024c:	00008067          	ret
80000250:	01100613          	li	a2,17
80000254:	00001597          	auipc	a1,0x1
80000258:	a5058593          	addi	a1,a1,-1456 # 80000ca4 <_etext+0x74>
8000025c:	00001517          	auipc	a0,0x1
80000260:	a8c50513          	addi	a0,a0,-1396 # 80000ce8 <_etext+0xb8>
80000264:	118000ef          	jal	8000037c <printf>
80000268:	00100513          	li	a0,1
8000026c:	f39ff0ef          	jal	800001a4 <halt>

80000270 <cte_init>:
80000270:	00000797          	auipc	a5,0x0
80000274:	05878793          	addi	a5,a5,88 # 800002c8 <__am_asm_trap>
80000278:	30579073          	csrw	mtvec,a5
8000027c:	000027b7          	lui	a5,0x2
80000280:	80078793          	addi	a5,a5,-2048 # 1800 <_entry_offset+0x1800>
80000284:	30079073          	csrw	mstatus,a5
80000288:	00019797          	auipc	a5,0x19
8000028c:	b4a7a223          	sw	a0,-1212(a5) # 80018dcc <user_handler>
80000290:	00100513          	li	a0,1
80000294:	00008067          	ret

80000298 <kcontext>:
80000298:	000027b7          	lui	a5,0x2
8000029c:	80078793          	addi	a5,a5,-2048 # 1800 <_entry_offset+0x1800>
800002a0:	ff810113          	addi	sp,sp,-8
800002a4:	fcd5ac23          	sw	a3,-40(a1)
800002a8:	fec5ac23          	sw	a2,-8(a1)
800002ac:	fef5aa23          	sw	a5,-12(a1)
800002b0:	fb058513          	addi	a0,a1,-80
800002b4:	00810113          	addi	sp,sp,8
800002b8:	00008067          	ret

800002bc <yield>:
800002bc:	fff00793          	li	a5,-1
800002c0:	00000073          	ecall
800002c4:	00008067          	ret

800002c8 <__am_asm_trap>:
800002c8:	fb010113          	addi	sp,sp,-80
800002cc:	00112223          	sw	ra,4(sp)
800002d0:	00312623          	sw	gp,12(sp)
800002d4:	00412823          	sw	tp,16(sp)
800002d8:	00512a23          	sw	t0,20(sp)
800002dc:	00612c23          	sw	t1,24(sp)
800002e0:	00712e23          	sw	t2,28(sp)
800002e4:	02812023          	sw	s0,32(sp)
800002e8:	02912223          	sw	s1,36(sp)
800002ec:	02a12423          	sw	a0,40(sp)
800002f0:	02b12623          	sw	a1,44(sp)
800002f4:	02c12823          	sw	a2,48(sp)
800002f8:	02d12a23          	sw	a3,52(sp)
800002fc:	02e12c23          	sw	a4,56(sp)
80000300:	02f12e23          	sw	a5,60(sp)
80000304:	342022f3          	csrr	t0,mcause
80000308:	30002373          	csrr	t1,mstatus
8000030c:	341023f3          	csrr	t2,mepc
80000310:	04512023          	sw	t0,64(sp)
80000314:	04612223          	sw	t1,68(sp)
80000318:	04712423          	sw	t2,72(sp)
8000031c:	00010513          	mv	a0,sp
80000320:	eb1ff0ef          	jal	800001d0 <__am_irq_handle>
80000324:	00050113          	mv	sp,a0
80000328:	04412303          	lw	t1,68(sp)
8000032c:	04812383          	lw	t2,72(sp)
80000330:	30031073          	csrw	mstatus,t1
80000334:	34139073          	csrw	mepc,t2
80000338:	00412083          	lw	ra,4(sp)
8000033c:	00c12183          	lw	gp,12(sp)
80000340:	01012203          	lw	tp,16(sp)
80000344:	01412283          	lw	t0,20(sp)
80000348:	01812303          	lw	t1,24(sp)
8000034c:	01c12383          	lw	t2,28(sp)
80000350:	02012403          	lw	s0,32(sp)
80000354:	02412483          	lw	s1,36(sp)
80000358:	02812503          	lw	a0,40(sp)
8000035c:	02c12583          	lw	a1,44(sp)
80000360:	03012603          	lw	a2,48(sp)
80000364:	03412683          	lw	a3,52(sp)
80000368:	03812703          	lw	a4,56(sp)
8000036c:	03c12783          	lw	a5,60(sp)
80000370:	05010113          	addi	sp,sp,80
80000374:	30200073          	mret
80000378:	00000013          	nop

8000037c <printf>:
8000037c:	fac10113          	addi	sp,sp,-84
80000380:	02812c23          	sw	s0,56(sp)
80000384:	04f12823          	sw	a5,80(sp)
80000388:	02112e23          	sw	ra,60(sp)
8000038c:	04b12023          	sw	a1,64(sp)
80000390:	04c12223          	sw	a2,68(sp)
80000394:	04d12423          	sw	a3,72(sp)
80000398:	04e12623          	sw	a4,76(sp)
8000039c:	00050413          	mv	s0,a0
800003a0:	00054503          	lbu	a0,0(a0)
800003a4:	04010793          	addi	a5,sp,64
800003a8:	02f12023          	sw	a5,32(sp)
800003ac:	7a050863          	beqz	a0,80000b5c <printf+0x7e0>
800003b0:	02912a23          	sw	s1,52(sp)
800003b4:	00012023          	sw	zero,0(sp)
800003b8:	0240006f          	j	800003dc <printf+0x60>
800003bc:	dddff0ef          	jal	80000198 <putch>
800003c0:	00012783          	lw	a5,0(sp)
800003c4:	00040713          	mv	a4,s0
800003c8:	00178793          	addi	a5,a5,1
800003cc:	00f12023          	sw	a5,0(sp)
800003d0:	00174503          	lbu	a0,1(a4)
800003d4:	00170413          	addi	s0,a4,1
800003d8:	0a050863          	beqz	a0,80000488 <printf+0x10c>
800003dc:	02500793          	li	a5,37
800003e0:	fcf51ee3          	bne	a0,a5,800003bc <printf+0x40>
800003e4:	00144683          	lbu	a3,1(s0)
800003e8:	03000793          	li	a5,48
800003ec:	00140713          	addi	a4,s0,1
800003f0:	00000293          	li	t0,0
800003f4:	00f69863          	bne	a3,a5,80000404 <printf+0x88>
800003f8:	00244683          	lbu	a3,2(s0)
800003fc:	00240713          	addi	a4,s0,2
80000400:	00100293          	li	t0,1
80000404:	fd068613          	addi	a2,a3,-48
80000408:	0ff67593          	zext.b	a1,a2
8000040c:	00900513          	li	a0,9
80000410:	00000793          	li	a5,0
80000414:	02b56863          	bltu	a0,a1,80000444 <printf+0xc8>
80000418:	00078593          	mv	a1,a5
8000041c:	00259793          	slli	a5,a1,0x2
80000420:	00174683          	lbu	a3,1(a4)
80000424:	00b787b3          	add	a5,a5,a1
80000428:	00179793          	slli	a5,a5,0x1
8000042c:	00f605b3          	add	a1,a2,a5
80000430:	fd068613          	addi	a2,a3,-48
80000434:	0ff67793          	zext.b	a5,a2
80000438:	00170713          	addi	a4,a4,1
8000043c:	fef570e3          	bgeu	a0,a5,8000041c <printf+0xa0>
80000440:	00058793          	mv	a5,a1
80000444:	f9468693          	addi	a3,a3,-108
80000448:	0016b693          	seqz	a3,a3
8000044c:	00d70733          	add	a4,a4,a3
80000450:	00074503          	lbu	a0,0(a4)
80000454:	02500693          	li	a3,37
80000458:	5ed50663          	beq	a0,a3,80000a44 <printf+0x6c8>
8000045c:	fa850693          	addi	a3,a0,-88
80000460:	0ff6f693          	zext.b	a3,a3
80000464:	02000613          	li	a2,32
80000468:	02d66c63          	bltu	a2,a3,800004a0 <printf+0x124>
8000046c:	00001617          	auipc	a2,0x1
80000470:	8d860613          	addi	a2,a2,-1832 # 80000d44 <mainargs+0x40>
80000474:	00269693          	slli	a3,a3,0x2
80000478:	00c686b3          	add	a3,a3,a2
8000047c:	0006a683          	lw	a3,0(a3)
80000480:	00c686b3          	add	a3,a3,a2
80000484:	00068067          	jr	a3
80000488:	03c12083          	lw	ra,60(sp)
8000048c:	03812403          	lw	s0,56(sp)
80000490:	00012503          	lw	a0,0(sp)
80000494:	03412483          	lw	s1,52(sp)
80000498:	05410113          	addi	sp,sp,84
8000049c:	00008067          	ret
800004a0:	02500513          	li	a0,37
800004a4:	00e12223          	sw	a4,4(sp)
800004a8:	cf1ff0ef          	jal	80000198 <putch>
800004ac:	00412703          	lw	a4,4(sp)
800004b0:	00074503          	lbu	a0,0(a4)
800004b4:	ce5ff0ef          	jal	80000198 <putch>
800004b8:	00012783          	lw	a5,0(sp)
800004bc:	00412703          	lw	a4,4(sp)
800004c0:	00278793          	addi	a5,a5,2
800004c4:	00f12023          	sw	a5,0(sp)
800004c8:	f09ff06f          	j	800003d0 <printf+0x54>
800004cc:	02012683          	lw	a3,32(sp)
800004d0:	f8850513          	addi	a0,a0,-120
800004d4:	04100393          	li	t2,65
800004d8:	00468613          	addi	a2,a3,4
800004dc:	02c12023          	sw	a2,32(sp)
800004e0:	0006a583          	lw	a1,0(a3)
800004e4:	5a050863          	beqz	a0,80000a94 <printf+0x718>
800004e8:	ff638393          	addi	t2,t2,-10
800004ec:	00000613          	li	a2,0
800004f0:	02410693          	addi	a3,sp,36
800004f4:	00900413          	li	s0,9
800004f8:	00f5f513          	andi	a0,a1,15
800004fc:	00060493          	mv	s1,a2
80000500:	00750333          	add	t1,a0,t2
80000504:	00160613          	addi	a2,a2,1
80000508:	00a46463          	bltu	s0,a0,80000510 <printf+0x194>
8000050c:	03050313          	addi	t1,a0,48
80000510:	00c68533          	add	a0,a3,a2
80000514:	0045d593          	srli	a1,a1,0x4
80000518:	fe650fa3          	sb	t1,-1(a0)
8000051c:	fc059ee3          	bnez	a1,800004f8 <printf+0x17c>
80000520:	00912423          	sw	s1,8(sp)
80000524:	40c78433          	sub	s0,a5,a2
80000528:	04805263          	blez	s0,8000056c <printf+0x1f0>
8000052c:	02000493          	li	s1,32
80000530:	56029e63          	bnez	t0,80000aac <printf+0x730>
80000534:	0ff4f793          	zext.b	a5,s1
80000538:	00f12223          	sw	a5,4(sp)
8000053c:	00000493          	li	s1,0
80000540:	00e12623          	sw	a4,12(sp)
80000544:	00d12823          	sw	a3,16(sp)
80000548:	00412503          	lw	a0,4(sp)
8000054c:	00148493          	addi	s1,s1,1
80000550:	c49ff0ef          	jal	80000198 <putch>
80000554:	fe941ae3          	bne	s0,s1,80000548 <printf+0x1cc>
80000558:	00012783          	lw	a5,0(sp)
8000055c:	00c12703          	lw	a4,12(sp)
80000560:	01012683          	lw	a3,16(sp)
80000564:	008787b3          	add	a5,a5,s0
80000568:	00f12023          	sw	a5,0(sp)
8000056c:	00812783          	lw	a5,8(sp)
80000570:	fff68413          	addi	s0,a3,-1
80000574:	00e12223          	sw	a4,4(sp)
80000578:	00f684b3          	add	s1,a3,a5
8000057c:	0004c503          	lbu	a0,0(s1)
80000580:	fff48493          	addi	s1,s1,-1
80000584:	c15ff0ef          	jal	80000198 <putch>
80000588:	fe941ae3          	bne	s0,s1,8000057c <printf+0x200>
8000058c:	00812783          	lw	a5,8(sp)
80000590:	00412703          	lw	a4,4(sp)
80000594:	00178293          	addi	t0,a5,1
80000598:	00012783          	lw	a5,0(sp)
8000059c:	00f287b3          	add	a5,t0,a5
800005a0:	00f12023          	sw	a5,0(sp)
800005a4:	e2dff06f          	j	800003d0 <printf+0x54>
800005a8:	02012783          	lw	a5,32(sp)
800005ac:	00e12223          	sw	a4,4(sp)
800005b0:	0007c503          	lbu	a0,0(a5)
800005b4:	00478793          	addi	a5,a5,4
800005b8:	02f12023          	sw	a5,32(sp)
800005bc:	bddff0ef          	jal	80000198 <putch>
800005c0:	00012783          	lw	a5,0(sp)
800005c4:	00412703          	lw	a4,4(sp)
800005c8:	00178793          	addi	a5,a5,1
800005cc:	00f12023          	sw	a5,0(sp)
800005d0:	e01ff06f          	j	800003d0 <printf+0x54>
800005d4:	02012583          	lw	a1,32(sp)
800005d8:	00000613          	li	a2,0
800005dc:	02410693          	addi	a3,sp,36
800005e0:	00458513          	addi	a0,a1,4
800005e4:	0005a583          	lw	a1,0(a1)
800005e8:	02a12023          	sw	a0,32(sp)
800005ec:	0075f513          	andi	a0,a1,7
800005f0:	00060313          	mv	t1,a2
800005f4:	00160613          	addi	a2,a2,1
800005f8:	00c683b3          	add	t2,a3,a2
800005fc:	03050513          	addi	a0,a0,48
80000600:	fea38fa3          	sb	a0,-1(t2)
80000604:	0035d593          	srli	a1,a1,0x3
80000608:	fe0592e3          	bnez	a1,800005ec <printf+0x270>
8000060c:	40c78433          	sub	s0,a5,a2
80000610:	04805663          	blez	s0,8000065c <printf+0x2e0>
80000614:	02000493          	li	s1,32
80000618:	48029663          	bnez	t0,80000aa4 <printf+0x728>
8000061c:	0ff4f793          	zext.b	a5,s1
80000620:	00f12223          	sw	a5,4(sp)
80000624:	00000493          	li	s1,0
80000628:	00612423          	sw	t1,8(sp)
8000062c:	00e12623          	sw	a4,12(sp)
80000630:	00d12823          	sw	a3,16(sp)
80000634:	00412503          	lw	a0,4(sp)
80000638:	00148493          	addi	s1,s1,1
8000063c:	b5dff0ef          	jal	80000198 <putch>
80000640:	fe941ae3          	bne	s0,s1,80000634 <printf+0x2b8>
80000644:	00012783          	lw	a5,0(sp)
80000648:	00812303          	lw	t1,8(sp)
8000064c:	00c12703          	lw	a4,12(sp)
80000650:	01012683          	lw	a3,16(sp)
80000654:	008787b3          	add	a5,a5,s0
80000658:	00f12023          	sw	a5,0(sp)
8000065c:	006684b3          	add	s1,a3,t1
80000660:	fff68413          	addi	s0,a3,-1
80000664:	00612223          	sw	t1,4(sp)
80000668:	00e12423          	sw	a4,8(sp)
8000066c:	0004c503          	lbu	a0,0(s1)
80000670:	fff48493          	addi	s1,s1,-1
80000674:	b25ff0ef          	jal	80000198 <putch>
80000678:	fe941ae3          	bne	s0,s1,8000066c <printf+0x2f0>
8000067c:	00412303          	lw	t1,4(sp)
80000680:	00012783          	lw	a5,0(sp)
80000684:	00812703          	lw	a4,8(sp)
80000688:	00130313          	addi	t1,t1,1
8000068c:	00f307b3          	add	a5,t1,a5
80000690:	00f12023          	sw	a5,0(sp)
80000694:	d3dff06f          	j	800003d0 <printf+0x54>
80000698:	02012683          	lw	a3,32(sp)
8000069c:	00012823          	sw	zero,16(sp)
800006a0:	0006a403          	lw	s0,0(a3)
800006a4:	00468693          	addi	a3,a3,4
800006a8:	02d12023          	sw	a3,32(sp)
800006ac:	40044463          	bltz	s0,80000ab4 <printf+0x738>
800006b0:	02410693          	addi	a3,sp,36
800006b4:	00040493          	mv	s1,s0
800006b8:	00f12a23          	sw	a5,20(sp)
800006bc:	00000413          	li	s0,0
800006c0:	00e12c23          	sw	a4,24(sp)
800006c4:	00512e23          	sw	t0,28(sp)
800006c8:	00d12623          	sw	a3,12(sp)
800006cc:	00c12783          	lw	a5,12(sp)
800006d0:	00040313          	mv	t1,s0
800006d4:	00140413          	addi	s0,s0,1
800006d8:	00878733          	add	a4,a5,s0
800006dc:	00a00593          	li	a1,10
800006e0:	00048513          	mv	a0,s1
800006e4:	00612423          	sw	t1,8(sp)
800006e8:	00e12223          	sw	a4,4(sp)
800006ec:	4e0000ef          	jal	80000bcc <__umodsi3>
800006f0:	00412703          	lw	a4,4(sp)
800006f4:	03050513          	addi	a0,a0,48
800006f8:	00a00593          	li	a1,10
800006fc:	fea70fa3          	sb	a0,-1(a4)
80000700:	00048513          	mv	a0,s1
80000704:	00912223          	sw	s1,4(sp)
80000708:	47c000ef          	jal	80000b84 <__hidden___udivsi3>
8000070c:	00412703          	lw	a4,4(sp)
80000710:	00900793          	li	a5,9
80000714:	00812303          	lw	t1,8(sp)
80000718:	00050493          	mv	s1,a0
8000071c:	fae7e8e3          	bltu	a5,a4,800006cc <printf+0x350>
80000720:	01012583          	lw	a1,16(sp)
80000724:	01412783          	lw	a5,20(sp)
80000728:	01812703          	lw	a4,24(sp)
8000072c:	01c12283          	lw	t0,28(sp)
80000730:	00c12683          	lw	a3,12(sp)
80000734:	00040613          	mv	a2,s0
80000738:	30059a63          	bnez	a1,80000a4c <printf+0x6d0>
8000073c:	408784b3          	sub	s1,a5,s0
80000740:	3a905063          	blez	s1,80000ae0 <printf+0x764>
80000744:	38028e63          	beqz	t0,80000ae0 <printf+0x764>
80000748:	00000413          	li	s0,0
8000074c:	00612223          	sw	t1,4(sp)
80000750:	00e12423          	sw	a4,8(sp)
80000754:	00d12623          	sw	a3,12(sp)
80000758:	03000513          	li	a0,48
8000075c:	00140413          	addi	s0,s0,1
80000760:	a39ff0ef          	jal	80000198 <putch>
80000764:	fe941ae3          	bne	s0,s1,80000758 <printf+0x3dc>
80000768:	00c12683          	lw	a3,12(sp)
8000076c:	00012603          	lw	a2,0(sp)
80000770:	00412303          	lw	t1,4(sp)
80000774:	02310793          	addi	a5,sp,35
80000778:	00c40633          	add	a2,s0,a2
8000077c:	00668433          	add	s0,a3,t1
80000780:	01012683          	lw	a3,16(sp)
80000784:	00c12023          	sw	a2,0(sp)
80000788:	00812703          	lw	a4,8(sp)
8000078c:	00d784b3          	add	s1,a5,a3
80000790:	c4d340e3          	blt	t1,a3,800003d0 <printf+0x54>
80000794:	00612223          	sw	t1,4(sp)
80000798:	00e12423          	sw	a4,8(sp)
8000079c:	00044503          	lbu	a0,0(s0)
800007a0:	fff40413          	addi	s0,s0,-1
800007a4:	9f5ff0ef          	jal	80000198 <putch>
800007a8:	fe849ae3          	bne	s1,s0,8000079c <printf+0x420>
800007ac:	01012783          	lw	a5,16(sp)
800007b0:	00412303          	lw	t1,4(sp)
800007b4:	00012603          	lw	a2,0(sp)
800007b8:	0017c793          	xori	a5,a5,1
800007bc:	006787b3          	add	a5,a5,t1
800007c0:	00c787b3          	add	a5,a5,a2
800007c4:	00812703          	lw	a4,8(sp)
800007c8:	00f12023          	sw	a5,0(sp)
800007cc:	c05ff06f          	j	800003d0 <printf+0x54>
800007d0:	02012603          	lw	a2,32(sp)
800007d4:	00000413          	li	s0,0
800007d8:	02410693          	addi	a3,sp,36
800007dc:	00460593          	addi	a1,a2,4
800007e0:	00062603          	lw	a2,0(a2)
800007e4:	00040493          	mv	s1,s0
800007e8:	02b12023          	sw	a1,32(sp)
800007ec:	00060413          	mv	s0,a2
800007f0:	00f12823          	sw	a5,16(sp)
800007f4:	00e12a23          	sw	a4,20(sp)
800007f8:	00512c23          	sw	t0,24(sp)
800007fc:	00d12623          	sw	a3,12(sp)
80000800:	00c12783          	lw	a5,12(sp)
80000804:	00048713          	mv	a4,s1
80000808:	00148493          	addi	s1,s1,1
8000080c:	009786b3          	add	a3,a5,s1
80000810:	00a00593          	li	a1,10
80000814:	00040513          	mv	a0,s0
80000818:	00e12423          	sw	a4,8(sp)
8000081c:	00d12223          	sw	a3,4(sp)
80000820:	3ac000ef          	jal	80000bcc <__umodsi3>
80000824:	00412683          	lw	a3,4(sp)
80000828:	03050513          	addi	a0,a0,48
8000082c:	00a00593          	li	a1,10
80000830:	fea68fa3          	sb	a0,-1(a3)
80000834:	00040513          	mv	a0,s0
80000838:	00812223          	sw	s0,4(sp)
8000083c:	348000ef          	jal	80000b84 <__hidden___udivsi3>
80000840:	00412683          	lw	a3,4(sp)
80000844:	00900793          	li	a5,9
80000848:	00050413          	mv	s0,a0
8000084c:	fad7eae3          	bltu	a5,a3,80000800 <printf+0x484>
80000850:	01012783          	lw	a5,16(sp)
80000854:	00048413          	mv	s0,s1
80000858:	01812283          	lw	t0,24(sp)
8000085c:	40878633          	sub	a2,a5,s0
80000860:	00812483          	lw	s1,8(sp)
80000864:	01412703          	lw	a4,20(sp)
80000868:	00c12683          	lw	a3,12(sp)
8000086c:	04c05863          	blez	a2,800008bc <printf+0x540>
80000870:	02000793          	li	a5,32
80000874:	22029463          	bnez	t0,80000a9c <printf+0x720>
80000878:	00000413          	li	s0,0
8000087c:	00912623          	sw	s1,12(sp)
80000880:	00f12223          	sw	a5,4(sp)
80000884:	00040493          	mv	s1,s0
80000888:	00e12423          	sw	a4,8(sp)
8000088c:	00060413          	mv	s0,a2
80000890:	00d12823          	sw	a3,16(sp)
80000894:	00412503          	lw	a0,4(sp)
80000898:	00148493          	addi	s1,s1,1
8000089c:	8fdff0ef          	jal	80000198 <putch>
800008a0:	fe941ae3          	bne	s0,s1,80000894 <printf+0x518>
800008a4:	00012783          	lw	a5,0(sp)
800008a8:	00812703          	lw	a4,8(sp)
800008ac:	00c12483          	lw	s1,12(sp)
800008b0:	01012683          	lw	a3,16(sp)
800008b4:	00f407b3          	add	a5,s0,a5
800008b8:	00f12023          	sw	a5,0(sp)
800008bc:	00968433          	add	s0,a3,s1
800008c0:	00912423          	sw	s1,8(sp)
800008c4:	00e12223          	sw	a4,4(sp)
800008c8:	00040493          	mv	s1,s0
800008cc:	fff68413          	addi	s0,a3,-1
800008d0:	0004c503          	lbu	a0,0(s1)
800008d4:	fff48493          	addi	s1,s1,-1
800008d8:	8c1ff0ef          	jal	80000198 <putch>
800008dc:	fe941ae3          	bne	s0,s1,800008d0 <printf+0x554>
800008e0:	00812483          	lw	s1,8(sp)
800008e4:	00012783          	lw	a5,0(sp)
800008e8:	00412703          	lw	a4,4(sp)
800008ec:	00148493          	addi	s1,s1,1
800008f0:	00f487b3          	add	a5,s1,a5
800008f4:	00f12023          	sw	a5,0(sp)
800008f8:	ad9ff06f          	j	800003d0 <printf+0x54>
800008fc:	02012683          	lw	a3,32(sp)
80000900:	0006a483          	lw	s1,0(a3)
80000904:	00468693          	addi	a3,a3,4
80000908:	02d12023          	sw	a3,32(sp)
8000090c:	0004c503          	lbu	a0,0(s1)
80000910:	26050263          	beqz	a0,80000b74 <printf+0x7f8>
80000914:	00000693          	li	a3,0
80000918:	00168693          	addi	a3,a3,1
8000091c:	00d48633          	add	a2,s1,a3
80000920:	00064603          	lbu	a2,0(a2)
80000924:	fe061ae3          	bnez	a2,80000918 <printf+0x59c>
80000928:	40d787b3          	sub	a5,a5,a3
8000092c:	04f05263          	blez	a5,80000970 <printf+0x5f4>
80000930:	00000413          	li	s0,0
80000934:	00912223          	sw	s1,4(sp)
80000938:	00e12423          	sw	a4,8(sp)
8000093c:	00040493          	mv	s1,s0
80000940:	00078413          	mv	s0,a5
80000944:	02000513          	li	a0,32
80000948:	00148493          	addi	s1,s1,1
8000094c:	84dff0ef          	jal	80000198 <putch>
80000950:	fe84cae3          	blt	s1,s0,80000944 <printf+0x5c8>
80000954:	00412483          	lw	s1,4(sp)
80000958:	00012683          	lw	a3,0(sp)
8000095c:	00812703          	lw	a4,8(sp)
80000960:	0004c503          	lbu	a0,0(s1)
80000964:	00d407b3          	add	a5,s0,a3
80000968:	00f12023          	sw	a5,0(sp)
8000096c:	a60502e3          	beqz	a0,800003d0 <printf+0x54>
80000970:	00048413          	mv	s0,s1
80000974:	00e12223          	sw	a4,4(sp)
80000978:	00140413          	addi	s0,s0,1
8000097c:	81dff0ef          	jal	80000198 <putch>
80000980:	00044503          	lbu	a0,0(s0)
80000984:	fe051ae3          	bnez	a0,80000978 <printf+0x5fc>
80000988:	00012783          	lw	a5,0(sp)
8000098c:	40940433          	sub	s0,s0,s1
80000990:	00412703          	lw	a4,4(sp)
80000994:	00f407b3          	add	a5,s0,a5
80000998:	00f12023          	sw	a5,0(sp)
8000099c:	a35ff06f          	j	800003d0 <printf+0x54>
800009a0:	02012783          	lw	a5,32(sp)
800009a4:	03000513          	li	a0,48
800009a8:	00e12223          	sw	a4,4(sp)
800009ac:	00478693          	addi	a3,a5,4
800009b0:	0007a403          	lw	s0,0(a5)
800009b4:	02d12023          	sw	a3,32(sp)
800009b8:	fe0ff0ef          	jal	80000198 <putch>
800009bc:	07800513          	li	a0,120
800009c0:	fd8ff0ef          	jal	80000198 <putch>
800009c4:	00412703          	lw	a4,4(sp)
800009c8:	0e040e63          	beqz	s0,80000ac4 <printf+0x748>
800009cc:	00040793          	mv	a5,s0
800009d0:	00000513          	li	a0,0
800009d4:	02410693          	addi	a3,sp,36
800009d8:	00900293          	li	t0,9
800009dc:	0080006f          	j	800009e4 <printf+0x668>
800009e0:	00060513          	mv	a0,a2
800009e4:	00f7f613          	andi	a2,a5,15
800009e8:	05760593          	addi	a1,a2,87
800009ec:	00c2e463          	bltu	t0,a2,800009f4 <printf+0x678>
800009f0:	03060593          	addi	a1,a2,48
800009f4:	00150613          	addi	a2,a0,1
800009f8:	00c68333          	add	t1,a3,a2
800009fc:	0047d793          	srli	a5,a5,0x4
80000a00:	feb30fa3          	sb	a1,-1(t1)
80000a04:	fc079ee3          	bnez	a5,800009e0 <printf+0x664>
80000a08:	00a684b3          	add	s1,a3,a0
80000a0c:	fff68413          	addi	s0,a3,-1
80000a10:	00a12223          	sw	a0,4(sp)
80000a14:	00e12423          	sw	a4,8(sp)
80000a18:	0004c503          	lbu	a0,0(s1)
80000a1c:	fff48493          	addi	s1,s1,-1
80000a20:	f78ff0ef          	jal	80000198 <putch>
80000a24:	fe941ae3          	bne	s0,s1,80000a18 <printf+0x69c>
80000a28:	00012783          	lw	a5,0(sp)
80000a2c:	00412503          	lw	a0,4(sp)
80000a30:	00812703          	lw	a4,8(sp)
80000a34:	00378793          	addi	a5,a5,3
80000a38:	00a787b3          	add	a5,a5,a0
80000a3c:	00f12023          	sw	a5,0(sp)
80000a40:	991ff06f          	j	800003d0 <printf+0x54>
80000a44:	00e12223          	sw	a4,4(sp)
80000a48:	b75ff06f          	j	800005bc <printf+0x240>
80000a4c:	02d00513          	li	a0,45
80000a50:	002405b3          	add	a1,s0,sp
80000a54:	00230493          	addi	s1,t1,2
80000a58:	02a58223          	sb	a0,36(a1)
80000a5c:	409784b3          	sub	s1,a5,s1
80000a60:	08905263          	blez	s1,80000ae4 <printf+0x768>
80000a64:	08028063          	beqz	t0,80000ae4 <printf+0x768>
80000a68:	00012783          	lw	a5,0(sp)
80000a6c:	00d12623          	sw	a3,12(sp)
80000a70:	00e12423          	sw	a4,8(sp)
80000a74:	00178793          	addi	a5,a5,1
80000a78:	00612223          	sw	t1,4(sp)
80000a7c:	00f12023          	sw	a5,0(sp)
80000a80:	f18ff0ef          	jal	80000198 <putch>
80000a84:	00c12683          	lw	a3,12(sp)
80000a88:	00812703          	lw	a4,8(sp)
80000a8c:	00412303          	lw	t1,4(sp)
80000a90:	cb9ff06f          	j	80000748 <printf+0x3cc>
80000a94:	06100393          	li	t2,97
80000a98:	a51ff06f          	j	800004e8 <printf+0x16c>
80000a9c:	03000793          	li	a5,48
80000aa0:	dd9ff06f          	j	80000878 <printf+0x4fc>
80000aa4:	03000493          	li	s1,48
80000aa8:	b75ff06f          	j	8000061c <printf+0x2a0>
80000aac:	03000493          	li	s1,48
80000ab0:	a85ff06f          	j	80000534 <printf+0x1b8>
80000ab4:	00100693          	li	a3,1
80000ab8:	40800433          	neg	s0,s0
80000abc:	00d12823          	sw	a3,16(sp)
80000ac0:	bf1ff06f          	j	800006b0 <printf+0x334>
80000ac4:	03000513          	li	a0,48
80000ac8:	ed0ff0ef          	jal	80000198 <putch>
80000acc:	00012783          	lw	a5,0(sp)
80000ad0:	00412703          	lw	a4,4(sp)
80000ad4:	00378793          	addi	a5,a5,3
80000ad8:	00f12023          	sw	a5,0(sp)
80000adc:	8f5ff06f          	j	800003d0 <printf+0x54>
80000ae0:	00030613          	mv	a2,t1
80000ae4:	00000413          	li	s0,0
80000ae8:	02905c63          	blez	s1,80000b20 <printf+0x7a4>
80000aec:	00c12223          	sw	a2,4(sp)
80000af0:	00e12423          	sw	a4,8(sp)
80000af4:	00d12623          	sw	a3,12(sp)
80000af8:	02000513          	li	a0,32
80000afc:	00140413          	addi	s0,s0,1
80000b00:	e98ff0ef          	jal	80000198 <putch>
80000b04:	fe941ae3          	bne	s0,s1,80000af8 <printf+0x77c>
80000b08:	00012783          	lw	a5,0(sp)
80000b0c:	00412603          	lw	a2,4(sp)
80000b10:	00812703          	lw	a4,8(sp)
80000b14:	00c12683          	lw	a3,12(sp)
80000b18:	00f407b3          	add	a5,s0,a5
80000b1c:	00f12023          	sw	a5,0(sp)
80000b20:	00c684b3          	add	s1,a3,a2
80000b24:	fff68413          	addi	s0,a3,-1
80000b28:	00c12223          	sw	a2,4(sp)
80000b2c:	00e12423          	sw	a4,8(sp)
80000b30:	0004c503          	lbu	a0,0(s1)
80000b34:	fff48493          	addi	s1,s1,-1
80000b38:	e60ff0ef          	jal	80000198 <putch>
80000b3c:	fe941ae3          	bne	s0,s1,80000b30 <printf+0x7b4>
80000b40:	00412603          	lw	a2,4(sp)
80000b44:	00012783          	lw	a5,0(sp)
80000b48:	00812703          	lw	a4,8(sp)
80000b4c:	00160613          	addi	a2,a2,1
80000b50:	00f607b3          	add	a5,a2,a5
80000b54:	00f12023          	sw	a5,0(sp)
80000b58:	879ff06f          	j	800003d0 <printf+0x54>
80000b5c:	03c12083          	lw	ra,60(sp)
80000b60:	03812403          	lw	s0,56(sp)
80000b64:	00012023          	sw	zero,0(sp)
80000b68:	00012503          	lw	a0,0(sp)
80000b6c:	05410113          	addi	sp,sp,84
80000b70:	00008067          	ret
80000b74:	daf04ee3          	bgtz	a5,80000930 <printf+0x5b4>
80000b78:	859ff06f          	j	800003d0 <printf+0x54>

80000b7c <__divsi3>:
80000b7c:	06054063          	bltz	a0,80000bdc <__umodsi3+0x10>
80000b80:	0605c663          	bltz	a1,80000bec <__umodsi3+0x20>

80000b84 <__hidden___udivsi3>:
80000b84:	00058613          	mv	a2,a1
80000b88:	00050593          	mv	a1,a0
80000b8c:	fff00513          	li	a0,-1
80000b90:	02060c63          	beqz	a2,80000bc8 <__hidden___udivsi3+0x44>
80000b94:	00100693          	li	a3,1
80000b98:	00b67a63          	bgeu	a2,a1,80000bac <__hidden___udivsi3+0x28>
80000b9c:	00c05863          	blez	a2,80000bac <__hidden___udivsi3+0x28>
80000ba0:	00161613          	slli	a2,a2,0x1
80000ba4:	00169693          	slli	a3,a3,0x1
80000ba8:	feb66ae3          	bltu	a2,a1,80000b9c <__hidden___udivsi3+0x18>
80000bac:	00000513          	li	a0,0
80000bb0:	00c5e663          	bltu	a1,a2,80000bbc <__hidden___udivsi3+0x38>
80000bb4:	40c585b3          	sub	a1,a1,a2
80000bb8:	00d56533          	or	a0,a0,a3
80000bbc:	0016d693          	srli	a3,a3,0x1
80000bc0:	00165613          	srli	a2,a2,0x1
80000bc4:	fe0696e3          	bnez	a3,80000bb0 <__hidden___udivsi3+0x2c>
80000bc8:	00008067          	ret

80000bcc <__umodsi3>:
80000bcc:	00008293          	mv	t0,ra
80000bd0:	fb5ff0ef          	jal	80000b84 <__hidden___udivsi3>
80000bd4:	00058513          	mv	a0,a1
80000bd8:	00028067          	jr	t0
80000bdc:	40a00533          	neg	a0,a0
80000be0:	00b04863          	bgtz	a1,80000bf0 <__umodsi3+0x24>
80000be4:	40b005b3          	neg	a1,a1
80000be8:	f9dff06f          	j	80000b84 <__hidden___udivsi3>
80000bec:	40b005b3          	neg	a1,a1
80000bf0:	00008293          	mv	t0,ra
80000bf4:	f91ff0ef          	jal	80000b84 <__hidden___udivsi3>
80000bf8:	40a00533          	neg	a0,a0
80000bfc:	00028067          	jr	t0

80000c00 <__modsi3>:
80000c00:	00008293          	mv	t0,ra
80000c04:	0005ca63          	bltz	a1,80000c18 <__modsi3+0x18>
80000c08:	00054c63          	bltz	a0,80000c20 <__modsi3+0x20>
80000c0c:	f79ff0ef          	jal	80000b84 <__hidden___udivsi3>
80000c10:	00058513          	mv	a0,a1
80000c14:	00028067          	jr	t0
80000c18:	40b005b3          	neg	a1,a1
80000c1c:	fe0558e3          	bgez	a0,80000c0c <__modsi3+0xc>
80000c20:	40a00533          	neg	a0,a0
80000c24:	f61ff0ef          	jal	80000b84 <__hidden___udivsi3>
80000c28:	40b00533          	neg	a0,a1
80000c2c:	00028067          	jr	t0
