
/home/yunhai/ysyx-workbench/am-kernels/tests/cpu-tests/build/add-riscv32e-npc.elf:     file format elf32-littleriscv


Disassembly of section .text:

80000000 <_start>:
80000000:	00000413          	li	s0,0
80000004:	00009117          	auipc	sp,0x9
80000008:	ffc10113          	addi	sp,sp,-4 # 80009000 <_end>
8000000c:	0ec000ef          	jal	800000f8 <_trm_init>

80000010 <check>:
80000010:	00050463          	beqz	a0,80000018 <check+0x8>
80000014:	00008067          	ret
80000018:	ffc10113          	addi	sp,sp,-4
8000001c:	00100513          	li	a0,1
80000020:	00112023          	sw	ra,0(sp)
80000024:	0c8000ef          	jal	800000ec <halt>

80000028 <main>:
80000028:	fe810113          	addi	sp,sp,-24
8000002c:	00000797          	auipc	a5,0x0
80000030:	22c78793          	addi	a5,a5,556 # 80000258 <test_data>
80000034:	00112a23          	sw	ra,20(sp)
80000038:	00812823          	sw	s0,16(sp)
8000003c:	00912623          	sw	s1,12(sp)
80000040:	00f12423          	sw	a5,8(sp)
80000044:	00012223          	sw	zero,4(sp)
80000048:	00412783          	lw	a5,4(sp)
8000004c:	00000497          	auipc	s1,0x0
80000050:	20c48493          	addi	s1,s1,524 # 80000258 <test_data>
80000054:	00279713          	slli	a4,a5,0x2
80000058:	00000797          	auipc	a5,0x0
8000005c:	10078793          	addi	a5,a5,256 # 80000158 <ans>
80000060:	00e78433          	add	s0,a5,a4
80000064:	00812783          	lw	a5,8(sp)
80000068:	0007a783          	lw	a5,0(a5)
8000006c:	00f12023          	sw	a5,0(sp)
80000070:	00012783          	lw	a5,0(sp)
80000074:	0004a503          	lw	a0,0(s1)
80000078:	00042683          	lw	a3,0(s0)
8000007c:	00448493          	addi	s1,s1,4
80000080:	00a78533          	add	a0,a5,a0
80000084:	40d50533          	sub	a0,a0,a3
80000088:	00153513          	seqz	a0,a0
8000008c:	f85ff0ef          	jal	80000010 <check>
80000090:	00000797          	auipc	a5,0x0
80000094:	1e878793          	addi	a5,a5,488 # 80000278 <_bss_start>
80000098:	00440413          	addi	s0,s0,4
8000009c:	fc979ae3          	bne	a5,s1,80000070 <main+0x48>
800000a0:	00412783          	lw	a5,4(sp)
800000a4:	00100513          	li	a0,1
800000a8:	00878793          	addi	a5,a5,8
800000ac:	00f12223          	sw	a5,4(sp)
800000b0:	f61ff0ef          	jal	80000010 <check>
800000b4:	00812703          	lw	a4,8(sp)
800000b8:	04000793          	li	a5,64
800000bc:	00470713          	addi	a4,a4,4
800000c0:	00e12423          	sw	a4,8(sp)
800000c4:	00412703          	lw	a4,4(sp)
800000c8:	f8f710e3          	bne	a4,a5,80000048 <main+0x20>
800000cc:	00100513          	li	a0,1
800000d0:	f41ff0ef          	jal	80000010 <check>
800000d4:	01412083          	lw	ra,20(sp)
800000d8:	01012403          	lw	s0,16(sp)
800000dc:	00c12483          	lw	s1,12(sp)
800000e0:	00000513          	li	a0,0
800000e4:	01810113          	addi	sp,sp,24
800000e8:	00008067          	ret

800000ec <halt>:
800000ec:	00050513          	mv	a0,a0
800000f0:	00100073          	ebreak
800000f4:	0000006f          	j	800000f4 <halt+0x8>

800000f8 <_trm_init>:
800000f8:	ffc10113          	addi	sp,sp,-4
800000fc:	00000517          	auipc	a0,0x0
80000100:	01c50513          	addi	a0,a0,28 # 80000118 <_etext>
80000104:	00112023          	sw	ra,0(sp)
80000108:	f21ff0ef          	jal	80000028 <main>
8000010c:	00050513          	mv	a0,a0
80000110:	00100073          	ebreak
80000114:	0000006f          	j	80000114 <_trm_init+0x1c>
