
/home/yunhai/ysyx-workbench/am-kernels/benchmarks/microbench/build/microbench-riscv32e-ysyxsoc.elf:     file format elf32-littleriscv


Disassembly of section .entry:

30000000 <_start>:
30000000:	df000517          	auipc	a0,0xdf000
30000004:	00050513          	mv	a0,a0
30000008:	00000597          	auipc	a1,0x0
3000000c:	06058593          	addi	a1,a1,96 # 30000068 <boot_load_start>
30000010:	1d400613          	li	a2,468
30000014:	04b50463          	beq	a0,a1,3000005c <_boot_end>
30000018:	04060263          	beqz	a2,3000005c <_boot_end>
3000001c:	00265693          	srli	a3,a2,0x2
30000020:	00367713          	andi	a4,a2,3
30000024:	02068063          	beqz	a3,30000044 <_bootf_1bytes>

30000028 <_bootf_4bytes>:
30000028:	0005a783          	lw	a5,0(a1)
3000002c:	00f52023          	sw	a5,0(a0) # f000000 <_stack_top>
30000030:	00450513          	addi	a0,a0,4
30000034:	00458593          	addi	a1,a1,4
30000038:	fff68693          	addi	a3,a3,-1
3000003c:	fe0696e3          	bnez	a3,30000028 <_bootf_4bytes>
30000040:	00070e63          	beqz	a4,3000005c <_boot_end>

30000044 <_bootf_1bytes>:
30000044:	00058783          	lb	a5,0(a1)
30000048:	00f50023          	sb	a5,0(a0)
3000004c:	00150513          	addi	a0,a0,1
30000050:	00158593          	addi	a1,a1,1
30000054:	fff70713          	addi	a4,a4,-1
30000058:	fe0716e3          	bnez	a4,30000044 <_bootf_1bytes>

3000005c <_boot_end>:
3000005c:	df000297          	auipc	t0,0xdf000
30000060:	fa428293          	addi	t0,t0,-92 # f000000 <_stack_top>
30000064:	00028067          	jr	t0

Disassembly of section .boot:

0f000000 <boot_start>:
 f000000:	91000517          	auipc	a0,0x91000
 f000004:	00050513          	mv	a0,a0
 f000008:	21000597          	auipc	a1,0x21000
 f00000c:	23458593          	addi	a1,a1,564 # 3000023c <text_load_start>
 f000010:	f1007617          	auipc	a2,0xf1007
 f000014:	0dc60613          	addi	a2,a2,220 # 70ec <text_size>
 f000018:	00b50663          	beq	a0,a1,f000024 <_boot_ssbl_rodata>
 f00001c:	00060463          	beqz	a2,f000024 <_boot_ssbl_rodata>
 f000020:	08c000ef          	jal	f0000ac <_boots_32pre>

0f000024 <_boot_ssbl_rodata>:
 f000024:	91007517          	auipc	a0,0x91007
 f000028:	0c850513          	addi	a0,a0,200 # a00070ec <rodata_start>
 f00002c:	21007597          	auipc	a1,0x21007
 f000030:	2fc58593          	addi	a1,a1,764 # 30007328 <rodata_load_start>
 f000034:	f1001617          	auipc	a2,0xf1001
 f000038:	c6860613          	addi	a2,a2,-920 # c9c <rodata_size>
 f00003c:	00b50663          	beq	a0,a1,f000048 <_boot_ssbl_data>
 f000040:	00060463          	beqz	a2,f000048 <_boot_ssbl_data>
 f000044:	068000ef          	jal	f0000ac <_boots_32pre>

0f000048 <_boot_ssbl_data>:
 f000048:	92000517          	auipc	a0,0x92000
 f00004c:	fb850513          	addi	a0,a0,-72 # a1000000 <benchmarks>
 f000050:	21008597          	auipc	a1,0x21008
 f000054:	f7458593          	addi	a1,a1,-140 # 30007fc4 <data_load_start>
 f000058:	65800613          	li	a2,1624
 f00005c:	00b50663          	beq	a0,a1,f000068 <_boot_ssbl_bss>
 f000060:	00060463          	beqz	a2,f000068 <_boot_ssbl_bss>
 f000064:	048000ef          	jal	f0000ac <_boots_32pre>

0f000068 <_boot_ssbl_bss>:
 f000068:	92000517          	auipc	a0,0x92000
 f00006c:	5f050513          	addi	a0,a0,1520 # a1000658 <buf.0>
 f000070:	0c000613          	li	a2,192
 f000074:	00060463          	beqz	a2,f00007c <_real_start>
 f000078:	0e4000ef          	jal	f00015c <_boots_32pre_bss>

0f00007c <_real_start>:
 f00007c:	00000093          	li	ra,0
 f000080:	00000413          	li	s0,0
 f000084:	00000513          	li	a0,0
 f000088:	00000593          	li	a1,0
 f00008c:	00000613          	li	a2,0
 f000090:	00000693          	li	a3,0
 f000094:	00000713          	li	a4,0
 f000098:	00000793          	li	a5,0
 f00009c:	00002117          	auipc	sp,0x2
 f0000a0:	f6410113          	addi	sp,sp,-156 # f002000 <_stack_pointer>
 f0000a4:	91006097          	auipc	ra,0x91006
 f0000a8:	88c080e7          	jalr	-1908(ra) # a0005930 <_trm_init>

0f0000ac <_boots_32pre>:
 f0000ac:	00565693          	srli	a3,a2,0x5
 f0000b0:	01f67713          	andi	a4,a2,31
 f0000b4:	04068c63          	beqz	a3,f00010c <_boots_8pre>

0f0000b8 <_boots_32bytes>:
 f0000b8:	0005a283          	lw	t0,0(a1)
 f0000bc:	0045a303          	lw	t1,4(a1)
 f0000c0:	0085a383          	lw	t2,8(a1)
 f0000c4:	00552023          	sw	t0,0(a0)
 f0000c8:	00652223          	sw	t1,4(a0)
 f0000cc:	00752423          	sw	t2,8(a0)
 f0000d0:	00c5a283          	lw	t0,12(a1)
 f0000d4:	0105a303          	lw	t1,16(a1)
 f0000d8:	0145a383          	lw	t2,20(a1)
 f0000dc:	00552623          	sw	t0,12(a0)
 f0000e0:	00652823          	sw	t1,16(a0)
 f0000e4:	00752a23          	sw	t2,20(a0)
 f0000e8:	0185a283          	lw	t0,24(a1)
 f0000ec:	01c5a303          	lw	t1,28(a1)
 f0000f0:	00552c23          	sw	t0,24(a0)
 f0000f4:	00652e23          	sw	t1,28(a0)
 f0000f8:	02050513          	addi	a0,a0,32
 f0000fc:	02058593          	addi	a1,a1,32
 f000100:	fff68693          	addi	a3,a3,-1
 f000104:	fa069ae3          	bnez	a3,f0000b8 <_boots_32bytes>
 f000108:	04070863          	beqz	a4,f000158 <_boots_copy_ret>

0f00010c <_boots_8pre>:
 f00010c:	00375693          	srli	a3,a4,0x3
 f000110:	00777713          	andi	a4,a4,7
 f000114:	02068463          	beqz	a3,f00013c <_boots_1pre>

0f000118 <_boots_8bytes>:
 f000118:	0005a283          	lw	t0,0(a1)
 f00011c:	0045a303          	lw	t1,4(a1)
 f000120:	00552023          	sw	t0,0(a0)
 f000124:	00652223          	sw	t1,4(a0)
 f000128:	00850513          	addi	a0,a0,8
 f00012c:	00858593          	addi	a1,a1,8
 f000130:	fff68693          	addi	a3,a3,-1
 f000134:	fe0692e3          	bnez	a3,f000118 <_boots_8bytes>
 f000138:	02070063          	beqz	a4,f000158 <_boots_copy_ret>

0f00013c <_boots_1pre>:
 f00013c:	00070693          	mv	a3,a4

0f000140 <_boots_1bytes>:
 f000140:	00058283          	lb	t0,0(a1)
 f000144:	00550023          	sb	t0,0(a0)
 f000148:	00150513          	addi	a0,a0,1
 f00014c:	00158593          	addi	a1,a1,1
 f000150:	fff68693          	addi	a3,a3,-1
 f000154:	fe0696e3          	bnez	a3,f000140 <_boots_1bytes>

0f000158 <_boots_copy_ret>:
 f000158:	00008067          	ret

0f00015c <_boots_32pre_bss>:
 f00015c:	00565693          	srli	a3,a2,0x5
 f000160:	01f67713          	andi	a4,a2,31
 f000164:	02068a63          	beqz	a3,f000198 <_boots_8pre_bss>

0f000168 <_boots_32bytes_bss>:
 f000168:	00052023          	sw	zero,0(a0)
 f00016c:	00052223          	sw	zero,4(a0)
 f000170:	00052423          	sw	zero,8(a0)
 f000174:	00052623          	sw	zero,12(a0)
 f000178:	00052823          	sw	zero,16(a0)
 f00017c:	00052a23          	sw	zero,20(a0)
 f000180:	00052c23          	sw	zero,24(a0)
 f000184:	00052e23          	sw	zero,28(a0)
 f000188:	02050513          	addi	a0,a0,32
 f00018c:	fff68693          	addi	a3,a3,-1
 f000190:	fc069ce3          	bnez	a3,f000168 <_boots_32bytes_bss>
 f000194:	02070e63          	beqz	a4,f0001d0 <_boots_copy_bss_ret>

0f000198 <_boots_8pre_bss>:
 f000198:	00375693          	srli	a3,a4,0x3
 f00019c:	00777713          	andi	a4,a4,7
 f0001a0:	00068e63          	beqz	a3,f0001bc <_boots_1pre_bss>

0f0001a4 <_boots_8bytes_bss>:
 f0001a4:	00052023          	sw	zero,0(a0)
 f0001a8:	00052223          	sw	zero,4(a0)
 f0001ac:	00850513          	addi	a0,a0,8
 f0001b0:	fff68693          	addi	a3,a3,-1
 f0001b4:	fe0698e3          	bnez	a3,f0001a4 <_boots_8bytes_bss>
 f0001b8:	00070c63          	beqz	a4,f0001d0 <_boots_copy_bss_ret>

0f0001bc <_boots_1pre_bss>:
 f0001bc:	00070693          	mv	a3,a4

0f0001c0 <_boots_1bytes_bss>:
 f0001c0:	00050023          	sb	zero,0(a0)
 f0001c4:	00150513          	addi	a0,a0,1
 f0001c8:	fff68693          	addi	a3,a3,-1
 f0001cc:	fe069ae3          	bnez	a3,f0001c0 <_boots_1bytes_bss>

0f0001d0 <_boots_copy_bss_ret>:
 f0001d0:	00008067          	ret

Disassembly of section .text:

a0000000 <bench_sieve_prepare>:
a0000000:	01000797          	auipc	a5,0x1000
a0000004:	6cc7a783          	lw	a5,1740(a5) # a10006cc <setting>
a0000008:	0007a783          	lw	a5,0(a5)
a000000c:	ff410113          	addi	sp,sp,-12
a0000010:	00812223          	sw	s0,4(sp)
a0000014:	41f7d513          	srai	a0,a5,0x1f
a0000018:	00757513          	andi	a0,a0,7
a000001c:	00f50533          	add	a0,a0,a5
a0000020:	40355513          	srai	a0,a0,0x3
a0000024:	00112423          	sw	ra,8(sp)
a0000028:	01000417          	auipc	s0,0x1000
a000002c:	65840413          	addi	s0,s0,1624 # a1000680 <N>
a0000030:	08050513          	addi	a0,a0,128
a0000034:	00f42023          	sw	a5,0(s0)
a0000038:	1c8020ef          	jal	a0002200 <bench_alloc>
a000003c:	00042783          	lw	a5,0(s0)
a0000040:	01000717          	auipc	a4,0x1000
a0000044:	62a72c23          	sw	a0,1592(a4) # a1000678 <primes>
a0000048:	fe100693          	li	a3,-31
a000004c:	41f7d713          	srai	a4,a5,0x1f
a0000050:	01f77713          	andi	a4,a4,31
a0000054:	00f70733          	add	a4,a4,a5
a0000058:	02d7c063          	blt	a5,a3,a0000078 <bench_sieve_prepare+0x78>
a000005c:	40575713          	srai	a4,a4,0x5
a0000060:	00000793          	li	a5,0
a0000064:	fff00693          	li	a3,-1
a0000068:	00d52023          	sw	a3,0(a0)
a000006c:	00178793          	addi	a5,a5,1
a0000070:	00450513          	addi	a0,a0,4
a0000074:	fef75ae3          	bge	a4,a5,a0000068 <bench_sieve_prepare+0x68>
a0000078:	00812083          	lw	ra,8(sp)
a000007c:	00412403          	lw	s0,4(sp)
a0000080:	00c10113          	addi	sp,sp,12
a0000084:	00008067          	ret

a0000088 <bench_sieve_run>:
a0000088:	fec10113          	addi	sp,sp,-20
a000008c:	00812623          	sw	s0,12(sp)
a0000090:	00112823          	sw	ra,16(sp)
a0000094:	01000417          	auipc	s0,0x1000
a0000098:	5ec42403          	lw	s0,1516(s0) # a1000680 <N>
a000009c:	16805063          	blez	s0,a00001fc <bench_sieve_run+0x174>
a00000a0:	00912423          	sw	s1,8(sp)
a00000a4:	01000497          	auipc	s1,0x1000
a00000a8:	5d44a483          	lw	s1,1492(s1) # a1000678 <primes>
a00000ac:	0004a683          	lw	a3,0(s1)
a00000b0:	00100713          	li	a4,1
a00000b4:	0026f793          	andi	a5,a3,2
a00000b8:	00079c63          	bnez	a5,a00000d0 <bench_sieve_run+0x48>
a00000bc:	0c80006f          	j	a0000184 <bench_sieve_run+0xfc>
a00000c0:	0007a783          	lw	a5,0(a5)
a00000c4:	00e7d7b3          	srl	a5,a5,a4
a00000c8:	0017f793          	andi	a5,a5,1
a00000cc:	0a078c63          	beqz	a5,a0000184 <bench_sieve_run+0xfc>
a00000d0:	00170713          	addi	a4,a4,1
a00000d4:	40575793          	srai	a5,a4,0x5
a00000d8:	00279793          	slli	a5,a5,0x2
a00000dc:	00f487b3          	add	a5,s1,a5
a00000e0:	fee450e3          	bge	s0,a4,a00000c0 <bench_sieve_run+0x38>
a00000e4:	00300793          	li	a5,3
a00000e8:	0887d663          	bge	a5,s0,a0000174 <bench_sieve_run+0xec>
a00000ec:	00400613          	li	a2,4
a00000f0:	00200593          	li	a1,2
a00000f4:	00100313          	li	t1,1
a00000f8:	03c0006f          	j	a0000134 <bench_sieve_run+0xac>
a00000fc:	00158593          	addi	a1,a1,1
a0000100:	00260613          	addi	a2,a2,2
a0000104:	00058513          	mv	a0,a1
a0000108:	00b12223          	sw	a1,4(sp)
a000010c:	00c12023          	sw	a2,0(sp)
a0000110:	21d050ef          	jal	a0005b2c <__mulsi3>
a0000114:	00012603          	lw	a2,0(sp)
a0000118:	00412583          	lw	a1,4(sp)
a000011c:	00100313          	li	t1,1
a0000120:	06a44c63          	blt	s0,a0,a0000198 <bench_sieve_run+0x110>
a0000124:	4055d793          	srai	a5,a1,0x5
a0000128:	00279793          	slli	a5,a5,0x2
a000012c:	00f487b3          	add	a5,s1,a5
a0000130:	0007a683          	lw	a3,0(a5)
a0000134:	00b6d6b3          	srl	a3,a3,a1
a0000138:	0016f693          	andi	a3,a3,1
a000013c:	fc0680e3          	beqz	a3,a00000fc <bench_sieve_run+0x74>
a0000140:	00060713          	mv	a4,a2
a0000144:	fac44ce3          	blt	s0,a2,a00000fc <bench_sieve_run+0x74>
a0000148:	40575793          	srai	a5,a4,0x5
a000014c:	00279793          	slli	a5,a5,0x2
a0000150:	00f487b3          	add	a5,s1,a5
a0000154:	0007a683          	lw	a3,0(a5)
a0000158:	00e31533          	sll	a0,t1,a4
a000015c:	fff54513          	not	a0,a0
a0000160:	00a6f6b3          	and	a3,a3,a0
a0000164:	00d7a023          	sw	a3,0(a5)
a0000168:	00b70733          	add	a4,a4,a1
a000016c:	fce45ee3          	bge	s0,a4,a0000148 <bench_sieve_run+0xc0>
a0000170:	f8dff06f          	j	a00000fc <bench_sieve_run+0x74>
a0000174:	01000797          	auipc	a5,0x1000
a0000178:	5007a423          	sw	zero,1288(a5) # a100067c <ans>
a000017c:	00100793          	li	a5,1
a0000180:	02f41063          	bne	s0,a5,a00001a0 <bench_sieve_run+0x118>
a0000184:	00812483          	lw	s1,8(sp)
a0000188:	01012083          	lw	ra,16(sp)
a000018c:	00c12403          	lw	s0,12(sp)
a0000190:	01410113          	addi	sp,sp,20
a0000194:	00008067          	ret
a0000198:	01000797          	auipc	a5,0x1000
a000019c:	4e07a223          	sw	zero,1252(a5) # a100067c <ans>
a00001a0:	00140413          	addi	s0,s0,1
a00001a4:	00000613          	li	a2,0
a00001a8:	00000693          	li	a3,0
a00001ac:	00200713          	li	a4,2
a00001b0:	40575793          	srai	a5,a4,0x5
a00001b4:	00279793          	slli	a5,a5,0x2
a00001b8:	00f487b3          	add	a5,s1,a5
a00001bc:	0007a783          	lw	a5,0(a5)
a00001c0:	00e7d7b3          	srl	a5,a5,a4
a00001c4:	0017f793          	andi	a5,a5,1
a00001c8:	00170713          	addi	a4,a4,1
a00001cc:	00078663          	beqz	a5,a00001d8 <bench_sieve_run+0x150>
a00001d0:	00168693          	addi	a3,a3,1
a00001d4:	00100613          	li	a2,1
a00001d8:	fce41ce3          	bne	s0,a4,a00001b0 <bench_sieve_run+0x128>
a00001dc:	fa0604e3          	beqz	a2,a0000184 <bench_sieve_run+0xfc>
a00001e0:	01012083          	lw	ra,16(sp)
a00001e4:	00c12403          	lw	s0,12(sp)
a00001e8:	01000797          	auipc	a5,0x1000
a00001ec:	48d7aa23          	sw	a3,1172(a5) # a100067c <ans>
a00001f0:	00812483          	lw	s1,8(sp)
a00001f4:	01410113          	addi	sp,sp,20
a00001f8:	00008067          	ret
a00001fc:	01000797          	auipc	a5,0x1000
a0000200:	4807a023          	sw	zero,1152(a5) # a100067c <ans>
a0000204:	f85ff06f          	j	a0000188 <bench_sieve_run+0x100>

a0000208 <bench_sieve_validate>:
a0000208:	01000797          	auipc	a5,0x1000
a000020c:	4c47a783          	lw	a5,1220(a5) # a10006cc <setting>
a0000210:	00c7a503          	lw	a0,12(a5)
a0000214:	01000797          	auipc	a5,0x1000
a0000218:	4687a783          	lw	a5,1128(a5) # a100067c <ans>
a000021c:	40f50533          	sub	a0,a0,a5
a0000220:	00153513          	seqz	a0,a0
a0000224:	00008067          	ret

a0000228 <bench_memcpy.part.0>:
a0000228:	ff410113          	addi	sp,sp,-12
a000022c:	00800613          	li	a2,8
a0000230:	00007597          	auipc	a1,0x7
a0000234:	ebc58593          	addi	a1,a1,-324 # a00070ec <rodata_start>
a0000238:	00007517          	auipc	a0,0x7
a000023c:	f0450513          	addi	a0,a0,-252 # a000713c <rodata_start+0x50>
a0000240:	00112423          	sw	ra,8(sp)
a0000244:	219050ef          	jal	a0005c5c <printf>
a0000248:	00100513          	li	a0,1
a000024c:	6d8050ef          	jal	a0005924 <halt>

a0000250 <qlz_compress>:
a0000250:	f9410113          	addi	sp,sp,-108
a0000254:	06112423          	sw	ra,104(sp)
a0000258:	fff60293          	addi	t0,a2,-1
a000025c:	e6e00713          	li	a4,-402
a0000260:	02a12e23          	sw	a0,60(sp)
a0000264:	00d12623          	sw	a3,12(sp)
a0000268:	66576c63          	bltu	a4,t0,a00008e0 <qlz_compress+0x690>
a000026c:	00060793          	mv	a5,a2
a0000270:	0d700613          	li	a2,215
a0000274:	00f63633          	sltu	a2,a2,a5
a0000278:	00058313          	mv	t1,a1
a000027c:	40c00633          	neg	a2,a2
a0000280:	00068593          	mv	a1,a3
a0000284:	00008737          	lui	a4,0x8
a0000288:	000096b7          	lui	a3,0x9
a000028c:	00667513          	andi	a0,a2,6
a0000290:	00470713          	addi	a4,a4,4 # 8004 <text_size+0xf18>
a0000294:	80468693          	addi	a3,a3,-2044 # 8804 <text_size+0x1718>
a0000298:	06812223          	sw	s0,100(sp)
a000029c:	06912023          	sw	s1,96(sp)
a00002a0:	00350513          	addi	a0,a0,3
a00002a4:	00e58733          	add	a4,a1,a4
a00002a8:	00d586b3          	add	a3,a1,a3
a00002ac:	00072023          	sw	zero,0(a4)
a00002b0:	00470713          	addi	a4,a4,4
a00002b4:	fed71ce3          	bne	a4,a3,a00002ac <qlz_compress+0x5c>
a00002b8:	03c12403          	lw	s0,60(sp)
a00002bc:	00a30633          	add	a2,t1,a0
a00002c0:	00460593          	addi	a1,a2,4
a00002c4:	00540733          	add	a4,s0,t0
a00002c8:	04c12023          	sw	a2,64(sp)
a00002cc:	ff670393          	addi	t2,a4,-10
a00002d0:	00b12423          	sw	a1,8(sp)
a00002d4:	7683e463          	bltu	t2,s0,a0000a3c <qlz_compress+0x7ec>
a00002d8:	0017d693          	srli	a3,a5,0x1
a00002dc:	00d406b3          	add	a3,s0,a3
a00002e0:	02d12c23          	sw	a3,56(sp)
a00002e4:	800006b7          	lui	a3,0x80000
a00002e8:	00d12223          	sw	a3,4(sp)
a00002ec:	ffc70693          	addi	a3,a4,-4
a00002f0:	02c12223          	sw	a2,36(sp)
a00002f4:	02d12823          	sw	a3,48(sp)
a00002f8:	04a12623          	sw	a0,76(sp)
a00002fc:	04e12c23          	sw	a4,88(sp)
a0000300:	04612823          	sw	t1,80(sp)
a0000304:	04f12a23          	sw	a5,84(sp)
a0000308:	00412703          	lw	a4,4(sp)
a000030c:	00177793          	andi	a5,a4,1
a0000310:	42079c63          	bnez	a5,a0000748 <qlz_compress+0x4f8>
a0000314:	00175793          	srli	a5,a4,0x1
a0000318:	00f12223          	sw	a5,4(sp)
a000031c:	03012783          	lw	a5,48(sp)
a0000320:	408784b3          	sub	s1,a5,s0
a0000324:	0fe00793          	li	a5,254
a0000328:	0097d463          	bge	a5,s1,a0000330 <qlz_compress+0xe0>
a000032c:	0fe00493          	li	s1,254
a0000330:	00144783          	lbu	a5,1(s0)
a0000334:	00244703          	lbu	a4,2(s0)
a0000338:	00044603          	lbu	a2,0(s0)
a000033c:	00879793          	slli	a5,a5,0x8
a0000340:	01071713          	slli	a4,a4,0x10
a0000344:	00e7e7b3          	or	a5,a5,a4
a0000348:	00d7d693          	srli	a3,a5,0xd
a000034c:	0097d713          	srli	a4,a5,0x9
a0000350:	00c12283          	lw	t0,12(sp)
a0000354:	00c7e7b3          	or	a5,a5,a2
a0000358:	00d74733          	xor	a4,a4,a3
a000035c:	00f74733          	xor	a4,a4,a5
a0000360:	7ff77613          	andi	a2,a4,2047
a0000364:	00c28733          	add	a4,t0,a2
a0000368:	000086b7          	lui	a3,0x8
a000036c:	00e68333          	add	t1,a3,a4
a0000370:	00434583          	lbu	a1,4(t1)
a0000374:	00461693          	slli	a3,a2,0x4
a0000378:	00148513          	addi	a0,s1,1
a000037c:	00e12a23          	sw	a4,20(sp)
a0000380:	00d28733          	add	a4,t0,a3
a0000384:	00f12823          	sw	a5,16(sp)
a0000388:	00e12023          	sw	a4,0(sp)
a000038c:	00158793          	addi	a5,a1,1
a0000390:	02a12423          	sw	a0,40(sp)
a0000394:	00472703          	lw	a4,4(a4)
a0000398:	0035f513          	andi	a0,a1,3
a000039c:	ffe40293          	addi	t0,s0,-2
a00003a0:	00a12e23          	sw	a0,28(sp)
a00003a4:	0ff7f513          	zext.b	a0,a5
a00003a8:	02512023          	sw	t0,32(sp)
a00003ac:	00a12c23          	sw	a0,24(sp)
a00003b0:	40576863          	bltu	a4,t0,a00007c0 <qlz_compress+0x570>
a00003b4:	00100713          	li	a4,1
a00003b8:	00000293          	li	t0,0
a00003bc:	00040513          	mv	a0,s0
a00003c0:	64b77063          	bgeu	a4,a1,a0000a00 <qlz_compress+0x7b0>
a00003c4:	00c12783          	lw	a5,12(sp)
a00003c8:	02912a23          	sw	s1,52(sp)
a00003cc:	00028493          	mv	s1,t0
a00003d0:	00d786b3          	add	a3,a5,a3
a00003d4:	0086a783          	lw	a5,8(a3) # 8008 <text_size+0xf1c>
a00003d8:	00054283          	lbu	t0,0(a0)
a00003dc:	00100713          	li	a4,1
a00003e0:	00978533          	add	a0,a5,s1
a00003e4:	00054503          	lbu	a0,0(a0)
a00003e8:	02012623          	sw	zero,44(sp)
a00003ec:	00e12023          	sw	a4,0(sp)
a00003f0:	00400313          	li	t1,4
a00003f4:	02a28a63          	beq	t0,a0,a0000428 <qlz_compress+0x1d8>
a00003f8:	00012783          	lw	a5,0(sp)
a00003fc:	00178793          	addi	a5,a5,1
a0000400:	00f12023          	sw	a5,0(sp)
a0000404:	0c678063          	beq	a5,t1,a00004c4 <qlz_compress+0x274>
a0000408:	00468693          	addi	a3,a3,4
a000040c:	0ab7fc63          	bgeu	a5,a1,a00004c4 <qlz_compress+0x274>
a0000410:	0086a783          	lw	a5,8(a3)
a0000414:	00940533          	add	a0,s0,s1
a0000418:	00054283          	lbu	t0,0(a0)
a000041c:	00978533          	add	a0,a5,s1
a0000420:	00054503          	lbu	a0,0(a0)
a0000424:	fca29ae3          	bne	t0,a0,a00003f8 <qlz_compress+0x1a8>
a0000428:	0017c503          	lbu	a0,1(a5)
a000042c:	0027c283          	lbu	t0,2(a5)
a0000430:	0007c703          	lbu	a4,0(a5)
a0000434:	00851513          	slli	a0,a0,0x8
a0000438:	01029293          	slli	t0,t0,0x10
a000043c:	00556533          	or	a0,a0,t0
a0000440:	00e56533          	or	a0,a0,a4
a0000444:	01012703          	lw	a4,16(sp)
a0000448:	fae518e3          	bne	a0,a4,a00003f8 <qlz_compress+0x1a8>
a000044c:	02012703          	lw	a4,32(sp)
a0000450:	fae7f4e3          	bgeu	a5,a4,a00003f8 <qlz_compress+0x1a8>
a0000454:	0037c283          	lbu	t0,3(a5)
a0000458:	00344503          	lbu	a0,3(s0)
a000045c:	58a29463          	bne	t0,a0,a00009e4 <qlz_compress+0x794>
a0000460:	02812703          	lw	a4,40(sp)
a0000464:	00300513          	li	a0,3
a0000468:	56e57e63          	bgeu	a0,a4,a00009e4 <qlz_compress+0x794>
a000046c:	04712223          	sw	t2,68(sp)
a0000470:	04c12423          	sw	a2,72(sp)
a0000474:	03412383          	lw	t2,52(sp)
a0000478:	0080006f          	j	a0000480 <qlz_compress+0x230>
a000047c:	44538a63          	beq	t2,t0,a00008d0 <qlz_compress+0x680>
a0000480:	00050293          	mv	t0,a0
a0000484:	00150513          	addi	a0,a0,1
a0000488:	00a78633          	add	a2,a5,a0
a000048c:	00a40733          	add	a4,s0,a0
a0000490:	00064603          	lbu	a2,0(a2)
a0000494:	00074703          	lbu	a4,0(a4)
a0000498:	fee602e3          	beq	a2,a4,a000047c <qlz_compress+0x22c>
a000049c:	04412383          	lw	t2,68(sp)
a00004a0:	04812603          	lw	a2,72(sp)
a00004a4:	f4a4fae3          	bgeu	s1,a0,a00003f8 <qlz_compress+0x1a8>
a00004a8:	00012783          	lw	a5,0(sp)
a00004ac:	00050493          	mv	s1,a0
a00004b0:	02f12623          	sw	a5,44(sp)
a00004b4:	00012783          	lw	a5,0(sp)
a00004b8:	00178793          	addi	a5,a5,1
a00004bc:	00f12023          	sw	a5,0(sp)
a00004c0:	f46794e3          	bne	a5,t1,a0000408 <qlz_compress+0x1b8>
a00004c4:	01c12683          	lw	a3,28(sp)
a00004c8:	00261713          	slli	a4,a2,0x2
a00004cc:	00048293          	mv	t0,s1
a00004d0:	00d70733          	add	a4,a4,a3
a00004d4:	00c12683          	lw	a3,12(sp)
a00004d8:	00271713          	slli	a4,a4,0x2
a00004dc:	00e68733          	add	a4,a3,a4
a00004e0:	01412683          	lw	a3,20(sp)
a00004e4:	00872223          	sw	s0,4(a4)
a00004e8:	00008737          	lui	a4,0x8
a00004ec:	00d70733          	add	a4,a4,a3
a00004f0:	01812683          	lw	a3,24(sp)
a00004f4:	00d70223          	sb	a3,4(a4) # 8004 <text_size+0xf18>
a00004f8:	00200713          	li	a4,2
a00004fc:	32977063          	bgeu	a4,s1,a000081c <qlz_compress+0x5cc>
a0000500:	00940533          	add	a0,s0,s1
a0000504:	00412783          	lw	a5,4(sp)
a0000508:	800006b7          	lui	a3,0x80000
a000050c:	00561713          	slli	a4,a2,0x5
a0000510:	00d7e7b3          	or	a5,a5,a3
a0000514:	00f12223          	sw	a5,4(sp)
a0000518:	02c12783          	lw	a5,44(sp)
a000051c:	00900693          	li	a3,9
a0000520:	00050413          	mv	s0,a0
a0000524:	00f76733          	or	a4,a4,a5
a0000528:	3056ea63          	bltu	a3,t0,a000083c <qlz_compress+0x5ec>
a000052c:	00812683          	lw	a3,8(sp)
a0000530:	ffe28793          	addi	a5,t0,-2
a0000534:	00279793          	slli	a5,a5,0x2
a0000538:	00e7e7b3          	or	a5,a5,a4
a000053c:	0087d713          	srli	a4,a5,0x8
a0000540:	00f68023          	sb	a5,0(a3) # 80000000 <data_load_start+0x4fff803c>
a0000544:	00268793          	addi	a5,a3,2
a0000548:	00e680a3          	sb	a4,1(a3)
a000054c:	00f12423          	sw	a5,8(sp)
a0000550:	da83fce3          	bgeu	t2,s0,a0000308 <qlz_compress+0xb8>
a0000554:	05812703          	lw	a4,88(sp)
a0000558:	04c12503          	lw	a0,76(sp)
a000055c:	05012303          	lw	t1,80(sp)
a0000560:	05412783          	lw	a5,84(sp)
a0000564:	4c876263          	bltu	a4,s0,a0000a28 <qlz_compress+0x7d8>
a0000568:	ffd70293          	addi	t0,a4,-3
a000056c:	03c12703          	lw	a4,60(sp)
a0000570:	00a12a23          	sw	a0,20(sp)
a0000574:	00612c23          	sw	t1,24(sp)
a0000578:	00812503          	lw	a0,8(sp)
a000057c:	00412303          	lw	t1,4(sp)
a0000580:	00f70733          	add	a4,a4,a5
a0000584:	05c10493          	addi	s1,sp,92
a0000588:	00e12023          	sw	a4,0(sp)
a000058c:	06010613          	addi	a2,sp,96
a0000590:	000083b7          	lui	t2,0x8
a0000594:	00028593          	mv	a1,t0
a0000598:	00f12e23          	sw	a5,28(sp)
a000059c:	00912823          	sw	s1,16(sp)
a00005a0:	00137713          	andi	a4,t1,1
a00005a4:	00135793          	srli	a5,t1,0x1
a00005a8:	2e071463          	bnez	a4,a0000890 <qlz_compress+0x640>
a00005ac:	0017f713          	andi	a4,a5,1
a00005b0:	00235693          	srli	a3,t1,0x2
a00005b4:	00e12223          	sw	a4,4(sp)
a00005b8:	00078313          	mv	t1,a5
a00005bc:	0685e463          	bltu	a1,s0,a0000624 <qlz_compress+0x3d4>
a00005c0:	00144703          	lbu	a4,1(s0)
a00005c4:	00244783          	lbu	a5,2(s0)
a00005c8:	00044483          	lbu	s1,0(s0)
a00005cc:	00871713          	slli	a4,a4,0x8
a00005d0:	01079793          	slli	a5,a5,0x10
a00005d4:	00f76733          	or	a4,a4,a5
a00005d8:	00d75293          	srli	t0,a4,0xd
a00005dc:	00975793          	srli	a5,a4,0x9
a00005e0:	0057c7b3          	xor	a5,a5,t0
a00005e4:	00976733          	or	a4,a4,s1
a00005e8:	00e7c7b3          	xor	a5,a5,a4
a00005ec:	00c12703          	lw	a4,12(sp)
a00005f0:	7ff7f793          	andi	a5,a5,2047
a00005f4:	00f70733          	add	a4,a4,a5
a00005f8:	00e38733          	add	a4,t2,a4
a00005fc:	00474283          	lbu	t0,4(a4)
a0000600:	00279793          	slli	a5,a5,0x2
a0000604:	0032f493          	andi	s1,t0,3
a0000608:	009787b3          	add	a5,a5,s1
a000060c:	00c12483          	lw	s1,12(sp)
a0000610:	00279793          	slli	a5,a5,0x2
a0000614:	00128293          	addi	t0,t0,1
a0000618:	00f487b3          	add	a5,s1,a5
a000061c:	0087a223          	sw	s0,4(a5)
a0000620:	00570223          	sb	t0,4(a4)
a0000624:	00044783          	lbu	a5,0(s0)
a0000628:	00140413          	addi	s0,s0,1
a000062c:	00150513          	addi	a0,a0,1
a0000630:	fef50fa3          	sb	a5,-1(a0)
a0000634:	00012783          	lw	a5,0(sp)
a0000638:	f68794e3          	bne	a5,s0,a00005a0 <qlz_compress+0x350>
a000063c:	00412583          	lw	a1,4(sp)
a0000640:	00a12423          	sw	a0,8(sp)
a0000644:	00612223          	sw	t1,4(sp)
a0000648:	01412503          	lw	a0,20(sp)
a000064c:	01812303          	lw	t1,24(sp)
a0000650:	01c12783          	lw	a5,28(sp)
a0000654:	01012483          	lw	s1,16(sp)
a0000658:	00059e63          	bnez	a1,a0000674 <qlz_compress+0x424>
a000065c:	00412703          	lw	a4,4(sp)
a0000660:	00070693          	mv	a3,a4
a0000664:	00175713          	srli	a4,a4,0x1
a0000668:	00177613          	andi	a2,a4,1
a000066c:	fe060ae3          	beqz	a2,a0000660 <qlz_compress+0x410>
a0000670:	0026d693          	srli	a3,a3,0x2
a0000674:	80000737          	lui	a4,0x80000
a0000678:	00e6e6b3          	or	a3,a3,a4
a000067c:	04d12e23          	sw	a3,92(sp)
a0000680:	02412683          	lw	a3,36(sp)
a0000684:	00048713          	mv	a4,s1
a0000688:	06010593          	addi	a1,sp,96
a000068c:	00074603          	lbu	a2,0(a4) # 80000000 <data_load_start+0x4fff803c>
a0000690:	00170713          	addi	a4,a4,1
a0000694:	00168693          	addi	a3,a3,1
a0000698:	fec68fa3          	sb	a2,-1(a3)
a000069c:	feb718e3          	bne	a4,a1,a000068c <qlz_compress+0x43c>
a00006a0:	00812703          	lw	a4,8(sp)
a00006a4:	04012683          	lw	a3,64(sp)
a00006a8:	40d70633          	sub	a2,a4,a3
a00006ac:	00900713          	li	a4,9
a00006b0:	00e65463          	bge	a2,a4,a00006b8 <qlz_compress+0x468>
a00006b4:	00900613          	li	a2,9
a00006b8:	00a60633          	add	a2,a2,a0
a00006bc:	00100713          	li	a4,1
a00006c0:	00c12683          	lw	a3,12(sp)
a00006c4:	0006a023          	sw	zero,0(a3)
a00006c8:	00300693          	li	a3,3
a00006cc:	22d50463          	beq	a0,a3,a00008f4 <qlz_compress+0x6a4>
a00006d0:	00276713          	ori	a4,a4,2
a00006d4:	05c10493          	addi	s1,sp,92
a00006d8:	00e30023          	sb	a4,0(t1)
a00006dc:	04c12e23          	sw	a2,92(sp)
a00006e0:	00048713          	mv	a4,s1
a00006e4:	00130693          	addi	a3,t1,1
a00006e8:	06010513          	addi	a0,sp,96
a00006ec:	00074583          	lbu	a1,0(a4)
a00006f0:	00170713          	addi	a4,a4,1
a00006f4:	00168693          	addi	a3,a3,1
a00006f8:	feb68fa3          	sb	a1,-1(a3)
a00006fc:	fea718e3          	bne	a4,a0,a00006ec <qlz_compress+0x49c>
a0000700:	04f12e23          	sw	a5,92(sp)
a0000704:	00530713          	addi	a4,t1,5
a0000708:	00048793          	mv	a5,s1
a000070c:	06010593          	addi	a1,sp,96
a0000710:	0007c683          	lbu	a3,0(a5)
a0000714:	00178793          	addi	a5,a5,1
a0000718:	00170713          	addi	a4,a4,1
a000071c:	fed70fa3          	sb	a3,-1(a4)
a0000720:	feb798e3          	bne	a5,a1,a0000710 <qlz_compress+0x4c0>
a0000724:	00034703          	lbu	a4,0(t1)
a0000728:	04876713          	ori	a4,a4,72
a000072c:	00e30023          	sb	a4,0(t1)
a0000730:	06412403          	lw	s0,100(sp)
a0000734:	06812083          	lw	ra,104(sp)
a0000738:	06012483          	lw	s1,96(sp)
a000073c:	00060513          	mv	a0,a2
a0000740:	06c10113          	addi	sp,sp,108
a0000744:	00008067          	ret
a0000748:	03812783          	lw	a5,56(sp)
a000074c:	0287f263          	bgeu	a5,s0,a0000770 <qlz_compress+0x520>
a0000750:	03c12783          	lw	a5,60(sp)
a0000754:	00812703          	lw	a4,8(sp)
a0000758:	04012603          	lw	a2,64(sp)
a000075c:	40f406b3          	sub	a3,s0,a5
a0000760:	4056d793          	srai	a5,a3,0x5
a0000764:	40c70733          	sub	a4,a4,a2
a0000768:	40f687b3          	sub	a5,a3,a5
a000076c:	20e7c663          	blt	a5,a4,a0000978 <qlz_compress+0x728>
a0000770:	00412783          	lw	a5,4(sp)
a0000774:	80000737          	lui	a4,0x80000
a0000778:	0017d793          	srli	a5,a5,0x1
a000077c:	00e7e7b3          	or	a5,a5,a4
a0000780:	02412703          	lw	a4,36(sp)
a0000784:	04f12e23          	sw	a5,92(sp)
a0000788:	05c10793          	addi	a5,sp,92
a000078c:	0007c683          	lbu	a3,0(a5)
a0000790:	00178793          	addi	a5,a5,1
a0000794:	00170713          	addi	a4,a4,1 # 80000001 <data_load_start+0x4fff803d>
a0000798:	fed70fa3          	sb	a3,-1(a4)
a000079c:	06010693          	addi	a3,sp,96
a00007a0:	fef696e3          	bne	a3,a5,a000078c <qlz_compress+0x53c>
a00007a4:	00812783          	lw	a5,8(sp)
a00007a8:	40000737          	lui	a4,0x40000
a00007ac:	00e12223          	sw	a4,4(sp)
a00007b0:	02f12223          	sw	a5,36(sp)
a00007b4:	00478793          	addi	a5,a5,4
a00007b8:	00f12423          	sw	a5,8(sp)
a00007bc:	b61ff06f          	j	a000031c <qlz_compress+0xcc>
a00007c0:	04058663          	beqz	a1,a000080c <qlz_compress+0x5bc>
a00007c4:	00174783          	lbu	a5,1(a4) # 40000001 <data_load_start+0xfff803d>
a00007c8:	00274503          	lbu	a0,2(a4)
a00007cc:	00074283          	lbu	t0,0(a4)
a00007d0:	00879793          	slli	a5,a5,0x8
a00007d4:	01051513          	slli	a0,a0,0x10
a00007d8:	00a7e7b3          	or	a5,a5,a0
a00007dc:	01012503          	lw	a0,16(sp)
a00007e0:	0057e7b3          	or	a5,a5,t0
a00007e4:	08a79463          	bne	a5,a0,a000086c <qlz_compress+0x61c>
a00007e8:	00374503          	lbu	a0,3(a4)
a00007ec:	00344783          	lbu	a5,3(s0)
a00007f0:	10f50863          	beq	a0,a5,a0000900 <qlz_compress+0x6b0>
a00007f4:	00300793          	li	a5,3
a00007f8:	00100713          	li	a4,1
a00007fc:	00078293          	mv	t0,a5
a0000800:	00340513          	addi	a0,s0,3
a0000804:	bce590e3          	bne	a1,a4,a00003c4 <qlz_compress+0x174>
a0000808:	2700006f          	j	a0000a78 <qlz_compress+0x828>
a000080c:	00012783          	lw	a5,0(sp)
a0000810:	0087a223          	sw	s0,4(a5)
a0000814:	00100793          	li	a5,1
a0000818:	00f30223          	sb	a5,4(t1)
a000081c:	00812703          	lw	a4,8(sp)
a0000820:	00044783          	lbu	a5,0(s0)
a0000824:	00140413          	addi	s0,s0,1
a0000828:	00170713          	addi	a4,a4,1
a000082c:	00e12423          	sw	a4,8(sp)
a0000830:	fef70fa3          	sb	a5,-1(a4)
a0000834:	ac83fae3          	bgeu	t2,s0,a0000308 <qlz_compress+0xb8>
a0000838:	d1dff06f          	j	a0000554 <qlz_compress+0x304>
a000083c:	00812603          	lw	a2,8(sp)
a0000840:	01029793          	slli	a5,t0,0x10
a0000844:	00e7e7b3          	or	a5,a5,a4
a0000848:	0087d693          	srli	a3,a5,0x8
a000084c:	0107d713          	srli	a4,a5,0x10
a0000850:	00f60023          	sb	a5,0(a2)
a0000854:	00360793          	addi	a5,a2,3
a0000858:	00d600a3          	sb	a3,1(a2)
a000085c:	00e60123          	sb	a4,2(a2)
a0000860:	00f12423          	sw	a5,8(sp)
a0000864:	aa83f2e3          	bgeu	t2,s0,a0000308 <qlz_compress+0xb8>
a0000868:	cedff06f          	j	a0000554 <qlz_compress+0x304>
a000086c:	00100713          	li	a4,1
a0000870:	00000293          	li	t0,0
a0000874:	00040513          	mv	a0,s0
a0000878:	b4e596e3          	bne	a1,a4,a00003c4 <qlz_compress+0x174>
a000087c:	00012783          	lw	a5,0(sp)
a0000880:	0087a423          	sw	s0,8(a5)
a0000884:	00200793          	li	a5,2
a0000888:	00f30223          	sb	a5,4(t1)
a000088c:	f91ff06f          	j	a000081c <qlz_compress+0x5cc>
a0000890:	80000737          	lui	a4,0x80000
a0000894:	00e7e7b3          	or	a5,a5,a4
a0000898:	04f12e23          	sw	a5,92(sp)
a000089c:	02412703          	lw	a4,36(sp)
a00008a0:	01012783          	lw	a5,16(sp)
a00008a4:	0007c683          	lbu	a3,0(a5)
a00008a8:	00178793          	addi	a5,a5,1
a00008ac:	00170713          	addi	a4,a4,1 # 80000001 <data_load_start+0x4fff803d>
a00008b0:	fed70fa3          	sb	a3,-1(a4)
a00008b4:	fef618e3          	bne	a2,a5,a00008a4 <qlz_compress+0x654>
a00008b8:	02a12223          	sw	a0,36(sp)
a00008bc:	200006b7          	lui	a3,0x20000
a00008c0:	00450513          	addi	a0,a0,4
a00008c4:	00012223          	sw	zero,4(sp)
a00008c8:	40000337          	lui	t1,0x40000
a00008cc:	cf1ff06f          	j	a00005bc <qlz_compress+0x36c>
a00008d0:	04412383          	lw	t2,68(sp)
a00008d4:	04812603          	lw	a2,72(sp)
a00008d8:	02812503          	lw	a0,40(sp)
a00008dc:	bc9ff06f          	j	a00004a4 <qlz_compress+0x254>
a00008e0:	06812083          	lw	ra,104(sp)
a00008e4:	00000613          	li	a2,0
a00008e8:	00060513          	mv	a0,a2
a00008ec:	06c10113          	addi	sp,sp,108
a00008f0:	00008067          	ret
a00008f4:	00c300a3          	sb	a2,1(t1) # 40000001 <data_load_start+0xfff803d>
a00008f8:	00f30123          	sb	a5,2(t1)
a00008fc:	e2dff06f          	j	a0000728 <qlz_compress+0x4d8>
a0000900:	00474503          	lbu	a0,4(a4)
a0000904:	00444783          	lbu	a5,4(s0)
a0000908:	14f51e63          	bne	a0,a5,a0000a64 <qlz_compress+0x814>
a000090c:	00400793          	li	a5,4
a0000910:	00148513          	addi	a0,s1,1
a0000914:	14a7f863          	bgeu	a5,a0,a0000a64 <qlz_compress+0x814>
a0000918:	00712023          	sw	t2,0(sp)
a000091c:	0080006f          	j	a0000924 <qlz_compress+0x6d4>
a0000920:	0c748663          	beq	s1,t2,a00009ec <qlz_compress+0x79c>
a0000924:	00078393          	mv	t2,a5
a0000928:	00178793          	addi	a5,a5,1
a000092c:	00f70333          	add	t1,a4,a5
a0000930:	00f40533          	add	a0,s0,a5
a0000934:	00034283          	lbu	t0,0(t1)
a0000938:	00054303          	lbu	t1,0(a0)
a000093c:	fe6282e3          	beq	t0,t1,a0000920 <qlz_compress+0x6d0>
a0000940:	00012383          	lw	t2,0(sp)
a0000944:	00078293          	mv	t0,a5
a0000948:	00100713          	li	a4,1
a000094c:	a6e59ce3          	bne	a1,a4,a00003c4 <qlz_compress+0x174>
a0000950:	00c12783          	lw	a5,12(sp)
a0000954:	00008737          	lui	a4,0x8
a0000958:	02012623          	sw	zero,44(sp)
a000095c:	00d786b3          	add	a3,a5,a3
a0000960:	01412783          	lw	a5,20(sp)
a0000964:	0086a423          	sw	s0,8(a3) # 20000008 <_stack_pointer+0x10ffe008>
a0000968:	00200693          	li	a3,2
a000096c:	00f70733          	add	a4,a4,a5
a0000970:	00d70223          	sb	a3,4(a4) # 8004 <text_size+0xf18>
a0000974:	b91ff06f          	j	a0000504 <qlz_compress+0x2b4>
a0000978:	03c12703          	lw	a4,60(sp)
a000097c:	04c12503          	lw	a0,76(sp)
a0000980:	05012303          	lw	t1,80(sp)
a0000984:	05412783          	lw	a5,84(sp)
a0000988:	12070663          	beqz	a4,a0000ab4 <qlz_compress+0x864>
a000098c:	03c12583          	lw	a1,60(sp)
a0000990:	04012683          	lw	a3,64(sp)
a0000994:	00f58733          	add	a4,a1,a5
a0000998:	02e6f663          	bgeu	a3,a4,a00009c4 <qlz_compress+0x774>
a000099c:	02d5f463          	bgeu	a1,a3,a00009c4 <qlz_compress+0x774>
a00009a0:	00f686b3          	add	a3,a3,a5
a00009a4:	fff74603          	lbu	a2,-1(a4)
a00009a8:	fff70713          	addi	a4,a4,-1
a00009ac:	fff68693          	addi	a3,a3,-1
a00009b0:	00c68023          	sb	a2,0(a3)
a00009b4:	fee598e3          	bne	a1,a4,a00009a4 <qlz_compress+0x754>
a00009b8:	00f50633          	add	a2,a0,a5
a00009bc:	00000713          	li	a4,0
a00009c0:	d01ff06f          	j	a00006c0 <qlz_compress+0x470>
a00009c4:	04012603          	lw	a2,64(sp)
a00009c8:	03c12683          	lw	a3,60(sp)
a00009cc:	0006c583          	lbu	a1,0(a3)
a00009d0:	00168693          	addi	a3,a3,1
a00009d4:	00160613          	addi	a2,a2,1
a00009d8:	feb60fa3          	sb	a1,-1(a2)
a00009dc:	fed718e3          	bne	a4,a3,a00009cc <qlz_compress+0x77c>
a00009e0:	fd9ff06f          	j	a00009b8 <qlz_compress+0x768>
a00009e4:	00300513          	li	a0,3
a00009e8:	abdff06f          	j	a00004a4 <qlz_compress+0x254>
a00009ec:	02812783          	lw	a5,40(sp)
a00009f0:	00012383          	lw	t2,0(sp)
a00009f4:	00078293          	mv	t0,a5
a00009f8:	00f40533          	add	a0,s0,a5
a00009fc:	f4dff06f          	j	a0000948 <qlz_compress+0x6f8>
a0000a00:	01c12703          	lw	a4,28(sp)
a0000a04:	00261793          	slli	a5,a2,0x2
a0000a08:	00e787b3          	add	a5,a5,a4
a0000a0c:	00c12703          	lw	a4,12(sp)
a0000a10:	00279793          	slli	a5,a5,0x2
a0000a14:	00f707b3          	add	a5,a4,a5
a0000a18:	0087a223          	sw	s0,4(a5)
a0000a1c:	01812783          	lw	a5,24(sp)
a0000a20:	00f30223          	sb	a5,4(t1)
a0000a24:	df9ff06f          	j	a000081c <qlz_compress+0x5cc>
a0000a28:	00412703          	lw	a4,4(sp)
a0000a2c:	05c10493          	addi	s1,sp,92
a0000a30:	00177593          	andi	a1,a4,1
a0000a34:	00175693          	srli	a3,a4,0x1
a0000a38:	c21ff06f          	j	a0000658 <qlz_compress+0x408>
a0000a3c:	04012683          	lw	a3,64(sp)
a0000a40:	80000637          	lui	a2,0x80000
a0000a44:	00c12223          	sw	a2,4(sp)
a0000a48:	02d12223          	sw	a3,36(sp)
a0000a4c:	03c12683          	lw	a3,60(sp)
a0000a50:	00068413          	mv	s0,a3
a0000a54:	b0d77ae3          	bgeu	a4,a3,a0000568 <qlz_compress+0x318>
a0000a58:	05c10493          	addi	s1,sp,92
a0000a5c:	80000737          	lui	a4,0x80000
a0000a60:	c01ff06f          	j	a0000660 <qlz_compress+0x410>
a0000a64:	00400793          	li	a5,4
a0000a68:	00100713          	li	a4,1
a0000a6c:	00078293          	mv	t0,a5
a0000a70:	00440513          	addi	a0,s0,4
a0000a74:	94e598e3          	bne	a1,a4,a00003c4 <qlz_compress+0x174>
a0000a78:	00c12783          	lw	a5,12(sp)
a0000a7c:	00008737          	lui	a4,0x8
a0000a80:	00d786b3          	add	a3,a5,a3
a0000a84:	01412783          	lw	a5,20(sp)
a0000a88:	0086a423          	sw	s0,8(a3)
a0000a8c:	00200693          	li	a3,2
a0000a90:	00f70733          	add	a4,a4,a5
a0000a94:	00412783          	lw	a5,4(sp)
a0000a98:	00d70223          	sb	a3,4(a4) # 8004 <text_size+0xf18>
a0000a9c:	80000737          	lui	a4,0x80000
a0000aa0:	00e7e7b3          	or	a5,a5,a4
a0000aa4:	00f12223          	sw	a5,4(sp)
a0000aa8:	00540433          	add	s0,s0,t0
a0000aac:	00561713          	slli	a4,a2,0x5
a0000ab0:	a7dff06f          	j	a000052c <qlz_compress+0x2dc>
a0000ab4:	f74ff0ef          	jal	a0000228 <bench_memcpy.part.0>

a0000ab8 <bench_lzip_prepare>:
a0000ab8:	01000797          	auipc	a5,0x1000
a0000abc:	c147a783          	lw	a5,-1004(a5) # a10006cc <setting>
a0000ac0:	0007a783          	lw	a5,0(a5)
a0000ac4:	ff010113          	addi	sp,sp,-16
a0000ac8:	00112623          	sw	ra,12(sp)
a0000acc:	00912223          	sw	s1,4(sp)
a0000ad0:	00100513          	li	a0,1
a0000ad4:	01000497          	auipc	s1,0x1000
a0000ad8:	bc048493          	addi	s1,s1,-1088 # a1000694 <SIZE>
a0000adc:	00f4a023          	sw	a5,0(s1)
a0000ae0:	7c8010ef          	jal	a00022a8 <bench_srand>
a0000ae4:	00009537          	lui	a0,0x9
a0000ae8:	80450513          	addi	a0,a0,-2044 # 8804 <text_size+0x1718>
a0000aec:	714010ef          	jal	a0002200 <bench_alloc>
a0000af0:	00050793          	mv	a5,a0
a0000af4:	0004a503          	lw	a0,0(s1)
a0000af8:	01000717          	auipc	a4,0x1000
a0000afc:	b8f72c23          	sw	a5,-1128(a4) # a1000690 <state>
a0000b00:	700010ef          	jal	a0002200 <bench_alloc>
a0000b04:	0004a783          	lw	a5,0(s1)
a0000b08:	01000717          	auipc	a4,0x1000
a0000b0c:	b8470713          	addi	a4,a4,-1148 # a100068c <blk>
a0000b10:	00a72023          	sw	a0,0(a4)
a0000b14:	19078513          	addi	a0,a5,400
a0000b18:	6e8010ef          	jal	a0002200 <bench_alloc>
a0000b1c:	0004a783          	lw	a5,0(s1)
a0000b20:	01000717          	auipc	a4,0x1000
a0000b24:	b6a72423          	sw	a0,-1176(a4) # a1000688 <compress>
a0000b28:	04f05463          	blez	a5,a0000b70 <bench_lzip_prepare+0xb8>
a0000b2c:	00812423          	sw	s0,8(sp)
a0000b30:	00000413          	li	s0,0
a0000b34:	788010ef          	jal	a00022bc <bench_rand>
a0000b38:	01000797          	auipc	a5,0x1000
a0000b3c:	b5478793          	addi	a5,a5,-1196 # a100068c <blk>
a0000b40:	0007a783          	lw	a5,0(a5)
a0000b44:	01a00593          	li	a1,26
a0000b48:	008787b3          	add	a5,a5,s0
a0000b4c:	00f12023          	sw	a5,0(sp)
a0000b50:	779040ef          	jal	a0005ac8 <__umodsi3>
a0000b54:	00012783          	lw	a5,0(sp)
a0000b58:	0004a703          	lw	a4,0(s1)
a0000b5c:	06150513          	addi	a0,a0,97
a0000b60:	00a78023          	sb	a0,0(a5)
a0000b64:	00140413          	addi	s0,s0,1
a0000b68:	fce446e3          	blt	s0,a4,a0000b34 <bench_lzip_prepare+0x7c>
a0000b6c:	00812403          	lw	s0,8(sp)
a0000b70:	00c12083          	lw	ra,12(sp)
a0000b74:	00412483          	lw	s1,4(sp)
a0000b78:	01010113          	addi	sp,sp,16
a0000b7c:	00008067          	ret

a0000b80 <bench_lzip_run>:
a0000b80:	ff410113          	addi	sp,sp,-12
a0000b84:	01000697          	auipc	a3,0x1000
a0000b88:	b0c6a683          	lw	a3,-1268(a3) # a1000690 <state>
a0000b8c:	01000617          	auipc	a2,0x1000
a0000b90:	b0862603          	lw	a2,-1272(a2) # a1000694 <SIZE>
a0000b94:	01000597          	auipc	a1,0x1000
a0000b98:	af45a583          	lw	a1,-1292(a1) # a1000688 <compress>
a0000b9c:	01000517          	auipc	a0,0x1000
a0000ba0:	af052503          	lw	a0,-1296(a0) # a100068c <blk>
a0000ba4:	00112423          	sw	ra,8(sp)
a0000ba8:	ea8ff0ef          	jal	a0000250 <qlz_compress>
a0000bac:	00812083          	lw	ra,8(sp)
a0000bb0:	01000797          	auipc	a5,0x1000
a0000bb4:	aca7aa23          	sw	a0,-1324(a5) # a1000684 <len>
a0000bb8:	00c10113          	addi	sp,sp,12
a0000bbc:	00008067          	ret

a0000bc0 <bench_lzip_validate>:
a0000bc0:	01000517          	auipc	a0,0x1000
a0000bc4:	ac852503          	lw	a0,-1336(a0) # a1000688 <compress>
a0000bc8:	01000597          	auipc	a1,0x1000
a0000bcc:	abc5a583          	lw	a1,-1348(a1) # a1000684 <len>
a0000bd0:	ff410113          	addi	sp,sp,-12
a0000bd4:	00b505b3          	add	a1,a0,a1
a0000bd8:	00112423          	sw	ra,8(sp)
a0000bdc:	730010ef          	jal	a000230c <checksum>
a0000be0:	01000797          	auipc	a5,0x1000
a0000be4:	aec7a783          	lw	a5,-1300(a5) # a10006cc <setting>
a0000be8:	00c7a783          	lw	a5,12(a5)
a0000bec:	00812083          	lw	ra,8(sp)
a0000bf0:	40a78533          	sub	a0,a5,a0
a0000bf4:	00153513          	seqz	a0,a0
a0000bf8:	00c10113          	addi	sp,sp,12
a0000bfc:	00008067          	ret

a0000c00 <bench_fib_prepare>:
a0000c00:	01000797          	auipc	a5,0x1000
a0000c04:	acc7a783          	lw	a5,-1332(a5) # a10006cc <setting>
a0000c08:	0007a783          	lw	a5,0(a5)
a0000c0c:	ff410113          	addi	sp,sp,-12
a0000c10:	00112423          	sw	ra,8(sp)
a0000c14:	00078593          	mv	a1,a5
a0000c18:	00078513          	mv	a0,a5
a0000c1c:	00812223          	sw	s0,4(sp)
a0000c20:	01000717          	auipc	a4,0x1000
a0000c24:	a8f72423          	sw	a5,-1400(a4) # a10006a8 <M>
a0000c28:	705040ef          	jal	a0005b2c <__mulsi3>
a0000c2c:	00251413          	slli	s0,a0,0x2
a0000c30:	00040513          	mv	a0,s0
a0000c34:	5cc010ef          	jal	a0002200 <bench_alloc>
a0000c38:	00050793          	mv	a5,a0
a0000c3c:	00040513          	mv	a0,s0
a0000c40:	01000717          	auipc	a4,0x1000
a0000c44:	a6f72223          	sw	a5,-1436(a4) # a10006a4 <A>
a0000c48:	5b8010ef          	jal	a0002200 <bench_alloc>
a0000c4c:	00050793          	mv	a5,a0
a0000c50:	00040513          	mv	a0,s0
a0000c54:	01000717          	auipc	a4,0x1000
a0000c58:	a4f72423          	sw	a5,-1464(a4) # a100069c <T>
a0000c5c:	5a4010ef          	jal	a0002200 <bench_alloc>
a0000c60:	00050793          	mv	a5,a0
a0000c64:	00040513          	mv	a0,s0
a0000c68:	01000717          	auipc	a4,0x1000
a0000c6c:	a2f72c23          	sw	a5,-1480(a4) # a10006a0 <ans>
a0000c70:	590010ef          	jal	a0002200 <bench_alloc>
a0000c74:	00812083          	lw	ra,8(sp)
a0000c78:	00412403          	lw	s0,4(sp)
a0000c7c:	01000797          	auipc	a5,0x1000
a0000c80:	a0a7ae23          	sw	a0,-1508(a5) # a1000698 <tmp>
a0000c84:	00c10113          	addi	sp,sp,12
a0000c88:	00008067          	ret

a0000c8c <bench_fib_run>:
a0000c8c:	fa410113          	addi	sp,sp,-92
a0000c90:	01000797          	auipc	a5,0x1000
a0000c94:	a0c7a783          	lw	a5,-1524(a5) # a100069c <T>
a0000c98:	02f12423          	sw	a5,40(sp)
a0000c9c:	01000797          	auipc	a5,0x1000
a0000ca0:	a047a783          	lw	a5,-1532(a5) # a10006a0 <ans>
a0000ca4:	04112c23          	sw	ra,88(sp)
a0000ca8:	04812a23          	sw	s0,84(sp)
a0000cac:	04912823          	sw	s1,80(sp)
a0000cb0:	01000397          	auipc	t2,0x1000
a0000cb4:	9f83a383          	lw	t2,-1544(t2) # a10006a8 <M>
a0000cb8:	02f12823          	sw	a5,48(sp)
a0000cbc:	08705e63          	blez	t2,a0000d58 <bench_fib_run+0xcc>
a0000cc0:	fff38493          	addi	s1,t2,-1
a0000cc4:	01000417          	auipc	s0,0x1000
a0000cc8:	9e042403          	lw	s0,-1568(s0) # a10006a4 <A>
a0000ccc:	00912023          	sw	s1,0(sp)
a0000cd0:	00000693          	li	a3,0
a0000cd4:	00000313          	li	t1,0
a0000cd8:	00000293          	li	t0,0
a0000cdc:	00040493          	mv	s1,s0
a0000ce0:	02812783          	lw	a5,40(sp)
a0000ce4:	00269713          	slli	a4,a3,0x2
a0000ce8:	00e48433          	add	s0,s1,a4
a0000cec:	00e78533          	add	a0,a5,a4
a0000cf0:	03012783          	lw	a5,48(sp)
a0000cf4:	00128293          	addi	t0,t0,1
a0000cf8:	00912223          	sw	s1,4(sp)
a0000cfc:	00e78733          	add	a4,a5,a4
a0000d00:	00d12423          	sw	a3,8(sp)
a0000d04:	00000793          	li	a5,0
a0000d08:	00012683          	lw	a3,0(sp)
a0000d0c:	40678633          	sub	a2,a5,t1
a0000d10:	405784b3          	sub	s1,a5,t0
a0000d14:	00163613          	seqz	a2,a2
a0000d18:	00178793          	addi	a5,a5,1
a0000d1c:	00100593          	li	a1,1
a0000d20:	00668463          	beq	a3,t1,a0000d28 <bench_fib_run+0x9c>
a0000d24:	0014b593          	seqz	a1,s1
a0000d28:	00b42023          	sw	a1,0(s0)
a0000d2c:	00b52023          	sw	a1,0(a0)
a0000d30:	00c72023          	sw	a2,0(a4)
a0000d34:	00440413          	addi	s0,s0,4
a0000d38:	00450513          	addi	a0,a0,4
a0000d3c:	00470713          	addi	a4,a4,4
a0000d40:	fc7794e3          	bne	a5,t2,a0000d08 <bench_fib_run+0x7c>
a0000d44:	00812683          	lw	a3,8(sp)
a0000d48:	00412483          	lw	s1,4(sp)
a0000d4c:	00130313          	addi	t1,t1,1
a0000d50:	007686b3          	add	a3,a3,t2
a0000d54:	f85396e3          	bne	t2,t0,a0000ce0 <bench_fib_run+0x54>
a0000d58:	00239293          	slli	t0,t2,0x2
a0000d5c:	01000797          	auipc	a5,0x1000
a0000d60:	93c7a783          	lw	a5,-1732(a5) # a1000698 <tmp>
a0000d64:	02f12623          	sw	a5,44(sp)
a0000d68:	005787b3          	add	a5,a5,t0
a0000d6c:	02f12c23          	sw	a5,56(sp)
a0000d70:	02812783          	lw	a5,40(sp)
a0000d74:	03012603          	lw	a2,48(sp)
a0000d78:	40700733          	neg	a4,t2
a0000d7c:	005787b3          	add	a5,a5,t0
a0000d80:	02f12e23          	sw	a5,60(sp)
a0000d84:	01f00793          	li	a5,31
a0000d88:	800006b7          	lui	a3,0x80000
a0000d8c:	00560633          	add	a2,a2,t0
a0000d90:	02f12a23          	sw	a5,52(sp)
a0000d94:	00371793          	slli	a5,a4,0x3
a0000d98:	04e12223          	sw	a4,68(sp)
a0000d9c:	04c12023          	sw	a2,64(sp)
a0000da0:	fd368693          	addi	a3,a3,-45 # 7fffffd3 <data_load_start+0x4fff800f>
a0000da4:	04f12423          	sw	a5,72(sp)
a0000da8:	0016f793          	andi	a5,a3,1
a0000dac:	16079863          	bnez	a5,a0000f1c <bench_fib_run+0x290>
a0000db0:	14705263          	blez	t2,a0000ef4 <bench_fib_run+0x268>
a0000db4:	03c12783          	lw	a5,60(sp)
a0000db8:	02812303          	lw	t1,40(sp)
a0000dbc:	00000713          	li	a4,0
a0000dc0:	00f12623          	sw	a5,12(sp)
a0000dc4:	00000513          	li	a0,0
a0000dc8:	04d12623          	sw	a3,76(sp)
a0000dcc:	00028793          	mv	a5,t0
a0000dd0:	02c12603          	lw	a2,44(sp)
a0000dd4:	00271693          	slli	a3,a4,0x2
a0000dd8:	00f12423          	sw	a5,8(sp)
a0000ddc:	00c686b3          	add	a3,a3,a2
a0000de0:	02812603          	lw	a2,40(sp)
a0000de4:	00000593          	li	a1,0
a0000de8:	02e12023          	sw	a4,32(sp)
a0000dec:	02a12223          	sw	a0,36(sp)
a0000df0:	00712e23          	sw	t2,28(sp)
a0000df4:	00612c23          	sw	t1,24(sp)
a0000df8:	00068793          	mv	a5,a3
a0000dfc:	01812403          	lw	s0,24(sp)
a0000e00:	0007a023          	sw	zero,0(a5)
a0000e04:	00060313          	mv	t1,a2
a0000e08:	00000493          	li	s1,0
a0000e0c:	00c12823          	sw	a2,16(sp)
a0000e10:	00f12223          	sw	a5,4(sp)
a0000e14:	00b12a23          	sw	a1,20(sp)
a0000e18:	00032583          	lw	a1,0(t1)
a0000e1c:	00042503          	lw	a0,0(s0)
a0000e20:	00612023          	sw	t1,0(sp)
a0000e24:	00440413          	addi	s0,s0,4
a0000e28:	505040ef          	jal	a0005b2c <__mulsi3>
a0000e2c:	00412783          	lw	a5,4(sp)
a0000e30:	00a484b3          	add	s1,s1,a0
a0000e34:	00012303          	lw	t1,0(sp)
a0000e38:	0097a023          	sw	s1,0(a5)
a0000e3c:	00812783          	lw	a5,8(sp)
a0000e40:	00f30333          	add	t1,t1,a5
a0000e44:	00c12783          	lw	a5,12(sp)
a0000e48:	fcf418e3          	bne	s0,a5,a0000e18 <bench_fib_run+0x18c>
a0000e4c:	01412583          	lw	a1,20(sp)
a0000e50:	01012603          	lw	a2,16(sp)
a0000e54:	00412783          	lw	a5,4(sp)
a0000e58:	01c12703          	lw	a4,28(sp)
a0000e5c:	00158593          	addi	a1,a1,1
a0000e60:	00478793          	addi	a5,a5,4
a0000e64:	00460613          	addi	a2,a2,4
a0000e68:	f8e59ae3          	bne	a1,a4,a0000dfc <bench_fib_run+0x170>
a0000e6c:	00812783          	lw	a5,8(sp)
a0000e70:	02412503          	lw	a0,36(sp)
a0000e74:	02012703          	lw	a4,32(sp)
a0000e78:	01c12383          	lw	t2,28(sp)
a0000e7c:	01812303          	lw	t1,24(sp)
a0000e80:	00f406b3          	add	a3,s0,a5
a0000e84:	00150513          	addi	a0,a0,1
a0000e88:	00d12623          	sw	a3,12(sp)
a0000e8c:	00f30333          	add	t1,t1,a5
a0000e90:	00770733          	add	a4,a4,t2
a0000e94:	f2751ee3          	bne	a0,t2,a0000dd0 <bench_fib_run+0x144>
a0000e98:	04c12683          	lw	a3,76(sp)
a0000e9c:	00078293          	mv	t0,a5
a0000ea0:	04412783          	lw	a5,68(sp)
a0000ea4:	03812603          	lw	a2,56(sp)
a0000ea8:	02812483          	lw	s1,40(sp)
a0000eac:	00000593          	li	a1,0
a0000eb0:	00000313          	li	t1,0
a0000eb4:	00379413          	slli	s0,a5,0x3
a0000eb8:	00d12023          	sw	a3,0(sp)
a0000ebc:	40560533          	sub	a0,a2,t0
a0000ec0:	00259713          	slli	a4,a1,0x2
a0000ec4:	00e48733          	add	a4,s1,a4
a0000ec8:	00050793          	mv	a5,a0
a0000ecc:	0007a683          	lw	a3,0(a5)
a0000ed0:	00478793          	addi	a5,a5,4
a0000ed4:	00470713          	addi	a4,a4,4
a0000ed8:	fed72e23          	sw	a3,-4(a4)
a0000edc:	fef618e3          	bne	a2,a5,a0000ecc <bench_fib_run+0x240>
a0000ee0:	00130313          	addi	t1,t1,1
a0000ee4:	007585b3          	add	a1,a1,t2
a0000ee8:	40850633          	sub	a2,a0,s0
a0000eec:	fc7318e3          	bne	t1,t2,a0000ebc <bench_fib_run+0x230>
a0000ef0:	00012683          	lw	a3,0(sp)
a0000ef4:	03412783          	lw	a5,52(sp)
a0000ef8:	4016d693          	srai	a3,a3,0x1
a0000efc:	fff78793          	addi	a5,a5,-1
a0000f00:	02f12a23          	sw	a5,52(sp)
a0000f04:	ea0792e3          	bnez	a5,a0000da8 <bench_fib_run+0x11c>
a0000f08:	05812083          	lw	ra,88(sp)
a0000f0c:	05412403          	lw	s0,84(sp)
a0000f10:	05012483          	lw	s1,80(sp)
a0000f14:	05c10113          	addi	sp,sp,92
a0000f18:	00008067          	ret
a0000f1c:	04012603          	lw	a2,64(sp)
a0000f20:	00000713          	li	a4,0
a0000f24:	00000513          	li	a0,0
a0000f28:	fc7056e3          	blez	t2,a0000ef4 <bench_fib_run+0x268>
a0000f2c:	04d12623          	sw	a3,76(sp)
a0000f30:	02c12683          	lw	a3,44(sp)
a0000f34:	00271793          	slli	a5,a4,0x2
a0000f38:	02812303          	lw	t1,40(sp)
a0000f3c:	00f685b3          	add	a1,a3,a5
a0000f40:	03012683          	lw	a3,48(sp)
a0000f44:	00000093          	li	ra,0
a0000f48:	02a12023          	sw	a0,32(sp)
a0000f4c:	00f687b3          	add	a5,a3,a5
a0000f50:	00f12c23          	sw	a5,24(sp)
a0000f54:	00712e23          	sw	t2,28(sp)
a0000f58:	00058793          	mv	a5,a1
a0000f5c:	02e12223          	sw	a4,36(sp)
a0000f60:	00c12623          	sw	a2,12(sp)
a0000f64:	00512423          	sw	t0,8(sp)
a0000f68:	01812483          	lw	s1,24(sp)
a0000f6c:	00000413          	li	s0,0
a0000f70:	0007a023          	sw	zero,0(a5)
a0000f74:	00048713          	mv	a4,s1
a0000f78:	00030693          	mv	a3,t1
a0000f7c:	00040493          	mv	s1,s0
a0000f80:	00112823          	sw	ra,16(sp)
a0000f84:	00f12223          	sw	a5,4(sp)
a0000f88:	00612a23          	sw	t1,20(sp)
a0000f8c:	00070413          	mv	s0,a4
a0000f90:	0006a583          	lw	a1,0(a3)
a0000f94:	00042503          	lw	a0,0(s0)
a0000f98:	00d12023          	sw	a3,0(sp)
a0000f9c:	00440413          	addi	s0,s0,4
a0000fa0:	38d040ef          	jal	a0005b2c <__mulsi3>
a0000fa4:	00412783          	lw	a5,4(sp)
a0000fa8:	00a484b3          	add	s1,s1,a0
a0000fac:	00012683          	lw	a3,0(sp)
a0000fb0:	0097a023          	sw	s1,0(a5)
a0000fb4:	00812783          	lw	a5,8(sp)
a0000fb8:	00f686b3          	add	a3,a3,a5
a0000fbc:	00c12783          	lw	a5,12(sp)
a0000fc0:	fcf418e3          	bne	s0,a5,a0000f90 <bench_fib_run+0x304>
a0000fc4:	01012083          	lw	ra,16(sp)
a0000fc8:	00412783          	lw	a5,4(sp)
a0000fcc:	01412303          	lw	t1,20(sp)
a0000fd0:	01c12703          	lw	a4,28(sp)
a0000fd4:	00108093          	addi	ra,ra,1
a0000fd8:	00478793          	addi	a5,a5,4
a0000fdc:	00430313          	addi	t1,t1,4
a0000fe0:	f8e094e3          	bne	ra,a4,a0000f68 <bench_fib_run+0x2dc>
a0000fe4:	02012503          	lw	a0,32(sp)
a0000fe8:	00070393          	mv	t2,a4
a0000fec:	00812283          	lw	t0,8(sp)
a0000ff0:	02412703          	lw	a4,36(sp)
a0000ff4:	00150513          	addi	a0,a0,1
a0000ff8:	00540633          	add	a2,s0,t0
a0000ffc:	00770733          	add	a4,a4,t2
a0001000:	f27518e3          	bne	a0,t2,a0000f30 <bench_fib_run+0x2a4>
a0001004:	04c12683          	lw	a3,76(sp)
a0001008:	03812583          	lw	a1,56(sp)
a000100c:	03012083          	lw	ra,48(sp)
a0001010:	04812403          	lw	s0,72(sp)
a0001014:	00000313          	li	t1,0
a0001018:	00000513          	li	a0,0
a000101c:	40558633          	sub	a2,a1,t0
a0001020:	00231713          	slli	a4,t1,0x2
a0001024:	00e08733          	add	a4,ra,a4
a0001028:	00060793          	mv	a5,a2
a000102c:	0007a483          	lw	s1,0(a5)
a0001030:	00478793          	addi	a5,a5,4
a0001034:	00470713          	addi	a4,a4,4
a0001038:	fe972e23          	sw	s1,-4(a4)
a000103c:	feb798e3          	bne	a5,a1,a000102c <bench_fib_run+0x3a0>
a0001040:	00150513          	addi	a0,a0,1
a0001044:	00730333          	add	t1,t1,t2
a0001048:	408605b3          	sub	a1,a2,s0
a000104c:	fc7518e3          	bne	a0,t2,a000101c <bench_fib_run+0x390>
a0001050:	d65ff06f          	j	a0000db4 <bench_fib_run+0x128>

a0001054 <bench_fib_validate>:
a0001054:	ff410113          	addi	sp,sp,-12
a0001058:	00fff517          	auipc	a0,0xfff
a000105c:	65052503          	lw	a0,1616(a0) # a10006a8 <M>
a0001060:	00812223          	sw	s0,4(sp)
a0001064:	fff50413          	addi	s0,a0,-1
a0001068:	00040593          	mv	a1,s0
a000106c:	00112423          	sw	ra,8(sp)
a0001070:	2bd040ef          	jal	a0005b2c <__mulsi3>
a0001074:	00850533          	add	a0,a0,s0
a0001078:	00251513          	slli	a0,a0,0x2
a000107c:	00fff797          	auipc	a5,0xfff
a0001080:	6247a783          	lw	a5,1572(a5) # a10006a0 <ans>
a0001084:	00a787b3          	add	a5,a5,a0
a0001088:	0007a503          	lw	a0,0(a5)
a000108c:	00fff797          	auipc	a5,0xfff
a0001090:	6407a783          	lw	a5,1600(a5) # a10006cc <setting>
a0001094:	00c7a783          	lw	a5,12(a5)
a0001098:	00812083          	lw	ra,8(sp)
a000109c:	00412403          	lw	s0,4(sp)
a00010a0:	40f50533          	sub	a0,a0,a5
a00010a4:	00153513          	seqz	a0,a0
a00010a8:	00c10113          	addi	sp,sp,12
a00010ac:	00008067          	ret

a00010b0 <myqsort>:
a00010b0:	00060693          	mv	a3,a2
a00010b4:	0cc5d663          	bge	a1,a2,a0001180 <myqsort+0xd0>
a00010b8:	fec10113          	addi	sp,sp,-20
a00010bc:	00112823          	sw	ra,16(sp)
a00010c0:	00812623          	sw	s0,12(sp)
a00010c4:	00912423          	sw	s1,8(sp)
a00010c8:	00269493          	slli	s1,a3,0x2
a00010cc:	009504b3          	add	s1,a0,s1
a00010d0:	00259793          	slli	a5,a1,0x2
a00010d4:	00f50333          	add	t1,a0,a5
a00010d8:	00158713          	addi	a4,a1,1
a00010dc:	00032603          	lw	a2,0(t1)
a00010e0:	08d75263          	bge	a4,a3,a0001164 <myqsort+0xb4>
a00010e4:	00478793          	addi	a5,a5,4
a00010e8:	00f507b3          	add	a5,a0,a5
a00010ec:	00058413          	mv	s0,a1
a00010f0:	0007a283          	lw	t0,0(a5)
a00010f4:	00c2de63          	bge	t0,a2,a0001110 <myqsort+0x60>
a00010f8:	00140413          	addi	s0,s0,1
a00010fc:	00241713          	slli	a4,s0,0x2
a0001100:	00e50733          	add	a4,a0,a4
a0001104:	00072383          	lw	t2,0(a4)
a0001108:	00572023          	sw	t0,0(a4)
a000110c:	0077a023          	sw	t2,0(a5)
a0001110:	00478793          	addi	a5,a5,4
a0001114:	fcf49ee3          	bne	s1,a5,a00010f0 <myqsort+0x40>
a0001118:	00241793          	slli	a5,s0,0x2
a000111c:	00032603          	lw	a2,0(t1)
a0001120:	00f507b3          	add	a5,a0,a5
a0001124:	0007a703          	lw	a4,0(a5)
a0001128:	00c7a023          	sw	a2,0(a5)
a000112c:	00040613          	mv	a2,s0
a0001130:	00e32023          	sw	a4,0(t1)
a0001134:	00d12223          	sw	a3,4(sp)
a0001138:	00a12023          	sw	a0,0(sp)
a000113c:	f75ff0ef          	jal	a00010b0 <myqsort>
a0001140:	00412683          	lw	a3,4(sp)
a0001144:	00140593          	addi	a1,s0,1
a0001148:	00012503          	lw	a0,0(sp)
a000114c:	f8d5c2e3          	blt	a1,a3,a00010d0 <myqsort+0x20>
a0001150:	01012083          	lw	ra,16(sp)
a0001154:	00c12403          	lw	s0,12(sp)
a0001158:	00812483          	lw	s1,8(sp)
a000115c:	01410113          	addi	sp,sp,20
a0001160:	00008067          	ret
a0001164:	00058693          	mv	a3,a1
a0001168:	f6b5c0e3          	blt	a1,a1,a00010c8 <myqsort+0x18>
a000116c:	01012083          	lw	ra,16(sp)
a0001170:	00c12403          	lw	s0,12(sp)
a0001174:	00812483          	lw	s1,8(sp)
a0001178:	01410113          	addi	sp,sp,20
a000117c:	00008067          	ret
a0001180:	00008067          	ret

a0001184 <bench_qsort_prepare>:
a0001184:	ff410113          	addi	sp,sp,-12
a0001188:	00100513          	li	a0,1
a000118c:	00112423          	sw	ra,8(sp)
a0001190:	118010ef          	jal	a00022a8 <bench_srand>
a0001194:	00fff797          	auipc	a5,0xfff
a0001198:	5387a783          	lw	a5,1336(a5) # a10006cc <setting>
a000119c:	0007a783          	lw	a5,0(a5)
a00011a0:	00fff697          	auipc	a3,0xfff
a00011a4:	51068693          	addi	a3,a3,1296 # a10006b0 <N>
a00011a8:	00279513          	slli	a0,a5,0x2
a00011ac:	00f6a023          	sw	a5,0(a3)
a00011b0:	050010ef          	jal	a0002200 <bench_alloc>
a00011b4:	00fff697          	auipc	a3,0xfff
a00011b8:	4fc68693          	addi	a3,a3,1276 # a10006b0 <N>
a00011bc:	0006a783          	lw	a5,0(a3)
a00011c0:	00fff617          	auipc	a2,0xfff
a00011c4:	4ec60613          	addi	a2,a2,1260 # a10006ac <data>
a00011c8:	00a62023          	sw	a0,0(a2)
a00011cc:	04f05c63          	blez	a5,a0001224 <bench_qsort_prepare+0xa0>
a00011d0:	00912023          	sw	s1,0(sp)
a00011d4:	00812223          	sw	s0,4(sp)
a00011d8:	00000493          	li	s1,0
a00011dc:	0e0010ef          	jal	a00022bc <bench_rand>
a00011e0:	00050413          	mv	s0,a0
a00011e4:	0d8010ef          	jal	a00022bc <bench_rand>
a00011e8:	00fff617          	auipc	a2,0xfff
a00011ec:	4c460613          	addi	a2,a2,1220 # a10006ac <data>
a00011f0:	00062783          	lw	a5,0(a2)
a00011f4:	00fff697          	auipc	a3,0xfff
a00011f8:	4bc68693          	addi	a3,a3,1212 # a10006b0 <N>
a00011fc:	00249593          	slli	a1,s1,0x2
a0001200:	01041413          	slli	s0,s0,0x10
a0001204:	0006a703          	lw	a4,0(a3)
a0001208:	00b787b3          	add	a5,a5,a1
a000120c:	00a46433          	or	s0,s0,a0
a0001210:	0087a023          	sw	s0,0(a5)
a0001214:	00148493          	addi	s1,s1,1
a0001218:	fce4c2e3          	blt	s1,a4,a00011dc <bench_qsort_prepare+0x58>
a000121c:	00412403          	lw	s0,4(sp)
a0001220:	00012483          	lw	s1,0(sp)
a0001224:	00812083          	lw	ra,8(sp)
a0001228:	00c10113          	addi	sp,sp,12
a000122c:	00008067          	ret

a0001230 <bench_qsort_run>:
a0001230:	00fff617          	auipc	a2,0xfff
a0001234:	48062603          	lw	a2,1152(a2) # a10006b0 <N>
a0001238:	00000593          	li	a1,0
a000123c:	00fff517          	auipc	a0,0xfff
a0001240:	47052503          	lw	a0,1136(a0) # a10006ac <data>
a0001244:	e6dff06f          	j	a00010b0 <myqsort>

a0001248 <bench_qsort_validate>:
a0001248:	00fff597          	auipc	a1,0xfff
a000124c:	4685a583          	lw	a1,1128(a1) # a10006b0 <N>
a0001250:	00fff517          	auipc	a0,0xfff
a0001254:	45c52503          	lw	a0,1116(a0) # a10006ac <data>
a0001258:	00259593          	slli	a1,a1,0x2
a000125c:	ff410113          	addi	sp,sp,-12
a0001260:	00b505b3          	add	a1,a0,a1
a0001264:	00112423          	sw	ra,8(sp)
a0001268:	0a4010ef          	jal	a000230c <checksum>
a000126c:	00fff797          	auipc	a5,0xfff
a0001270:	4607a783          	lw	a5,1120(a5) # a10006cc <setting>
a0001274:	00c7a783          	lw	a5,12(a5)
a0001278:	00812083          	lw	ra,8(sp)
a000127c:	40a78533          	sub	a0,a5,a0
a0001280:	00153513          	seqz	a0,a0
a0001284:	00c10113          	addi	sp,sp,12
a0001288:	00008067          	ret

a000128c <_ZL9radixPassPiS_S_ii>:
a000128c:	00170793          	addi	a5,a4,1
a0001290:	00279793          	slli	a5,a5,0x2
a0001294:	fe410113          	addi	sp,sp,-28
a0001298:	00050313          	mv	t1,a0
a000129c:	00078513          	mv	a0,a5
a00012a0:	00812a23          	sw	s0,20(sp)
a00012a4:	00912823          	sw	s1,16(sp)
a00012a8:	00e12423          	sw	a4,8(sp)
a00012ac:	00612223          	sw	t1,4(sp)
a00012b0:	00060413          	mv	s0,a2
a00012b4:	00d12023          	sw	a3,0(sp)
a00012b8:	00112c23          	sw	ra,24(sp)
a00012bc:	00f12623          	sw	a5,12(sp)
a00012c0:	00058493          	mv	s1,a1
a00012c4:	73d000ef          	jal	a0002200 <bench_alloc>
a00012c8:	00812703          	lw	a4,8(sp)
a00012cc:	00012683          	lw	a3,0(sp)
a00012d0:	00412303          	lw	t1,4(sp)
a00012d4:	00050613          	mv	a2,a0
a00012d8:	0c074c63          	bltz	a4,a00013b0 <_ZL9radixPassPiS_S_ii+0x124>
a00012dc:	00c12783          	lw	a5,12(sp)
a00012e0:	00050593          	mv	a1,a0
a00012e4:	00a787b3          	add	a5,a5,a0
a00012e8:	0005a023          	sw	zero,0(a1)
a00012ec:	00458593          	addi	a1,a1,4
a00012f0:	feb79ce3          	bne	a5,a1,a00012e8 <_ZL9radixPassPiS_S_ii+0x5c>
a00012f4:	04d05063          	blez	a3,a0001334 <_ZL9radixPassPiS_S_ii+0xa8>
a00012f8:	00030513          	mv	a0,t1
a00012fc:	00000593          	li	a1,0
a0001300:	00052783          	lw	a5,0(a0)
a0001304:	00158593          	addi	a1,a1,1
a0001308:	00450513          	addi	a0,a0,4
a000130c:	00279793          	slli	a5,a5,0x2
a0001310:	00f407b3          	add	a5,s0,a5
a0001314:	0007a783          	lw	a5,0(a5)
a0001318:	00279793          	slli	a5,a5,0x2
a000131c:	00f607b3          	add	a5,a2,a5
a0001320:	0007a283          	lw	t0,0(a5)
a0001324:	00128293          	addi	t0,t0,1
a0001328:	0057a023          	sw	t0,0(a5)
a000132c:	fcd5cae3          	blt	a1,a3,a0001300 <_ZL9radixPassPiS_S_ii+0x74>
a0001330:	02074663          	bltz	a4,a000135c <_ZL9radixPassPiS_S_ii+0xd0>
a0001334:	00060793          	mv	a5,a2
a0001338:	00000513          	li	a0,0
a000133c:	00000593          	li	a1,0
a0001340:	0007a283          	lw	t0,0(a5)
a0001344:	00158593          	addi	a1,a1,1
a0001348:	00a7a023          	sw	a0,0(a5)
a000134c:	00550533          	add	a0,a0,t0
a0001350:	00478793          	addi	a5,a5,4
a0001354:	feb756e3          	bge	a4,a1,a0001340 <_ZL9radixPassPiS_S_ii+0xb4>
a0001358:	04d05263          	blez	a3,a000139c <_ZL9radixPassPiS_S_ii+0x110>
a000135c:	00269693          	slli	a3,a3,0x2
a0001360:	00d306b3          	add	a3,t1,a3
a0001364:	00032283          	lw	t0,0(t1)
a0001368:	00430313          	addi	t1,t1,4
a000136c:	00229793          	slli	a5,t0,0x2
a0001370:	00f407b3          	add	a5,s0,a5
a0001374:	0007a703          	lw	a4,0(a5)
a0001378:	00271713          	slli	a4,a4,0x2
a000137c:	00e60733          	add	a4,a2,a4
a0001380:	00072783          	lw	a5,0(a4)
a0001384:	00178593          	addi	a1,a5,1
a0001388:	00279793          	slli	a5,a5,0x2
a000138c:	00b72023          	sw	a1,0(a4)
a0001390:	00f487b3          	add	a5,s1,a5
a0001394:	0057a023          	sw	t0,0(a5)
a0001398:	fc6696e3          	bne	a3,t1,a0001364 <_ZL9radixPassPiS_S_ii+0xd8>
a000139c:	01812083          	lw	ra,24(sp)
a00013a0:	01412403          	lw	s0,20(sp)
a00013a4:	01012483          	lw	s1,16(sp)
a00013a8:	01c10113          	addi	sp,sp,28
a00013ac:	00008067          	ret
a00013b0:	f4d044e3          	bgtz	a3,a00012f8 <_ZL9radixPassPiS_S_ii+0x6c>
a00013b4:	fe9ff06f          	j	a000139c <_ZL9radixPassPiS_S_ii+0x110>

a00013b8 <_Z11suffixArrayPiS_ii>:
a00013b8:	fac10113          	addi	sp,sp,-84
a00013bc:	00050713          	mv	a4,a0
a00013c0:	00058793          	mv	a5,a1
a00013c4:	00260513          	addi	a0,a2,2
a00013c8:	00300593          	li	a1,3
a00013cc:	04112823          	sw	ra,80(sp)
a00013d0:	02d12c23          	sw	a3,56(sp)
a00013d4:	00e12223          	sw	a4,4(sp)
a00013d8:	04812623          	sw	s0,76(sp)
a00013dc:	04912423          	sw	s1,72(sp)
a00013e0:	00060413          	mv	s0,a2
a00013e4:	02f12a23          	sw	a5,52(sp)
a00013e8:	690040ef          	jal	a0005a78 <__divsi3>
a00013ec:	00300593          	li	a1,3
a00013f0:	00050793          	mv	a5,a0
a00013f4:	00040513          	mv	a0,s0
a00013f8:	00078493          	mv	s1,a5
a00013fc:	02812423          	sw	s0,40(sp)
a0001400:	678040ef          	jal	a0005a78 <__divsi3>
a0001404:	00912e23          	sw	s1,28(sp)
a0001408:	009504b3          	add	s1,a0,s1
a000140c:	00348713          	addi	a4,s1,3
a0001410:	00271713          	slli	a4,a4,0x2
a0001414:	00070513          	mv	a0,a4
a0001418:	00248413          	addi	s0,s1,2
a000141c:	00241413          	slli	s0,s0,0x2
a0001420:	02912823          	sw	s1,48(sp)
a0001424:	00e12623          	sw	a4,12(sp)
a0001428:	5d9000ef          	jal	a0002200 <bench_alloc>
a000142c:	ffc40793          	addi	a5,s0,-4
a0001430:	008506b3          	add	a3,a0,s0
a0001434:	00c12703          	lw	a4,12(sp)
a0001438:	0006a023          	sw	zero,0(a3)
a000143c:	ff840493          	addi	s1,s0,-8
a0001440:	00f506b3          	add	a3,a0,a5
a0001444:	0006a023          	sw	zero,0(a3)
a0001448:	009506b3          	add	a3,a0,s1
a000144c:	0006a023          	sw	zero,0(a3)
a0001450:	00a12023          	sw	a0,0(sp)
a0001454:	00070513          	mv	a0,a4
a0001458:	00f12423          	sw	a5,8(sp)
a000145c:	5a5000ef          	jal	a0002200 <bench_alloc>
a0001460:	00812783          	lw	a5,8(sp)
a0001464:	00850433          	add	s0,a0,s0
a0001468:	00042023          	sw	zero,0(s0)
a000146c:	00f507b3          	add	a5,a0,a5
a0001470:	0007a023          	sw	zero,0(a5)
a0001474:	01c12783          	lw	a5,28(sp)
a0001478:	009504b3          	add	s1,a0,s1
a000147c:	02a12223          	sw	a0,36(sp)
a0001480:	00279713          	slli	a4,a5,0x2
a0001484:	00070513          	mv	a0,a4
a0001488:	0004a023          	sw	zero,0(s1)
a000148c:	04e12223          	sw	a4,68(sp)
a0001490:	00070493          	mv	s1,a4
a0001494:	56d000ef          	jal	a0002200 <bench_alloc>
a0001498:	00050793          	mv	a5,a0
a000149c:	00048513          	mv	a0,s1
a00014a0:	00f12623          	sw	a5,12(sp)
a00014a4:	55d000ef          	jal	a0002200 <bench_alloc>
a00014a8:	02812403          	lw	s0,40(sp)
a00014ac:	00050713          	mv	a4,a0
a00014b0:	00300593          	li	a1,3
a00014b4:	00140513          	addi	a0,s0,1
a00014b8:	02e12623          	sw	a4,44(sp)
a00014bc:	5bc040ef          	jal	a0005a78 <__divsi3>
a00014c0:	01c12783          	lw	a5,28(sp)
a00014c4:	40a787b3          	sub	a5,a5,a0
a00014c8:	00f12423          	sw	a5,8(sp)
a00014cc:	00f406b3          	add	a3,s0,a5
a00014d0:	00c12783          	lw	a5,12(sp)
a00014d4:	04d05a63          	blez	a3,a0001528 <_Z11suffixArrayPiS_ii+0x170>
a00014d8:	00000413          	li	s0,0
a00014dc:	00000493          	li	s1,0
a00014e0:	00f12823          	sw	a5,16(sp)
a00014e4:	00040793          	mv	a5,s0
a00014e8:	00d12623          	sw	a3,12(sp)
a00014ec:	00048413          	mv	s0,s1
a00014f0:	00078493          	mv	s1,a5
a00014f4:	00300593          	li	a1,3
a00014f8:	00048513          	mv	a0,s1
a00014fc:	600040ef          	jal	a0005afc <__modsi3>
a0001500:	00012783          	lw	a5,0(sp)
a0001504:	00241713          	slli	a4,s0,0x2
a0001508:	00e78733          	add	a4,a5,a4
a000150c:	00050663          	beqz	a0,a0001518 <_Z11suffixArrayPiS_ii+0x160>
a0001510:	00972023          	sw	s1,0(a4)
a0001514:	00140413          	addi	s0,s0,1
a0001518:	00c12783          	lw	a5,12(sp)
a000151c:	00148493          	addi	s1,s1,1
a0001520:	fcf49ae3          	bne	s1,a5,a00014f4 <_Z11suffixArrayPiS_ii+0x13c>
a0001524:	01012783          	lw	a5,16(sp)
a0001528:	03012483          	lw	s1,48(sp)
a000152c:	00412403          	lw	s0,4(sp)
a0001530:	03812703          	lw	a4,56(sp)
a0001534:	02412583          	lw	a1,36(sp)
a0001538:	00012503          	lw	a0,0(sp)
a000153c:	00048693          	mv	a3,s1
a0001540:	00840613          	addi	a2,s0,8
a0001544:	00f12623          	sw	a5,12(sp)
a0001548:	d45ff0ef          	jal	a000128c <_ZL9radixPassPiS_S_ii>
a000154c:	03812703          	lw	a4,56(sp)
a0001550:	00012583          	lw	a1,0(sp)
a0001554:	02412503          	lw	a0,36(sp)
a0001558:	00048693          	mv	a3,s1
a000155c:	00440613          	addi	a2,s0,4
a0001560:	d2dff0ef          	jal	a000128c <_ZL9radixPassPiS_S_ii>
a0001564:	03812703          	lw	a4,56(sp)
a0001568:	02412583          	lw	a1,36(sp)
a000156c:	00012503          	lw	a0,0(sp)
a0001570:	00048693          	mv	a3,s1
a0001574:	00040613          	mv	a2,s0
a0001578:	d15ff0ef          	jal	a000128c <_ZL9radixPassPiS_S_ii>
a000157c:	00c12783          	lw	a5,12(sp)
a0001580:	14905663          	blez	s1,a00016cc <_Z11suffixArrayPiS_ii+0x314>
a0001584:	03012703          	lw	a4,48(sp)
a0001588:	02412403          	lw	s0,36(sp)
a000158c:	fff00593          	li	a1,-1
a0001590:	00271713          	slli	a4,a4,0x2
a0001594:	00870333          	add	t1,a4,s0
a0001598:	02612023          	sw	t1,32(sp)
a000159c:	fff00613          	li	a2,-1
a00015a0:	fff00713          	li	a4,-1
a00015a4:	00000693          	li	a3,0
a00015a8:	02812e23          	sw	s0,60(sp)
a00015ac:	04f12023          	sw	a5,64(sp)
a00015b0:	00058313          	mv	t1,a1
a00015b4:	00042483          	lw	s1,0(s0)
a00015b8:	00070293          	mv	t0,a4
a00015bc:	00412703          	lw	a4,4(sp)
a00015c0:	00249793          	slli	a5,s1,0x2
a00015c4:	00060393          	mv	t2,a2
a00015c8:	00f707b3          	add	a5,a4,a5
a00015cc:	0007a703          	lw	a4,0(a5)
a00015d0:	00030093          	mv	ra,t1
a00015d4:	0047a603          	lw	a2,4(a5)
a00015d8:	0087a303          	lw	t1,8(a5)
a00015dc:	00300593          	li	a1,3
a00015e0:	00048513          	mv	a0,s1
a00015e4:	2a570c63          	beq	a4,t0,a000189c <_Z11suffixArrayPiS_ii+0x4e4>
a00015e8:	00168693          	addi	a3,a3,1
a00015ec:	00612c23          	sw	t1,24(sp)
a00015f0:	00c12a23          	sw	a2,20(sp)
a00015f4:	00d12823          	sw	a3,16(sp)
a00015f8:	00e12623          	sw	a4,12(sp)
a00015fc:	47c040ef          	jal	a0005a78 <__divsi3>
a0001600:	00050793          	mv	a5,a0
a0001604:	00300593          	li	a1,3
a0001608:	00048513          	mv	a0,s1
a000160c:	00078493          	mv	s1,a5
a0001610:	4ec040ef          	jal	a0005afc <__modsi3>
a0001614:	01c12783          	lw	a5,28(sp)
a0001618:	00012703          	lw	a4,0(sp)
a000161c:	00100593          	li	a1,1
a0001620:	009787b3          	add	a5,a5,s1
a0001624:	00279793          	slli	a5,a5,0x2
a0001628:	00f707b3          	add	a5,a4,a5
a000162c:	01012683          	lw	a3,16(sp)
a0001630:	00c12703          	lw	a4,12(sp)
a0001634:	01412603          	lw	a2,20(sp)
a0001638:	01812303          	lw	t1,24(sp)
a000163c:	26b50663          	beq	a0,a1,a00018a8 <_Z11suffixArrayPiS_ii+0x4f0>
a0001640:	00d7a023          	sw	a3,0(a5)
a0001644:	02012783          	lw	a5,32(sp)
a0001648:	00440413          	addi	s0,s0,4
a000164c:	f6f414e3          	bne	s0,a5,a00015b4 <_Z11suffixArrayPiS_ii+0x1fc>
a0001650:	03012703          	lw	a4,48(sp)
a0001654:	40000537          	lui	a0,0x40000
a0001658:	03c12483          	lw	s1,60(sp)
a000165c:	04012783          	lw	a5,64(sp)
a0001660:	02012303          	lw	t1,32(sp)
a0001664:	00012583          	lw	a1,0(sp)
a0001668:	00000613          	li	a2,0
a000166c:	fff50513          	addi	a0,a0,-1 # 3fffffff <data_load_start+0xfff803b>
a0001670:	2ee6ca63          	blt	a3,a4,a0001964 <_Z11suffixArrayPiS_ii+0x5ac>
a0001674:	03012683          	lw	a3,48(sp)
a0001678:	02412283          	lw	t0,36(sp)
a000167c:	0005a703          	lw	a4,0(a1)
a0001680:	00458593          	addi	a1,a1,4
a0001684:	00a70733          	add	a4,a4,a0
a0001688:	00271713          	slli	a4,a4,0x2
a000168c:	00e28733          	add	a4,t0,a4
a0001690:	00c72023          	sw	a2,0(a4)
a0001694:	00160613          	addi	a2,a2,1
a0001698:	fec692e3          	bne	a3,a2,a000167c <_Z11suffixArrayPiS_ii+0x2c4>
a000169c:	01c12503          	lw	a0,28(sp)
a00016a0:	00000593          	li	a1,0
a00016a4:	0004a683          	lw	a3,0(s1)
a00016a8:	00259713          	slli	a4,a1,0x2
a00016ac:	00448493          	addi	s1,s1,4
a00016b0:	00169613          	slli	a2,a3,0x1
a00016b4:	00e78733          	add	a4,a5,a4
a00016b8:	00d60633          	add	a2,a2,a3
a00016bc:	00a6d663          	bge	a3,a0,a00016c8 <_Z11suffixArrayPiS_ii+0x310>
a00016c0:	00c72023          	sw	a2,0(a4)
a00016c4:	00158593          	addi	a1,a1,1
a00016c8:	fc649ee3          	bne	s1,t1,a00016a4 <_Z11suffixArrayPiS_ii+0x2ec>
a00016cc:	03812703          	lw	a4,56(sp)
a00016d0:	01c12683          	lw	a3,28(sp)
a00016d4:	00412603          	lw	a2,4(sp)
a00016d8:	02c12583          	lw	a1,44(sp)
a00016dc:	00078513          	mv	a0,a5
a00016e0:	badff0ef          	jal	a000128c <_ZL9radixPassPiS_S_ii>
a00016e4:	02812783          	lw	a5,40(sp)
a00016e8:	00000713          	li	a4,0
a00016ec:	00000293          	li	t0,0
a00016f0:	18f05c63          	blez	a5,a0001888 <_Z11suffixArrayPiS_ii+0x4d0>
a00016f4:	00512623          	sw	t0,12(sp)
a00016f8:	01c12283          	lw	t0,28(sp)
a00016fc:	0540006f          	j	a0001750 <_Z11suffixArrayPiS_ii+0x398>
a0001700:	00179693          	slli	a3,a5,0x1
a0001704:	00f686b3          	add	a3,a3,a5
a0001708:	00168693          	addi	a3,a3,1
a000170c:	00269613          	slli	a2,a3,0x2
a0001710:	00c40633          	add	a2,s0,a2
a0001714:	00062603          	lw	a2,0(a2)
a0001718:	0e964a63          	blt	a2,s1,a000180c <_Z11suffixArrayPiS_ii+0x454>
a000171c:	005787b3          	add	a5,a5,t0
a0001720:	1a960463          	beq	a2,s1,a00018c8 <_Z11suffixArrayPiS_ii+0x510>
a0001724:	03412783          	lw	a5,52(sp)
a0001728:	00271613          	slli	a2,a4,0x2
a000172c:	00c787b3          	add	a5,a5,a2
a0001730:	0067a023          	sw	t1,0(a5)
a0001734:	00c12783          	lw	a5,12(sp)
a0001738:	00178793          	addi	a5,a5,1
a000173c:	00f12623          	sw	a5,12(sp)
a0001740:	1af28663          	beq	t0,a5,a00018ec <_Z11suffixArrayPiS_ii+0x534>
a0001744:	02812783          	lw	a5,40(sp)
a0001748:	00170713          	addi	a4,a4,1
a000174c:	12f75e63          	bge	a4,a5,a0001888 <_Z11suffixArrayPiS_ii+0x4d0>
a0001750:	00c12783          	lw	a5,12(sp)
a0001754:	00300593          	li	a1,3
a0001758:	02e12023          	sw	a4,32(sp)
a000175c:	00279413          	slli	s0,a5,0x2
a0001760:	02c12783          	lw	a5,44(sp)
a0001764:	00512e23          	sw	t0,28(sp)
a0001768:	008787b3          	add	a5,a5,s0
a000176c:	0007a303          	lw	t1,0(a5)
a0001770:	02f12c23          	sw	a5,56(sp)
a0001774:	00812783          	lw	a5,8(sp)
a0001778:	00412403          	lw	s0,4(sp)
a000177c:	00231613          	slli	a2,t1,0x2
a0001780:	00279493          	slli	s1,a5,0x2
a0001784:	02412783          	lw	a5,36(sp)
a0001788:	00c40633          	add	a2,s0,a2
a000178c:	00030513          	mv	a0,t1
a0001790:	009787b3          	add	a5,a5,s1
a0001794:	02f12e23          	sw	a5,60(sp)
a0001798:	0007a783          	lw	a5,0(a5)
a000179c:	00062483          	lw	s1,0(a2)
a00017a0:	00612c23          	sw	t1,24(sp)
a00017a4:	00f12a23          	sw	a5,20(sp)
a00017a8:	00c12823          	sw	a2,16(sp)
a00017ac:	2cc040ef          	jal	a0005a78 <__divsi3>
a00017b0:	01412783          	lw	a5,20(sp)
a00017b4:	01c12283          	lw	t0,28(sp)
a00017b8:	01012603          	lw	a2,16(sp)
a00017bc:	01812303          	lw	t1,24(sp)
a00017c0:	02012703          	lw	a4,32(sp)
a00017c4:	f257cee3          	blt	a5,t0,a0001700 <_Z11suffixArrayPiS_ii+0x348>
a00017c8:	405787b3          	sub	a5,a5,t0
a00017cc:	00179593          	slli	a1,a5,0x1
a00017d0:	00412403          	lw	s0,4(sp)
a00017d4:	00f585b3          	add	a1,a1,a5
a00017d8:	00258693          	addi	a3,a1,2
a00017dc:	00269393          	slli	t2,a3,0x2
a00017e0:	007403b3          	add	t2,s0,t2
a00017e4:	0003a383          	lw	t2,0(t2)
a00017e8:	0293c263          	blt	t2,s1,a000180c <_Z11suffixArrayPiS_ii+0x454>
a00017ec:	f2939ce3          	bne	t2,s1,a0001724 <_Z11suffixArrayPiS_ii+0x36c>
a00017f0:	00412383          	lw	t2,4(sp)
a00017f4:	00358593          	addi	a1,a1,3
a00017f8:	00259593          	slli	a1,a1,0x2
a00017fc:	00b385b3          	add	a1,t2,a1
a0001800:	0005a583          	lw	a1,0(a1)
a0001804:	00462603          	lw	a2,4(a2)
a0001808:	0ac5da63          	bge	a1,a2,a00018bc <_Z11suffixArrayPiS_ii+0x504>
a000180c:	03412603          	lw	a2,52(sp)
a0001810:	00271793          	slli	a5,a4,0x2
a0001814:	00f60633          	add	a2,a2,a5
a0001818:	00d62023          	sw	a3,0(a2)
a000181c:	00812683          	lw	a3,8(sp)
a0001820:	03012603          	lw	a2,48(sp)
a0001824:	00168693          	addi	a3,a3,1
a0001828:	00d12423          	sw	a3,8(sp)
a000182c:	f0d61ce3          	bne	a2,a3,a0001744 <_Z11suffixArrayPiS_ii+0x38c>
a0001830:	00c12683          	lw	a3,12(sp)
a0001834:	00170713          	addi	a4,a4,1
a0001838:	f056d6e3          	bge	a3,t0,a0001744 <_Z11suffixArrayPiS_ii+0x38c>
a000183c:	03412683          	lw	a3,52(sp)
a0001840:	00478793          	addi	a5,a5,4
a0001844:	04412603          	lw	a2,68(sp)
a0001848:	00f687b3          	add	a5,a3,a5
a000184c:	02c12683          	lw	a3,44(sp)
a0001850:	03812403          	lw	s0,56(sp)
a0001854:	00c68633          	add	a2,a3,a2
a0001858:	00042683          	lw	a3,0(s0)
a000185c:	00440413          	addi	s0,s0,4
a0001860:	00478793          	addi	a5,a5,4
a0001864:	fed7ae23          	sw	a3,-4(a5)
a0001868:	fec418e3          	bne	s0,a2,a0001858 <_Z11suffixArrayPiS_ii+0x4a0>
a000186c:	00c12783          	lw	a5,12(sp)
a0001870:	00512623          	sw	t0,12(sp)
a0001874:	40f70733          	sub	a4,a4,a5
a0001878:	02812783          	lw	a5,40(sp)
a000187c:	00570733          	add	a4,a4,t0
a0001880:	00170713          	addi	a4,a4,1
a0001884:	ecf746e3          	blt	a4,a5,a0001750 <_Z11suffixArrayPiS_ii+0x398>
a0001888:	05012083          	lw	ra,80(sp)
a000188c:	04c12403          	lw	s0,76(sp)
a0001890:	04812483          	lw	s1,72(sp)
a0001894:	05410113          	addi	sp,sp,84
a0001898:	00008067          	ret
a000189c:	d4c396e3          	bne	t2,a2,a00015e8 <_Z11suffixArrayPiS_ii+0x230>
a00018a0:	d46094e3          	bne	ra,t1,a00015e8 <_Z11suffixArrayPiS_ii+0x230>
a00018a4:	d49ff06f          	j	a00015ec <_Z11suffixArrayPiS_ii+0x234>
a00018a8:	00012783          	lw	a5,0(sp)
a00018ac:	00249493          	slli	s1,s1,0x2
a00018b0:	009784b3          	add	s1,a5,s1
a00018b4:	00d4a023          	sw	a3,0(s1)
a00018b8:	d8dff06f          	j	a0001644 <_Z11suffixArrayPiS_ii+0x28c>
a00018bc:	e6c594e3          	bne	a1,a2,a0001724 <_Z11suffixArrayPiS_ii+0x36c>
a00018c0:	00178793          	addi	a5,a5,1
a00018c4:	00a28533          	add	a0,t0,a0
a00018c8:	00012603          	lw	a2,0(sp)
a00018cc:	00279793          	slli	a5,a5,0x2
a00018d0:	00251513          	slli	a0,a0,0x2
a00018d4:	00f607b3          	add	a5,a2,a5
a00018d8:	00a60533          	add	a0,a2,a0
a00018dc:	0007a783          	lw	a5,0(a5)
a00018e0:	00052603          	lw	a2,0(a0)
a00018e4:	e4f640e3          	blt	a2,a5,a0001724 <_Z11suffixArrayPiS_ii+0x36c>
a00018e8:	f25ff06f          	j	a000180c <_Z11suffixArrayPiS_ii+0x454>
a00018ec:	03012783          	lw	a5,48(sp)
a00018f0:	00812683          	lw	a3,8(sp)
a00018f4:	00170713          	addi	a4,a4,1
a00018f8:	e4f6d6e3          	bge	a3,a5,a0001744 <_Z11suffixArrayPiS_ii+0x38c>
a00018fc:	00279313          	slli	t1,a5,0x2
a0001900:	03412783          	lw	a5,52(sp)
a0001904:	00460613          	addi	a2,a2,4
a0001908:	03c12483          	lw	s1,60(sp)
a000190c:	00c78633          	add	a2,a5,a2
a0001910:	02412783          	lw	a5,36(sp)
a0001914:	00678333          	add	t1,a5,t1
a0001918:	0004a683          	lw	a3,0(s1)
a000191c:	40568533          	sub	a0,a3,t0
a0001920:	00151793          	slli	a5,a0,0x1
a0001924:	00169593          	slli	a1,a3,0x1
a0001928:	00a787b3          	add	a5,a5,a0
a000192c:	00d585b3          	add	a1,a1,a3
a0001930:	00278793          	addi	a5,a5,2
a0001934:	0056d463          	bge	a3,t0,a000193c <_Z11suffixArrayPiS_ii+0x584>
a0001938:	00158793          	addi	a5,a1,1
a000193c:	00f62023          	sw	a5,0(a2)
a0001940:	00448493          	addi	s1,s1,4
a0001944:	00460613          	addi	a2,a2,4
a0001948:	fc6498e3          	bne	s1,t1,a0001918 <_Z11suffixArrayPiS_ii+0x560>
a000194c:	00812783          	lw	a5,8(sp)
a0001950:	40f70733          	sub	a4,a4,a5
a0001954:	03012783          	lw	a5,48(sp)
a0001958:	00f70733          	add	a4,a4,a5
a000195c:	00f12423          	sw	a5,8(sp)
a0001960:	de5ff06f          	j	a0001744 <_Z11suffixArrayPiS_ii+0x38c>
a0001964:	00012403          	lw	s0,0(sp)
a0001968:	02412583          	lw	a1,36(sp)
a000196c:	00070613          	mv	a2,a4
a0001970:	00040513          	mv	a0,s0
a0001974:	00612823          	sw	t1,16(sp)
a0001978:	00f12623          	sw	a5,12(sp)
a000197c:	a3dff0ef          	jal	a00013b8 <_Z11suffixArrayPiS_ii>
a0001980:	02412603          	lw	a2,36(sp)
a0001984:	03012583          	lw	a1,48(sp)
a0001988:	00c12783          	lw	a5,12(sp)
a000198c:	01012303          	lw	t1,16(sp)
a0001990:	00000693          	li	a3,0
a0001994:	00040513          	mv	a0,s0
a0001998:	00062703          	lw	a4,0(a2)
a000199c:	00168693          	addi	a3,a3,1
a00019a0:	00460613          	addi	a2,a2,4
a00019a4:	00271713          	slli	a4,a4,0x2
a00019a8:	00e50733          	add	a4,a0,a4
a00019ac:	00d72023          	sw	a3,0(a4)
a00019b0:	feb694e3          	bne	a3,a1,a0001998 <_Z11suffixArrayPiS_ii+0x5e0>
a00019b4:	ce9ff06f          	j	a000169c <_Z11suffixArrayPiS_ii+0x2e4>

a00019b8 <bench_ssort_prepare>:
a00019b8:	00fff797          	auipc	a5,0xfff
a00019bc:	d147a783          	lw	a5,-748(a5) # a10006cc <setting>
a00019c0:	0007a783          	lw	a5,0(a5)
a00019c4:	ff010113          	addi	sp,sp,-16
a00019c8:	00112623          	sw	ra,12(sp)
a00019cc:	00912223          	sw	s1,4(sp)
a00019d0:	00100513          	li	a0,1
a00019d4:	00fff497          	auipc	s1,0xfff
a00019d8:	ce848493          	addi	s1,s1,-792 # a10006bc <_ZL1N>
a00019dc:	00f4a023          	sw	a5,0(s1)
a00019e0:	0c9000ef          	jal	a00022a8 <bench_srand>
a00019e4:	0004a503          	lw	a0,0(s1)
a00019e8:	00a50513          	addi	a0,a0,10
a00019ec:	00251513          	slli	a0,a0,0x2
a00019f0:	011000ef          	jal	a0002200 <bench_alloc>
a00019f4:	0004a783          	lw	a5,0(s1)
a00019f8:	00fff717          	auipc	a4,0xfff
a00019fc:	cc070713          	addi	a4,a4,-832 # a10006b8 <_ZL1s>
a0001a00:	00a72023          	sw	a0,0(a4)
a0001a04:	00a78513          	addi	a0,a5,10
a0001a08:	00251513          	slli	a0,a0,0x2
a0001a0c:	7f4000ef          	jal	a0002200 <bench_alloc>
a0001a10:	0004a783          	lw	a5,0(s1)
a0001a14:	00fff717          	auipc	a4,0xfff
a0001a18:	caa72023          	sw	a0,-864(a4) # a10006b4 <_ZL2sa>
a0001a1c:	04f05463          	blez	a5,a0001a64 <bench_ssort_prepare+0xac>
a0001a20:	00812423          	sw	s0,8(sp)
a0001a24:	00000413          	li	s0,0
a0001a28:	095000ef          	jal	a00022bc <bench_rand>
a0001a2c:	00fff797          	auipc	a5,0xfff
a0001a30:	c8c78793          	addi	a5,a5,-884 # a10006b8 <_ZL1s>
a0001a34:	0007a783          	lw	a5,0(a5)
a0001a38:	00241713          	slli	a4,s0,0x2
a0001a3c:	01a00593          	li	a1,26
a0001a40:	00e787b3          	add	a5,a5,a4
a0001a44:	00f12023          	sw	a5,0(sp)
a0001a48:	080040ef          	jal	a0005ac8 <__umodsi3>
a0001a4c:	00012783          	lw	a5,0(sp)
a0001a50:	0004a703          	lw	a4,0(s1)
a0001a54:	00140413          	addi	s0,s0,1
a0001a58:	00a7a023          	sw	a0,0(a5)
a0001a5c:	fce446e3          	blt	s0,a4,a0001a28 <bench_ssort_prepare+0x70>
a0001a60:	00812403          	lw	s0,8(sp)
a0001a64:	00c12083          	lw	ra,12(sp)
a0001a68:	00412483          	lw	s1,4(sp)
a0001a6c:	01010113          	addi	sp,sp,16
a0001a70:	00008067          	ret

a0001a74 <bench_ssort_run>:
a0001a74:	01a00693          	li	a3,26
a0001a78:	00fff617          	auipc	a2,0xfff
a0001a7c:	c4462603          	lw	a2,-956(a2) # a10006bc <_ZL1N>
a0001a80:	00fff597          	auipc	a1,0xfff
a0001a84:	c345a583          	lw	a1,-972(a1) # a10006b4 <_ZL2sa>
a0001a88:	00fff517          	auipc	a0,0xfff
a0001a8c:	c3052503          	lw	a0,-976(a0) # a10006b8 <_ZL1s>
a0001a90:	929ff06f          	j	a00013b8 <_Z11suffixArrayPiS_ii>

a0001a94 <bench_ssort_validate>:
a0001a94:	00fff597          	auipc	a1,0xfff
a0001a98:	c285a583          	lw	a1,-984(a1) # a10006bc <_ZL1N>
a0001a9c:	00fff517          	auipc	a0,0xfff
a0001aa0:	c1852503          	lw	a0,-1000(a0) # a10006b4 <_ZL2sa>
a0001aa4:	00259593          	slli	a1,a1,0x2
a0001aa8:	ff410113          	addi	sp,sp,-12
a0001aac:	00b505b3          	add	a1,a0,a1
a0001ab0:	00112423          	sw	ra,8(sp)
a0001ab4:	059000ef          	jal	a000230c <checksum>
a0001ab8:	00fff797          	auipc	a5,0xfff
a0001abc:	c147a783          	lw	a5,-1004(a5) # a10006cc <setting>
a0001ac0:	00c7a783          	lw	a5,12(a5)
a0001ac4:	00812083          	lw	ra,8(sp)
a0001ac8:	40a78533          	sub	a0,a5,a0
a0001acc:	00153513          	seqz	a0,a0
a0001ad0:	00c10113          	addi	sp,sp,12
a0001ad4:	00008067          	ret

a0001ad8 <dfs>:
a0001ad8:	fe810113          	addi	sp,sp,-24
a0001adc:	00812823          	sw	s0,16(sp)
a0001ae0:	00112a23          	sw	ra,20(sp)
a0001ae4:	00fff717          	auipc	a4,0xfff
a0001ae8:	be072703          	lw	a4,-1056(a4) # a10006c4 <FULL>
a0001aec:	00b12223          	sw	a1,4(sp)
a0001af0:	00c12423          	sw	a2,8(sp)
a0001af4:	00100413          	li	s0,1
a0001af8:	06a70263          	beq	a4,a0,a0001b5c <dfs+0x84>
a0001afc:	00c5e7b3          	or	a5,a1,a2
a0001b00:	00a7e7b3          	or	a5,a5,a0
a0001b04:	fff7c793          	not	a5,a5
a0001b08:	00912623          	sw	s1,12(sp)
a0001b0c:	00e7f4b3          	and	s1,a5,a4
a0001b10:	00050693          	mv	a3,a0
a0001b14:	00000413          	li	s0,0
a0001b18:	04048063          	beqz	s1,a0001b58 <dfs+0x80>
a0001b1c:	00812783          	lw	a5,8(sp)
a0001b20:	40900733          	neg	a4,s1
a0001b24:	00977733          	and	a4,a4,s1
a0001b28:	00e7e633          	or	a2,a5,a4
a0001b2c:	00412783          	lw	a5,4(sp)
a0001b30:	00e6e533          	or	a0,a3,a4
a0001b34:	00165613          	srli	a2,a2,0x1
a0001b38:	00e7e5b3          	or	a1,a5,a4
a0001b3c:	00159593          	slli	a1,a1,0x1
a0001b40:	00d12023          	sw	a3,0(sp)
a0001b44:	40e484b3          	sub	s1,s1,a4
a0001b48:	f91ff0ef          	jal	a0001ad8 <dfs>
a0001b4c:	00012683          	lw	a3,0(sp)
a0001b50:	00a40433          	add	s0,s0,a0
a0001b54:	fc0494e3          	bnez	s1,a0001b1c <dfs+0x44>
a0001b58:	00c12483          	lw	s1,12(sp)
a0001b5c:	01412083          	lw	ra,20(sp)
a0001b60:	00040513          	mv	a0,s0
a0001b64:	01012403          	lw	s0,16(sp)
a0001b68:	01810113          	addi	sp,sp,24
a0001b6c:	00008067          	ret

a0001b70 <bench_queen_prepare>:
a0001b70:	00fff797          	auipc	a5,0xfff
a0001b74:	b5c7a783          	lw	a5,-1188(a5) # a10006cc <setting>
a0001b78:	0007a703          	lw	a4,0(a5)
a0001b7c:	00fff797          	auipc	a5,0xfff
a0001b80:	b407a223          	sw	zero,-1212(a5) # a10006c0 <ans>
a0001b84:	00100793          	li	a5,1
a0001b88:	00e797b3          	sll	a5,a5,a4
a0001b8c:	fff78793          	addi	a5,a5,-1
a0001b90:	00fff717          	auipc	a4,0xfff
a0001b94:	b2f72a23          	sw	a5,-1228(a4) # a10006c4 <FULL>
a0001b98:	00008067          	ret

a0001b9c <bench_queen_run>:
a0001b9c:	ff410113          	addi	sp,sp,-12
a0001ba0:	00812223          	sw	s0,4(sp)
a0001ba4:	00912023          	sw	s1,0(sp)
a0001ba8:	00112423          	sw	ra,8(sp)
a0001bac:	00fff417          	auipc	s0,0xfff
a0001bb0:	b1842403          	lw	s0,-1256(s0) # a10006c4 <FULL>
a0001bb4:	00100493          	li	s1,1
a0001bb8:	02040463          	beqz	s0,a0001be0 <bench_queen_run+0x44>
a0001bbc:	00000493          	li	s1,0
a0001bc0:	40800533          	neg	a0,s0
a0001bc4:	00857533          	and	a0,a0,s0
a0001bc8:	00155613          	srli	a2,a0,0x1
a0001bcc:	00151593          	slli	a1,a0,0x1
a0001bd0:	40a40433          	sub	s0,s0,a0
a0001bd4:	f05ff0ef          	jal	a0001ad8 <dfs>
a0001bd8:	00a484b3          	add	s1,s1,a0
a0001bdc:	fe0412e3          	bnez	s0,a0001bc0 <bench_queen_run+0x24>
a0001be0:	00812083          	lw	ra,8(sp)
a0001be4:	00412403          	lw	s0,4(sp)
a0001be8:	00fff797          	auipc	a5,0xfff
a0001bec:	ac97ac23          	sw	s1,-1320(a5) # a10006c0 <ans>
a0001bf0:	00012483          	lw	s1,0(sp)
a0001bf4:	00c10113          	addi	sp,sp,12
a0001bf8:	00008067          	ret

a0001bfc <bench_queen_validate>:
a0001bfc:	00fff797          	auipc	a5,0xfff
a0001c00:	ad07a783          	lw	a5,-1328(a5) # a10006cc <setting>
a0001c04:	00c7a503          	lw	a0,12(a5)
a0001c08:	00fff797          	auipc	a5,0xfff
a0001c0c:	ab87a783          	lw	a5,-1352(a5) # a10006c0 <ans>
a0001c10:	40f50533          	sub	a0,a0,a5
a0001c14:	00153513          	seqz	a0,a0
a0001c18:	00008067          	ret

a0001c1c <format_time>:
a0001c1c:	fec10113          	addi	sp,sp,-20
a0001c20:	3e800613          	li	a2,1000
a0001c24:	00000693          	li	a3,0
a0001c28:	00112823          	sw	ra,16(sp)
a0001c2c:	00812623          	sw	s0,12(sp)
a0001c30:	00912423          	sw	s1,8(sp)
a0001c34:	00058413          	mv	s0,a1
a0001c38:	00050493          	mv	s1,a0
a0001c3c:	374050ef          	jal	a0006fb0 <__umoddi3>
a0001c40:	00058713          	mv	a4,a1
a0001c44:	00050793          	mv	a5,a0
a0001c48:	3e800613          	li	a2,1000
a0001c4c:	00000693          	li	a3,0
a0001c50:	00048513          	mv	a0,s1
a0001c54:	00040593          	mv	a1,s0
a0001c58:	00078493          	mv	s1,a5
a0001c5c:	00e12023          	sw	a4,0(sp)
a0001c60:	348050ef          	jal	a0006fa8 <__udivdi3>
a0001c64:	00050613          	mv	a2,a0
a0001c68:	00058693          	mv	a3,a1
a0001c6c:	00fff517          	auipc	a0,0xfff
a0001c70:	9ec50513          	addi	a0,a0,-1556 # a1000658 <buf.0>
a0001c74:	00005597          	auipc	a1,0x5
a0001c78:	4e458593          	addi	a1,a1,1252 # a0007158 <rodata_start+0x6c>
a0001c7c:	6f5040ef          	jal	a0006b70 <sprintf>
a0001c80:	00012703          	lw	a4,0(sp)
a0001c84:	00fff617          	auipc	a2,0xfff
a0001c88:	9d360613          	addi	a2,a2,-1581 # a1000657 <__fsymtab_end+0x3>
a0001c8c:	00c50433          	add	s0,a0,a2
a0001c90:	009766b3          	or	a3,a4,s1
a0001c94:	06068063          	beqz	a3,a0001cf4 <format_time+0xd8>
a0001c98:	00a00613          	li	a2,10
a0001c9c:	00000693          	li	a3,0
a0001ca0:	00048513          	mv	a0,s1
a0001ca4:	00070593          	mv	a1,a4
a0001ca8:	00e12023          	sw	a4,0(sp)
a0001cac:	304050ef          	jal	a0006fb0 <__umoddi3>
a0001cb0:	00012703          	lw	a4,0(sp)
a0001cb4:	03050313          	addi	t1,a0,48
a0001cb8:	00640023          	sb	t1,0(s0)
a0001cbc:	00048513          	mv	a0,s1
a0001cc0:	00070593          	mv	a1,a4
a0001cc4:	00a00613          	li	a2,10
a0001cc8:	00000693          	li	a3,0
a0001ccc:	00912223          	sw	s1,4(sp)
a0001cd0:	2d8050ef          	jal	a0006fa8 <__udivdi3>
a0001cd4:	00012303          	lw	t1,0(sp)
a0001cd8:	fff40413          	addi	s0,s0,-1
a0001cdc:	00058713          	mv	a4,a1
a0001ce0:	00050493          	mv	s1,a0
a0001ce4:	fa031ae3          	bnez	t1,a0001c98 <format_time+0x7c>
a0001ce8:	00412783          	lw	a5,4(sp)
a0001cec:	00900693          	li	a3,9
a0001cf0:	faf6e4e3          	bltu	a3,a5,a0001c98 <format_time+0x7c>
a0001cf4:	01012083          	lw	ra,16(sp)
a0001cf8:	00c12403          	lw	s0,12(sp)
a0001cfc:	00812483          	lw	s1,8(sp)
a0001d00:	00fff517          	auipc	a0,0xfff
a0001d04:	95850513          	addi	a0,a0,-1704 # a1000658 <buf.0>
a0001d08:	01410113          	addi	sp,sp,20
a0001d0c:	00008067          	ret

a0001d10 <main>:
a0001d10:	fb810113          	addi	sp,sp,-72
a0001d14:	03710793          	addi	a5,sp,55
a0001d18:	ff87f793          	andi	a5,a5,-8
a0001d1c:	04112223          	sw	ra,68(sp)
a0001d20:	04812023          	sw	s0,64(sp)
a0001d24:	02912e23          	sw	s1,60(sp)
a0001d28:	00f12023          	sw	a5,0(sp)
a0001d2c:	3e050a63          	beqz	a0,a0002120 <main+0x410>
a0001d30:	00006597          	auipc	a1,0x6
a0001d34:	97458593          	addi	a1,a1,-1676 # a00076a4 <rodata_start+0x5b8>
a0001d38:	00050413          	mv	s0,a0
a0001d3c:	6d9030ef          	jal	a0005c14 <strcmp>
a0001d40:	3e050063          	beqz	a0,a0002120 <main+0x410>
a0001d44:	00005597          	auipc	a1,0x5
a0001d48:	45858593          	addi	a1,a1,1112 # a000719c <rodata_start+0xb0>
a0001d4c:	00040513          	mv	a0,s0
a0001d50:	6c5030ef          	jal	a0005c14 <strcmp>
a0001d54:	00a12c23          	sw	a0,24(sp)
a0001d58:	02050063          	beqz	a0,a0001d78 <main+0x68>
a0001d5c:	00005597          	auipc	a1,0x5
a0001d60:	44858593          	addi	a1,a1,1096 # a00071a4 <rodata_start+0xb8>
a0001d64:	00040513          	mv	a0,s0
a0001d68:	6ad030ef          	jal	a0005c14 <strcmp>
a0001d6c:	00100793          	li	a5,1
a0001d70:	00f12c23          	sw	a5,24(sp)
a0001d74:	42051e63          	bnez	a0,a00021b0 <main+0x4a0>
a0001d78:	00d030ef          	jal	a0005584 <ioe_init>
a0001d7c:	00040593          	mv	a1,s0
a0001d80:	00005517          	auipc	a0,0x5
a0001d84:	47450513          	addi	a0,a0,1140 # a00071f4 <rodata_start+0x108>
a0001d88:	6d5030ef          	jal	a0005c5c <printf>
a0001d8c:	00012403          	lw	s0,0(sp)
a0001d90:	00600513          	li	a0,6
a0001d94:	00fff497          	auipc	s1,0xfff
a0001d98:	8b848493          	addi	s1,s1,-1864 # a100064c <heap>
a0001d9c:	00040593          	mv	a1,s0
a0001da0:	03d030ef          	jal	a00055dc <ioe_read>
a0001da4:	01812703          	lw	a4,24(sp)
a0001da8:	00442783          	lw	a5,4(s0)
a0001dac:	00042683          	lw	a3,0(s0)
a0001db0:	00471713          	slli	a4,a4,0x4
a0001db4:	01470713          	addi	a4,a4,20
a0001db8:	02f12623          	sw	a5,44(sp)
a0001dbc:	00ffe797          	auipc	a5,0xffe
a0001dc0:	24478793          	addi	a5,a5,580 # a1000000 <benchmarks>
a0001dc4:	00f70433          	add	s0,a4,a5
a0001dc8:	00100713          	li	a4,1
a0001dcc:	00e12e23          	sw	a4,28(sp)
a0001dd0:	02d12423          	sw	a3,40(sp)
a0001dd4:	00040713          	mv	a4,s0
a0001dd8:	00012823          	sw	zero,16(sp)
a0001ddc:	00012a23          	sw	zero,20(sp)
a0001de0:	02012223          	sw	zero,36(sp)
a0001de4:	00078413          	mv	s0,a5
a0001de8:	0400006f          	j	a0001e28 <main+0x118>
a0001dec:	00005517          	auipc	a0,0x5
a0001df0:	43c50513          	addi	a0,a0,1084 # a0007228 <rodata_start+0x13c>
a0001df4:	00e12223          	sw	a4,4(sp)
a0001df8:	665030ef          	jal	a0005c5c <printf>
a0001dfc:	00005597          	auipc	a1,0x5
a0001e00:	43858593          	addi	a1,a1,1080 # a0007234 <rodata_start+0x148>
a0001e04:	00005517          	auipc	a0,0x5
a0001e08:	44850513          	addi	a0,a0,1096 # a000724c <rodata_start+0x160>
a0001e0c:	651030ef          	jal	a0005c5c <printf>
a0001e10:	00412703          	lw	a4,4(sp)
a0001e14:	05440413          	addi	s0,s0,84
a0001e18:	00ffe797          	auipc	a5,0xffe
a0001e1c:	53078793          	addi	a5,a5,1328 # a1000348 <_ZL8PUZZLE_H>
a0001e20:	05470713          	addi	a4,a4,84
a0001e24:	20f40663          	beq	s0,a5,a0002030 <main+0x320>
a0001e28:	0004a603          	lw	a2,0(s1)
a0001e2c:	0044a683          	lw	a3,4(s1)
a0001e30:	00472503          	lw	a0,4(a4)
a0001e34:	00fff597          	auipc	a1,0xfff
a0001e38:	89858593          	addi	a1,a1,-1896 # a10006cc <setting>
a0001e3c:	00fff797          	auipc	a5,0xfff
a0001e40:	89478793          	addi	a5,a5,-1900 # a10006d0 <current>
a0001e44:	00e5a023          	sw	a4,0(a1)
a0001e48:	40c686b3          	sub	a3,a3,a2
a0001e4c:	0087a023          	sw	s0,0(a5)
a0001e50:	00c42583          	lw	a1,12(s0)
a0001e54:	01042603          	lw	a2,16(s0)
a0001e58:	f8a6eae3          	bltu	a3,a0,a0001dec <main+0xdc>
a0001e5c:	00005517          	auipc	a0,0x5
a0001e60:	3cc50513          	addi	a0,a0,972 # a0007228 <rodata_start+0x13c>
a0001e64:	00e12623          	sw	a4,12(sp)
a0001e68:	5f5030ef          	jal	a0005c5c <printf>
a0001e6c:	00fff797          	auipc	a5,0xfff
a0001e70:	86478793          	addi	a5,a5,-1948 # a10006d0 <current>
a0001e74:	0007a603          	lw	a2,0(a5)
a0001e78:	0004a683          	lw	a3,0(s1)
a0001e7c:	00fff717          	auipc	a4,0xfff
a0001e80:	84c70713          	addi	a4,a4,-1972 # a10006c8 <hbrk>
a0001e84:	00062603          	lw	a2,0(a2)
a0001e88:	00768693          	addi	a3,a3,7
a0001e8c:	ff86f693          	andi	a3,a3,-8
a0001e90:	00d72023          	sw	a3,0(a4)
a0001e94:	000600e7          	jalr	a2
a0001e98:	00012583          	lw	a1,0(sp)
a0001e9c:	00600513          	li	a0,6
a0001ea0:	73c030ef          	jal	a00055dc <ioe_read>
a0001ea4:	00fff797          	auipc	a5,0xfff
a0001ea8:	82c78793          	addi	a5,a5,-2004 # a10006d0 <current>
a0001eac:	00012703          	lw	a4,0(sp)
a0001eb0:	0007a683          	lw	a3,0(a5)
a0001eb4:	00072303          	lw	t1,0(a4)
a0001eb8:	00472783          	lw	a5,4(a4)
a0001ebc:	0046a683          	lw	a3,4(a3)
a0001ec0:	00612423          	sw	t1,8(sp)
a0001ec4:	00f12223          	sw	a5,4(sp)
a0001ec8:	000680e7          	jalr	a3
a0001ecc:	00012583          	lw	a1,0(sp)
a0001ed0:	00600513          	li	a0,6
a0001ed4:	708030ef          	jal	a00055dc <ioe_read>
a0001ed8:	00012703          	lw	a4,0(sp)
a0001edc:	00812303          	lw	t1,8(sp)
a0001ee0:	00ffe797          	auipc	a5,0xffe
a0001ee4:	7f078793          	addi	a5,a5,2032 # a10006d0 <current>
a0001ee8:	00072683          	lw	a3,0(a4)
a0001eec:	0007a583          	lw	a1,0(a5)
a0001ef0:	00472603          	lw	a2,4(a4)
a0001ef4:	406687b3          	sub	a5,a3,t1
a0001ef8:	00f6b6b3          	sltu	a3,a3,a5
a0001efc:	00f12423          	sw	a5,8(sp)
a0001f00:	00412783          	lw	a5,4(sp)
a0001f04:	0085a583          	lw	a1,8(a1)
a0001f08:	40f60633          	sub	a2,a2,a5
a0001f0c:	40d607b3          	sub	a5,a2,a3
a0001f10:	00f12223          	sw	a5,4(sp)
a0001f14:	000580e7          	jalr	a1
a0001f18:	00c12703          	lw	a4,12(sp)
a0001f1c:	20050e63          	beqz	a0,a0002138 <main+0x428>
a0001f20:	00a12623          	sw	a0,12(sp)
a0001f24:	00005517          	auipc	a0,0x5
a0001f28:	33850513          	addi	a0,a0,824 # a000725c <rodata_start+0x170>
a0001f2c:	02e12023          	sw	a4,32(sp)
a0001f30:	52d030ef          	jal	a0005c5c <printf>
a0001f34:	01012783          	lw	a5,16(sp)
a0001f38:	00812703          	lw	a4,8(sp)
a0001f3c:	01412503          	lw	a0,20(sp)
a0001f40:	00412603          	lw	a2,4(sp)
a0001f44:	00e786b3          	add	a3,a5,a4
a0001f48:	00f6b5b3          	sltu	a1,a3,a5
a0001f4c:	00c12783          	lw	a5,12(sp)
a0001f50:	00c50633          	add	a2,a0,a2
a0001f54:	00d12823          	sw	a3,16(sp)
a0001f58:	00c586b3          	add	a3,a1,a2
a0001f5c:	0017f793          	andi	a5,a5,1
a0001f60:	00d12a23          	sw	a3,20(sp)
a0001f64:	02012703          	lw	a4,32(sp)
a0001f68:	20078663          	beqz	a5,a0002174 <main+0x464>
a0001f6c:	00005517          	auipc	a0,0x5
a0001f70:	2f450513          	addi	a0,a0,756 # a0007260 <rodata_start+0x174>
a0001f74:	00e12623          	sw	a4,12(sp)
a0001f78:	4e5030ef          	jal	a0005c5c <printf>
a0001f7c:	00812783          	lw	a5,8(sp)
a0001f80:	00412603          	lw	a2,4(sp)
a0001f84:	02012023          	sw	zero,32(sp)
a0001f88:	00c12703          	lw	a4,12(sp)
a0001f8c:	00c7e6b3          	or	a3,a5,a2
a0001f90:	04068663          	beqz	a3,a0001fdc <main+0x2cc>
a0001f94:	00ffe797          	auipc	a5,0xffe
a0001f98:	73878793          	addi	a5,a5,1848 # a10006cc <setting>
a0001f9c:	0007a503          	lw	a0,0(a5)
a0001fa0:	00018637          	lui	a2,0x18
a0001fa4:	6a060613          	addi	a2,a2,1696 # 186a0 <_STACK_SIZE+0x86a0>
a0001fa8:	00852503          	lw	a0,8(a0)
a0001fac:	00000693          	li	a3,0
a0001fb0:	00000593          	li	a1,0
a0001fb4:	00e12623          	sw	a4,12(sp)
a0001fb8:	399030ef          	jal	a0005b50 <__muldi3>
a0001fbc:	00812603          	lw	a2,8(sp)
a0001fc0:	00412683          	lw	a3,4(sp)
a0001fc4:	7e5040ef          	jal	a0006fa8 <__udivdi3>
a0001fc8:	02412703          	lw	a4,36(sp)
a0001fcc:	02a12023          	sw	a0,32(sp)
a0001fd0:	00a707b3          	add	a5,a4,a0
a0001fd4:	00c12703          	lw	a4,12(sp)
a0001fd8:	02f12223          	sw	a5,36(sp)
a0001fdc:	00005517          	auipc	a0,0x5
a0001fe0:	34450513          	addi	a0,a0,836 # a0007320 <rodata_start+0x234>
a0001fe4:	00e12623          	sw	a4,12(sp)
a0001fe8:	475030ef          	jal	a0005c5c <printf>
a0001fec:	01812783          	lw	a5,24(sp)
a0001ff0:	00c12703          	lw	a4,12(sp)
a0001ff4:	e20780e3          	beqz	a5,a0001e14 <main+0x104>
a0001ff8:	00412583          	lw	a1,4(sp)
a0001ffc:	00812503          	lw	a0,8(sp)
a0002000:	05440413          	addi	s0,s0,84
a0002004:	c19ff0ef          	jal	a0001c1c <format_time>
a0002008:	02012603          	lw	a2,32(sp)
a000200c:	00050593          	mv	a1,a0
a0002010:	00005517          	auipc	a0,0x5
a0002014:	26850513          	addi	a0,a0,616 # a0007278 <rodata_start+0x18c>
a0002018:	445030ef          	jal	a0005c5c <printf>
a000201c:	00c12703          	lw	a4,12(sp)
a0002020:	00ffe797          	auipc	a5,0xffe
a0002024:	32878793          	addi	a5,a5,808 # a1000348 <_ZL8PUZZLE_H>
a0002028:	05470713          	addi	a4,a4,84
a000202c:	def41ee3          	bne	s0,a5,a0001e28 <main+0x118>
a0002030:	00012403          	lw	s0,0(sp)
a0002034:	00600513          	li	a0,6
a0002038:	00040593          	mv	a1,s0
a000203c:	5a0030ef          	jal	a00055dc <ioe_read>
a0002040:	00042783          	lw	a5,0(s0)
a0002044:	02812703          	lw	a4,40(sp)
a0002048:	00442403          	lw	s0,4(s0)
a000204c:	00005517          	auipc	a0,0x5
a0002050:	24450513          	addi	a0,a0,580 # a0007290 <rodata_start+0x1a4>
a0002054:	40e784b3          	sub	s1,a5,a4
a0002058:	02c12703          	lw	a4,44(sp)
a000205c:	0097b7b3          	sltu	a5,a5,s1
a0002060:	40e40433          	sub	s0,s0,a4
a0002064:	40f40433          	sub	s0,s0,a5
a0002068:	3f5030ef          	jal	a0005c5c <printf>
a000206c:	01c12783          	lw	a5,28(sp)
a0002070:	00005597          	auipc	a1,0x5
a0002074:	0fc58593          	addi	a1,a1,252 # a000716c <rodata_start+0x80>
a0002078:	10079e63          	bnez	a5,a0002194 <main+0x484>
a000207c:	00005517          	auipc	a0,0x5
a0002080:	24850513          	addi	a0,a0,584 # a00072c4 <rodata_start+0x1d8>
a0002084:	3d9030ef          	jal	a0005c5c <printf>
a0002088:	01812703          	lw	a4,24(sp)
a000208c:	00100793          	li	a5,1
a0002090:	10e7d863          	bge	a5,a4,a00021a0 <main+0x490>
a0002094:	02412503          	lw	a0,36(sp)
a0002098:	00a00593          	li	a1,10
a000209c:	1e5030ef          	jal	a0005a80 <__hidden___udivsi3>
a00020a0:	00050593          	mv	a1,a0
a00020a4:	00005517          	auipc	a0,0x5
a00020a8:	23050513          	addi	a0,a0,560 # a00072d4 <rodata_start+0x1e8>
a00020ac:	3b1030ef          	jal	a0005c5c <printf>
a00020b0:	000185b7          	lui	a1,0x18
a00020b4:	00005617          	auipc	a2,0x5
a00020b8:	23460613          	addi	a2,a2,564 # a00072e8 <rodata_start+0x1fc>
a00020bc:	6a058593          	addi	a1,a1,1696 # 186a0 <_STACK_SIZE+0x86a0>
a00020c0:	00005517          	auipc	a0,0x5
a00020c4:	23c50513          	addi	a0,a0,572 # a00072fc <rodata_start+0x210>
a00020c8:	395030ef          	jal	a0005c5c <printf>
a00020cc:	01412583          	lw	a1,20(sp)
a00020d0:	01012503          	lw	a0,16(sp)
a00020d4:	b49ff0ef          	jal	a0001c1c <format_time>
a00020d8:	00050593          	mv	a1,a0
a00020dc:	00005517          	auipc	a0,0x5
a00020e0:	24850513          	addi	a0,a0,584 # a0007324 <rodata_start+0x238>
a00020e4:	379030ef          	jal	a0005c5c <printf>
a00020e8:	00040593          	mv	a1,s0
a00020ec:	00048513          	mv	a0,s1
a00020f0:	b2dff0ef          	jal	a0001c1c <format_time>
a00020f4:	00050593          	mv	a1,a0
a00020f8:	00005517          	auipc	a0,0x5
a00020fc:	24050513          	addi	a0,a0,576 # a0007338 <rodata_start+0x24c>
a0002100:	35d030ef          	jal	a0005c5c <printf>
a0002104:	01c12783          	lw	a5,28(sp)
a0002108:	04412083          	lw	ra,68(sp)
a000210c:	04012403          	lw	s0,64(sp)
a0002110:	03c12483          	lw	s1,60(sp)
a0002114:	0017c513          	xori	a0,a5,1
a0002118:	04810113          	addi	sp,sp,72
a000211c:	00008067          	ret
a0002120:	00005517          	auipc	a0,0x5
a0002124:	05450513          	addi	a0,a0,84 # a0007174 <rodata_start+0x88>
a0002128:	335030ef          	jal	a0005c5c <printf>
a000212c:	00005417          	auipc	s0,0x5
a0002130:	03440413          	addi	s0,s0,52 # a0007160 <rodata_start+0x74>
a0002134:	c11ff06f          	j	a0001d44 <main+0x34>
a0002138:	00005517          	auipc	a0,0x5
a000213c:	12050513          	addi	a0,a0,288 # a0007258 <rodata_start+0x16c>
a0002140:	00e12623          	sw	a4,12(sp)
a0002144:	319030ef          	jal	a0005c5c <printf>
a0002148:	01012783          	lw	a5,16(sp)
a000214c:	00812703          	lw	a4,8(sp)
a0002150:	00e786b3          	add	a3,a5,a4
a0002154:	00f6b5b3          	sltu	a1,a3,a5
a0002158:	00412703          	lw	a4,4(sp)
a000215c:	01412783          	lw	a5,20(sp)
a0002160:	00d12823          	sw	a3,16(sp)
a0002164:	00e78633          	add	a2,a5,a4
a0002168:	00c12703          	lw	a4,12(sp)
a000216c:	00c587b3          	add	a5,a1,a2
a0002170:	00f12a23          	sw	a5,20(sp)
a0002174:	00005517          	auipc	a0,0x5
a0002178:	0f850513          	addi	a0,a0,248 # a000726c <rodata_start+0x180>
a000217c:	00e12623          	sw	a4,12(sp)
a0002180:	2dd030ef          	jal	a0005c5c <printf>
a0002184:	00c12703          	lw	a4,12(sp)
a0002188:	00012e23          	sw	zero,28(sp)
a000218c:	02012023          	sw	zero,32(sp)
a0002190:	e4dff06f          	j	a0001fdc <main+0x2cc>
a0002194:	00005597          	auipc	a1,0x5
a0002198:	fd058593          	addi	a1,a1,-48 # a0007164 <rodata_start+0x78>
a000219c:	ee1ff06f          	j	a000207c <main+0x36c>
a00021a0:	00005517          	auipc	a0,0x5
a00021a4:	18050513          	addi	a0,a0,384 # a0007320 <rodata_start+0x234>
a00021a8:	2b5030ef          	jal	a0005c5c <printf>
a00021ac:	f21ff06f          	j	a00020cc <main+0x3bc>
a00021b0:	00005597          	auipc	a1,0x5
a00021b4:	fb058593          	addi	a1,a1,-80 # a0007160 <rodata_start+0x74>
a00021b8:	00040513          	mv	a0,s0
a00021bc:	259030ef          	jal	a0005c14 <strcmp>
a00021c0:	00200793          	li	a5,2
a00021c4:	00f12c23          	sw	a5,24(sp)
a00021c8:	ba0508e3          	beqz	a0,a0001d78 <main+0x68>
a00021cc:	00005597          	auipc	a1,0x5
a00021d0:	fe058593          	addi	a1,a1,-32 # a00071ac <rodata_start+0xc0>
a00021d4:	00040513          	mv	a0,s0
a00021d8:	23d030ef          	jal	a0005c14 <strcmp>
a00021dc:	00300793          	li	a5,3
a00021e0:	00f12c23          	sw	a5,24(sp)
a00021e4:	b8050ae3          	beqz	a0,a0001d78 <main+0x68>
a00021e8:	00040593          	mv	a1,s0
a00021ec:	00005517          	auipc	a0,0x5
a00021f0:	fc850513          	addi	a0,a0,-56 # a00071b4 <rodata_start+0xc8>
a00021f4:	269030ef          	jal	a0005c5c <printf>
a00021f8:	00100513          	li	a0,1
a00021fc:	728030ef          	jal	a0005924 <halt>

a0002200 <bench_alloc>:
a0002200:	00ffe597          	auipc	a1,0xffe
a0002204:	4c858593          	addi	a1,a1,1224 # a10006c8 <hbrk>
a0002208:	0005a683          	lw	a3,0(a1)
a000220c:	00750713          	addi	a4,a0,7
a0002210:	00ffe797          	auipc	a5,0xffe
a0002214:	43c78793          	addi	a5,a5,1084 # a100064c <heap>
a0002218:	ff410113          	addi	sp,sp,-12
a000221c:	ff877713          	andi	a4,a4,-8
a0002220:	0007a603          	lw	a2,0(a5)
a0002224:	00112423          	sw	ra,8(sp)
a0002228:	00e68733          	add	a4,a3,a4
a000222c:	00e5a023          	sw	a4,0(a1)
a0002230:	04c76863          	bltu	a4,a2,a0002280 <bench_alloc+0x80>
a0002234:	0047a783          	lw	a5,4(a5)
a0002238:	04f77463          	bgeu	a4,a5,a0002280 <bench_alloc+0x80>
a000223c:	00068793          	mv	a5,a3
a0002240:	00d70e63          	beq	a4,a3,a000225c <bench_alloc+0x5c>
a0002244:	00000513          	li	a0,0
a0002248:	00000593          	li	a1,0
a000224c:	00a7a023          	sw	a0,0(a5)
a0002250:	00b7a223          	sw	a1,4(a5)
a0002254:	00878793          	addi	a5,a5,8
a0002258:	fef716e3          	bne	a4,a5,a0002244 <bench_alloc+0x44>
a000225c:	00ffe797          	auipc	a5,0xffe
a0002260:	4707a783          	lw	a5,1136(a5) # a10006cc <setting>
a0002264:	0047a783          	lw	a5,4(a5)
a0002268:	40c70733          	sub	a4,a4,a2
a000226c:	02e7ea63          	bltu	a5,a4,a00022a0 <bench_alloc+0xa0>
a0002270:	00812083          	lw	ra,8(sp)
a0002274:	00068513          	mv	a0,a3
a0002278:	00c10113          	addi	sp,sp,12
a000227c:	00008067          	ret
a0002280:	0a100613          	li	a2,161
a0002284:	00005597          	auipc	a1,0x5
a0002288:	0c858593          	addi	a1,a1,200 # a000734c <rodata_start+0x260>
a000228c:	00005517          	auipc	a0,0x5
a0002290:	eb050513          	addi	a0,a0,-336 # a000713c <rodata_start+0x50>
a0002294:	1c9030ef          	jal	a0005c5c <printf>
a0002298:	00100513          	li	a0,1
a000229c:	688030ef          	jal	a0005924 <halt>
a00022a0:	0a500613          	li	a2,165
a00022a4:	fe1ff06f          	j	a0002284 <bench_alloc+0x84>

a00022a8 <bench_srand>:
a00022a8:	01151513          	slli	a0,a0,0x11
a00022ac:	01155513          	srli	a0,a0,0x11
a00022b0:	00ffe797          	auipc	a5,0xffe
a00022b4:	38a7ac23          	sw	a0,920(a5) # a1000648 <seed>
a00022b8:	00008067          	ret

a00022bc <bench_rand>:
a00022bc:	00ffe717          	auipc	a4,0xffe
a00022c0:	38c70713          	addi	a4,a4,908 # a1000648 <seed>
a00022c4:	00072603          	lw	a2,0(a4)
a00022c8:	0026a6b7          	lui	a3,0x26a
a00022cc:	ec368693          	addi	a3,a3,-317 # 269ec3 <_STACK_SIZE+0x259ec3>
a00022d0:	00161793          	slli	a5,a2,0x1
a00022d4:	00c787b3          	add	a5,a5,a2
a00022d8:	00279793          	slli	a5,a5,0x2
a00022dc:	00c787b3          	add	a5,a5,a2
a00022e0:	00479793          	slli	a5,a5,0x4
a00022e4:	00c787b3          	add	a5,a5,a2
a00022e8:	00879793          	slli	a5,a5,0x8
a00022ec:	40c787b3          	sub	a5,a5,a2
a00022f0:	00279793          	slli	a5,a5,0x2
a00022f4:	00c787b3          	add	a5,a5,a2
a00022f8:	00d787b3          	add	a5,a5,a3
a00022fc:	00179513          	slli	a0,a5,0x1
a0002300:	00f72023          	sw	a5,0(a4)
a0002304:	01155513          	srli	a0,a0,0x11
a0002308:	00008067          	ret

a000230c <checksum>:
a000230c:	811ca7b7          	lui	a5,0x811ca
a0002310:	00450613          	addi	a2,a0,4
a0002314:	dc578793          	addi	a5,a5,-571 # 811c9dc5 <data_load_start+0x511c1e01>
a0002318:	0ab67463          	bgeu	a2,a1,a00023c0 <checksum+0xb4>
a000231c:	00050693          	mv	a3,a0
a0002320:	0006c703          	lbu	a4,0(a3)
a0002324:	00168693          	addi	a3,a3,1
a0002328:	00f74733          	xor	a4,a4,a5
a000232c:	00f71793          	slli	a5,a4,0xf
a0002330:	00e787b3          	add	a5,a5,a4
a0002334:	00279793          	slli	a5,a5,0x2
a0002338:	40e787b3          	sub	a5,a5,a4
a000233c:	00379793          	slli	a5,a5,0x3
a0002340:	00e787b3          	add	a5,a5,a4
a0002344:	00279793          	slli	a5,a5,0x2
a0002348:	00e787b3          	add	a5,a5,a4
a000234c:	00279793          	slli	a5,a5,0x2
a0002350:	40e787b3          	sub	a5,a5,a4
a0002354:	fcd616e3          	bne	a2,a3,a0002320 <checksum+0x14>
a0002358:	00460613          	addi	a2,a2,4
a000235c:	00450513          	addi	a0,a0,4
a0002360:	fab66ee3          	bltu	a2,a1,a000231c <checksum+0x10>
a0002364:	00571693          	slli	a3,a4,0x5
a0002368:	40e686b3          	sub	a3,a3,a4
a000236c:	00369693          	slli	a3,a3,0x3
a0002370:	00e686b3          	add	a3,a3,a4
a0002374:	00669793          	slli	a5,a3,0x6
a0002378:	40d787b3          	sub	a5,a5,a3
a000237c:	00279793          	slli	a5,a5,0x2
a0002380:	40e787b3          	sub	a5,a5,a4
a0002384:	00379793          	slli	a5,a5,0x3
a0002388:	40e787b3          	sub	a5,a5,a4
a000238c:	00379793          	slli	a5,a5,0x3
a0002390:	40e787b3          	sub	a5,a5,a4
a0002394:	00279713          	slli	a4,a5,0x2
a0002398:	00e787b3          	add	a5,a5,a4
a000239c:	4077d713          	srai	a4,a5,0x7
a00023a0:	00f747b3          	xor	a5,a4,a5
a00023a4:	00379713          	slli	a4,a5,0x3
a00023a8:	00f70733          	add	a4,a4,a5
a00023ac:	41175793          	srai	a5,a4,0x11
a00023b0:	00e7c7b3          	xor	a5,a5,a4
a00023b4:	00579513          	slli	a0,a5,0x5
a00023b8:	00f50533          	add	a0,a0,a5
a00023bc:	00008067          	ret
a00023c0:	a6f00537          	lui	a0,0xa6f00
a00023c4:	79e50513          	addi	a0,a0,1950 # a6f0079e <_end+0x2f0079e>
a00023c8:	00008067          	ret

a00023cc <bench_md5_prepare>:
a00023cc:	00ffe797          	auipc	a5,0xffe
a00023d0:	3007a783          	lw	a5,768(a5) # a10006cc <setting>
a00023d4:	0007a783          	lw	a5,0(a5)
a00023d8:	ff410113          	addi	sp,sp,-12
a00023dc:	00112423          	sw	ra,8(sp)
a00023e0:	00912023          	sw	s1,0(sp)
a00023e4:	00100513          	li	a0,1
a00023e8:	00ffe497          	auipc	s1,0xffe
a00023ec:	2f448493          	addi	s1,s1,756 # a10006dc <N>
a00023f0:	00f4a023          	sw	a5,0(s1)
a00023f4:	eb5ff0ef          	jal	a00022a8 <bench_srand>
a00023f8:	0004a503          	lw	a0,0(s1)
a00023fc:	e05ff0ef          	jal	a0002200 <bench_alloc>
a0002400:	0004a783          	lw	a5,0(s1)
a0002404:	00ffe697          	auipc	a3,0xffe
a0002408:	2d468693          	addi	a3,a3,724 # a10006d8 <str>
a000240c:	00a6a023          	sw	a0,0(a3)
a0002410:	02f05a63          	blez	a5,a0002444 <bench_md5_prepare+0x78>
a0002414:	00812223          	sw	s0,4(sp)
a0002418:	00000413          	li	s0,0
a000241c:	ea1ff0ef          	jal	a00022bc <bench_rand>
a0002420:	00ffe697          	auipc	a3,0xffe
a0002424:	2b868693          	addi	a3,a3,696 # a10006d8 <str>
a0002428:	0006a783          	lw	a5,0(a3)
a000242c:	0004a703          	lw	a4,0(s1)
a0002430:	008787b3          	add	a5,a5,s0
a0002434:	00a78023          	sb	a0,0(a5)
a0002438:	00140413          	addi	s0,s0,1
a000243c:	fee440e3          	blt	s0,a4,a000241c <bench_md5_prepare+0x50>
a0002440:	00412403          	lw	s0,4(sp)
a0002444:	01000513          	li	a0,16
a0002448:	db9ff0ef          	jal	a0002200 <bench_alloc>
a000244c:	00812083          	lw	ra,8(sp)
a0002450:	00ffe797          	auipc	a5,0xffe
a0002454:	28a7a223          	sw	a0,644(a5) # a10006d4 <digest>
a0002458:	00012483          	lw	s1,0(sp)
a000245c:	00c10113          	addi	sp,sp,12
a0002460:	00008067          	ret

a0002464 <bench_md5_run>:
a0002464:	00ffe617          	auipc	a2,0xffe
a0002468:	27862603          	lw	a2,632(a2) # a10006dc <N>
a000246c:	f8810113          	addi	sp,sp,-120
a0002470:	00160793          	addi	a5,a2,1
a0002474:	00ffe597          	auipc	a1,0xffe
a0002478:	2645a583          	lw	a1,612(a1) # a10006d8 <str>
a000247c:	00ffe517          	auipc	a0,0xffe
a0002480:	25852503          	lw	a0,600(a0) # a10006d4 <digest>
a0002484:	06912823          	sw	s1,112(sp)
a0002488:	02b12023          	sw	a1,32(sp)
a000248c:	06812a23          	sw	s0,116(sp)
a0002490:	03f7f693          	andi	a3,a5,63
a0002494:	03800713          	li	a4,56
a0002498:	02a12623          	sw	a0,44(sp)
a000249c:	00c585b3          	add	a1,a1,a2
a00024a0:	00078493          	mv	s1,a5
a00024a4:	32e68663          	beq	a3,a4,a00027d0 <bench_md5_run+0x36c>
a00024a8:	03800693          	li	a3,56
a00024ac:	00148493          	addi	s1,s1,1
a00024b0:	03f4f713          	andi	a4,s1,63
a00024b4:	fed71ce3          	bne	a4,a3,a00024ac <bench_md5_run+0x48>
a00024b8:	f8000713          	li	a4,-128
a00024bc:	00e58023          	sb	a4,0(a1)
a00024c0:	3097fc63          	bgeu	a5,s1,a00027d8 <bench_md5_run+0x374>
a00024c4:	02012703          	lw	a4,32(sp)
a00024c8:	00f707b3          	add	a5,a4,a5
a00024cc:	00970733          	add	a4,a4,s1
a00024d0:	00078023          	sb	zero,0(a5)
a00024d4:	00178793          	addi	a5,a5,1
a00024d8:	fef71ce3          	bne	a4,a5,a00024d0 <bench_md5_run+0x6c>
a00024dc:	00361693          	slli	a3,a2,0x3
a00024e0:	0086d313          	srli	t1,a3,0x8
a00024e4:	0106d513          	srli	a0,a3,0x10
a00024e8:	0186d593          	srli	a1,a3,0x18
a00024ec:	00d70023          	sb	a3,0(a4)
a00024f0:	006700a3          	sb	t1,1(a4)
a00024f4:	00a70123          	sb	a0,2(a4)
a00024f8:	00b701a3          	sb	a1,3(a4)
a00024fc:	02012703          	lw	a4,32(sp)
a0002500:	00448793          	addi	a5,s1,4
a0002504:	efcdb537          	lui	a0,0xefcdb
a0002508:	00f707b3          	add	a5,a4,a5
a000250c:	01d65613          	srli	a2,a2,0x1d
a0002510:	10325737          	lui	a4,0x10325
a0002514:	67452337          	lui	t1,0x67452
a0002518:	00c78023          	sb	a2,0(a5)
a000251c:	000780a3          	sb	zero,1(a5)
a0002520:	00078123          	sb	zero,2(a5)
a0002524:	000781a3          	sb	zero,3(a5)
a0002528:	47670793          	addi	a5,a4,1142 # 10325476 <_stack_pointer+0x1323476>
a000252c:	b8950713          	addi	a4,a0,-1143 # efcdab89 <_end+0x4bcdab89>
a0002530:	98bae6b7          	lui	a3,0x98bae
a0002534:	00e12623          	sw	a4,12(sp)
a0002538:	00000513          	li	a0,0
a000253c:	30130713          	addi	a4,t1,769 # 67452301 <data_load_start+0x3744a33d>
a0002540:	02912423          	sw	s1,40(sp)
a0002544:	cfe68593          	addi	a1,a3,-770 # 98badcfe <data_load_start+0x68ba5d3a>
a0002548:	00e12423          	sw	a4,8(sp)
a000254c:	02f00293          	li	t0,47
a0002550:	00078493          	mv	s1,a5
a0002554:	00050413          	mv	s0,a0
a0002558:	02012783          	lw	a5,32(sp)
a000255c:	03010713          	addi	a4,sp,48
a0002560:	008787b3          	add	a5,a5,s0
a0002564:	0017c503          	lbu	a0,1(a5)
a0002568:	0007c303          	lbu	t1,0(a5)
a000256c:	0027c603          	lbu	a2,2(a5)
a0002570:	0037c683          	lbu	a3,3(a5)
a0002574:	00851513          	slli	a0,a0,0x8
a0002578:	00656533          	or	a0,a0,t1
a000257c:	01061613          	slli	a2,a2,0x10
a0002580:	00a66633          	or	a2,a2,a0
a0002584:	01869693          	slli	a3,a3,0x18
a0002588:	00c6e6b3          	or	a3,a3,a2
a000258c:	00d72023          	sw	a3,0(a4)
a0002590:	00470713          	addi	a4,a4,4
a0002594:	07010693          	addi	a3,sp,112
a0002598:	00478793          	addi	a5,a5,4
a000259c:	fce694e3          	bne	a3,a4,a0002564 <bench_md5_run+0x100>
a00025a0:	00812783          	lw	a5,8(sp)
a00025a4:	00c12683          	lw	a3,12(sp)
a00025a8:	00048613          	mv	a2,s1
a00025ac:	00f12823          	sw	a5,16(sp)
a00025b0:	00500793          	li	a5,5
a00025b4:	00058713          	mv	a4,a1
a00025b8:	00100313          	li	t1,1
a00025bc:	00f12223          	sw	a5,4(sp)
a00025c0:	00000393          	li	t2,0
a00025c4:	00000513          	li	a0,0
a00025c8:	00912c23          	sw	s1,24(sp)
a00025cc:	00b12a23          	sw	a1,20(sp)
a00025d0:	00812e23          	sw	s0,28(sp)
a00025d4:	0a80006f          	j	a000267c <bench_md5_run+0x218>
a00025d8:	00e7c7b3          	xor	a5,a5,a4
a00025dc:	00f37413          	andi	s0,t1,15
a00025e0:	00251593          	slli	a1,a0,0x2
a00025e4:	00005497          	auipc	s1,0x5
a00025e8:	1c448493          	addi	s1,s1,452 # a00077a8 <k>
a00025ec:	00b484b3          	add	s1,s1,a1
a00025f0:	0004a483          	lw	s1,0(s1)
a00025f4:	00241413          	slli	s0,s0,0x2
a00025f8:	04040413          	addi	s0,s0,64
a00025fc:	00912023          	sw	s1,0(sp)
a0002600:	03010493          	addi	s1,sp,48
a0002604:	00940433          	add	s0,s0,s1
a0002608:	fc042403          	lw	s0,-64(s0)
a000260c:	00012483          	lw	s1,0(sp)
a0002610:	00150513          	addi	a0,a0,1
a0002614:	02812223          	sw	s0,36(sp)
a0002618:	00005417          	auipc	s0,0x5
a000261c:	09040413          	addi	s0,s0,144 # a00076a8 <r>
a0002620:	00b405b3          	add	a1,s0,a1
a0002624:	02412403          	lw	s0,36(sp)
a0002628:	009787b3          	add	a5,a5,s1
a000262c:	0005a583          	lw	a1,0(a1)
a0002630:	008787b3          	add	a5,a5,s0
a0002634:	01012403          	lw	s0,16(sp)
a0002638:	00c12823          	sw	a2,16(sp)
a000263c:	00738393          	addi	t2,t2,7
a0002640:	008787b3          	add	a5,a5,s0
a0002644:	40b00433          	neg	s0,a1
a0002648:	00b795b3          	sll	a1,a5,a1
a000264c:	0087d7b3          	srl	a5,a5,s0
a0002650:	00f5e5b3          	or	a1,a1,a5
a0002654:	00d587b3          	add	a5,a1,a3
a0002658:	00412583          	lw	a1,4(sp)
a000265c:	00530313          	addi	t1,t1,5
a0002660:	00358593          	addi	a1,a1,3
a0002664:	00b12223          	sw	a1,4(sp)
a0002668:	04000593          	li	a1,64
a000266c:	04b50a63          	beq	a0,a1,a00026c0 <bench_md5_run+0x25c>
a0002670:	00070613          	mv	a2,a4
a0002674:	00068713          	mv	a4,a3
a0002678:	00078693          	mv	a3,a5
a000267c:	00f00793          	li	a5,15
a0002680:	12a7fe63          	bgeu	a5,a0,a00027bc <bench_md5_run+0x358>
a0002684:	00e6c7b3          	xor	a5,a3,a4
a0002688:	01f00593          	li	a1,31
a000268c:	00c7f7b3          	and	a5,a5,a2
a0002690:	f4a5f4e3          	bgeu	a1,a0,a00025d8 <bench_md5_run+0x174>
a0002694:	00c6c7b3          	xor	a5,a3,a2
a0002698:	00a2ea63          	bltu	t0,a0,a00026ac <bench_md5_run+0x248>
a000269c:	00412583          	lw	a1,4(sp)
a00026a0:	00e7c7b3          	xor	a5,a5,a4
a00026a4:	00f5f413          	andi	s0,a1,15
a00026a8:	f39ff06f          	j	a00025e0 <bench_md5_run+0x17c>
a00026ac:	fff64793          	not	a5,a2
a00026b0:	00d7e7b3          	or	a5,a5,a3
a00026b4:	00e7c7b3          	xor	a5,a5,a4
a00026b8:	00f3f413          	andi	s0,t2,15
a00026bc:	f25ff06f          	j	a00025e0 <bench_md5_run+0x17c>
a00026c0:	00812503          	lw	a0,8(sp)
a00026c4:	01c12403          	lw	s0,28(sp)
a00026c8:	01412583          	lw	a1,20(sp)
a00026cc:	00c50633          	add	a2,a0,a2
a00026d0:	00c12423          	sw	a2,8(sp)
a00026d4:	00c12603          	lw	a2,12(sp)
a00026d8:	01812483          	lw	s1,24(sp)
a00026dc:	04040413          	addi	s0,s0,64
a00026e0:	00f607b3          	add	a5,a2,a5
a00026e4:	00f12623          	sw	a5,12(sp)
a00026e8:	02812783          	lw	a5,40(sp)
a00026ec:	00d585b3          	add	a1,a1,a3
a00026f0:	00e484b3          	add	s1,s1,a4
a00026f4:	e6f462e3          	bltu	s0,a5,a0002558 <bench_md5_run+0xf4>
a00026f8:	00812783          	lw	a5,8(sp)
a00026fc:	00c12683          	lw	a3,12(sp)
a0002700:	00048713          	mv	a4,s1
a0002704:	0107d413          	srli	s0,a5,0x10
a0002708:	0087d493          	srli	s1,a5,0x8
a000270c:	0187d393          	srli	t2,a5,0x18
a0002710:	00058793          	mv	a5,a1
a0002714:	00f12223          	sw	a5,4(sp)
a0002718:	0086d293          	srli	t0,a3,0x8
a000271c:	0106d313          	srli	t1,a3,0x10
a0002720:	0186d513          	srli	a0,a3,0x18
a0002724:	0107d613          	srli	a2,a5,0x10
a0002728:	0187d693          	srli	a3,a5,0x18
a000272c:	00875793          	srli	a5,a4,0x8
a0002730:	00f12a23          	sw	a5,20(sp)
a0002734:	01075793          	srli	a5,a4,0x10
a0002738:	00f12c23          	sw	a5,24(sp)
a000273c:	01875793          	srli	a5,a4,0x18
a0002740:	00e12823          	sw	a4,16(sp)
a0002744:	00f12e23          	sw	a5,28(sp)
a0002748:	00812703          	lw	a4,8(sp)
a000274c:	02c12783          	lw	a5,44(sp)
a0002750:	0085d593          	srli	a1,a1,0x8
a0002754:	00e78023          	sb	a4,0(a5)
a0002758:	00c12703          	lw	a4,12(sp)
a000275c:	00d785a3          	sb	a3,11(a5)
a0002760:	01412683          	lw	a3,20(sp)
a0002764:	00e78223          	sb	a4,4(a5)
a0002768:	00412703          	lw	a4,4(sp)
a000276c:	009780a3          	sb	s1,1(a5)
a0002770:	00878123          	sb	s0,2(a5)
a0002774:	00e78423          	sb	a4,8(a5)
a0002778:	01012703          	lw	a4,16(sp)
a000277c:	007781a3          	sb	t2,3(a5)
a0002780:	005782a3          	sb	t0,5(a5)
a0002784:	00e78623          	sb	a4,12(a5)
a0002788:	01812703          	lw	a4,24(sp)
a000278c:	00678323          	sb	t1,6(a5)
a0002790:	00a783a3          	sb	a0,7(a5)
a0002794:	00e78723          	sb	a4,14(a5)
a0002798:	01c12703          	lw	a4,28(sp)
a000279c:	00b784a3          	sb	a1,9(a5)
a00027a0:	00c78523          	sb	a2,10(a5)
a00027a4:	00d786a3          	sb	a3,13(a5)
a00027a8:	00e787a3          	sb	a4,15(a5)
a00027ac:	07412403          	lw	s0,116(sp)
a00027b0:	07012483          	lw	s1,112(sp)
a00027b4:	07810113          	addi	sp,sp,120
a00027b8:	00008067          	ret
a00027bc:	00e647b3          	xor	a5,a2,a4
a00027c0:	00d7f7b3          	and	a5,a5,a3
a00027c4:	00c7c7b3          	xor	a5,a5,a2
a00027c8:	00050413          	mv	s0,a0
a00027cc:	e15ff06f          	j	a00025e0 <bench_md5_run+0x17c>
a00027d0:	f8000793          	li	a5,-128
a00027d4:	00f58023          	sb	a5,0(a1)
a00027d8:	02012783          	lw	a5,32(sp)
a00027dc:	00978733          	add	a4,a5,s1
a00027e0:	cfdff06f          	j	a00024dc <bench_md5_run+0x78>

a00027e4 <bench_md5_validate>:
a00027e4:	00ffe517          	auipc	a0,0xffe
a00027e8:	ef052503          	lw	a0,-272(a0) # a10006d4 <digest>
a00027ec:	ff410113          	addi	sp,sp,-12
a00027f0:	01050593          	addi	a1,a0,16
a00027f4:	00112423          	sw	ra,8(sp)
a00027f8:	b15ff0ef          	jal	a000230c <checksum>
a00027fc:	00ffe797          	auipc	a5,0xffe
a0002800:	ed07a783          	lw	a5,-304(a5) # a10006cc <setting>
a0002804:	00c7a783          	lw	a5,12(a5)
a0002808:	00812083          	lw	ra,8(sp)
a000280c:	40a78533          	sub	a0,a5,a0
a0002810:	00153513          	seqz	a0,a0
a0002814:	00c10113          	addi	sp,sp,12
a0002818:	00008067          	ret

a000281c <_ZN5Dinic3DFSEii>:
a000281c:	00c52783          	lw	a5,12(a0)
a0002820:	f2810113          	addi	sp,sp,-216
a0002824:	0c112a23          	sw	ra,212(sp)
a0002828:	00f12c23          	sw	a5,24(sp)
a000282c:	14b780e3          	beq	a5,a1,a000316c <_ZN5Dinic3DFSEii+0x950>
a0002830:	02012623          	sw	zero,44(sp)
a0002834:	120604e3          	beqz	a2,a000315c <_ZN5Dinic3DFSEii+0x940>
a0002838:	02052703          	lw	a4,32(a0)
a000283c:	00259693          	slli	a3,a1,0x2
a0002840:	fff00793          	li	a5,-1
a0002844:	04e12023          	sw	a4,64(sp)
a0002848:	00d70733          	add	a4,a4,a3
a000284c:	00072303          	lw	t1,0(a4)
a0002850:	00050293          	mv	t0,a0
a0002854:	10f304e3          	beq	t1,a5,a000315c <_ZN5Dinic3DFSEii+0x940>
a0002858:	01c52783          	lw	a5,28(a0)
a000285c:	01052583          	lw	a1,16(a0)
a0002860:	0c812823          	sw	s0,208(sp)
a0002864:	00d78433          	add	s0,a5,a3
a0002868:	00040513          	mv	a0,s0
a000286c:	00f12023          	sw	a5,0(sp)
a0002870:	00b12623          	sw	a1,12(sp)
a0002874:	00060413          	mv	s0,a2
a0002878:	01c0006f          	j	a0002894 <_ZN5Dinic3DFSEii+0x78>
a000287c:	0182a783          	lw	a5,24(t0)
a0002880:	00231713          	slli	a4,t1,0x2
a0002884:	00e787b3          	add	a5,a5,a4
a0002888:	0007a303          	lw	t1,0(a5)
a000288c:	fff00793          	li	a5,-1
a0002890:	0cf304e3          	beq	t1,a5,a0003158 <_ZN5Dinic3DFSEii+0x93c>
a0002894:	00c12703          	lw	a4,12(sp)
a0002898:	00431793          	slli	a5,t1,0x4
a000289c:	00012603          	lw	a2,0(sp)
a00028a0:	00f703b3          	add	t2,a4,a5
a00028a4:	0043a703          	lw	a4,4(t2)
a00028a8:	00052683          	lw	a3,0(a0)
a00028ac:	00271793          	slli	a5,a4,0x2
a00028b0:	00f60633          	add	a2,a2,a5
a00028b4:	00c12223          	sw	a2,4(sp)
a00028b8:	00062603          	lw	a2,0(a2)
a00028bc:	00168693          	addi	a3,a3,1
a00028c0:	fac69ee3          	bne	a3,a2,a000287c <_ZN5Dinic3DFSEii+0x60>
a00028c4:	0083a583          	lw	a1,8(t2)
a00028c8:	00c3a683          	lw	a3,12(t2)
a00028cc:	40d586b3          	sub	a3,a1,a3
a00028d0:	02d12023          	sw	a3,32(sp)
a00028d4:	00d45463          	bge	s0,a3,a00028dc <_ZN5Dinic3DFSEii+0xc0>
a00028d8:	02812023          	sw	s0,32(sp)
a00028dc:	01812683          	lw	a3,24(sp)
a00028e0:	0ae684e3          	beq	a3,a4,a0003188 <_ZN5Dinic3DFSEii+0x96c>
a00028e4:	02012703          	lw	a4,32(sp)
a00028e8:	f8070ae3          	beqz	a4,a000287c <_ZN5Dinic3DFSEii+0x60>
a00028ec:	04012703          	lw	a4,64(sp)
a00028f0:	0c912623          	sw	s1,204(sp)
a00028f4:	00f707b3          	add	a5,a4,a5
a00028f8:	0007a483          	lw	s1,0(a5)
a00028fc:	fff00793          	li	a5,-1
a0002900:	0cf48ae3          	beq	s1,a5,a00031d4 <_ZN5Dinic3DFSEii+0x9b8>
a0002904:	06712a23          	sw	t2,116(sp)
a0002908:	06a12c23          	sw	a0,120(sp)
a000290c:	00030393          	mv	t2,t1
a0002910:	00412503          	lw	a0,4(sp)
a0002914:	00c12303          	lw	t1,12(sp)
a0002918:	04012623          	sw	zero,76(sp)
a000291c:	06812e23          	sw	s0,124(sp)
a0002920:	0200006f          	j	a0002940 <_ZN5Dinic3DFSEii+0x124>
a0002924:	0182a703          	lw	a4,24(t0)
a0002928:	00249793          	slli	a5,s1,0x2
a000292c:	00f70733          	add	a4,a4,a5
a0002930:	00072483          	lw	s1,0(a4)
a0002934:	fff00793          	li	a5,-1
a0002938:	7cf48463          	beq	s1,a5,a0003100 <_ZN5Dinic3DFSEii+0x8e4>
a000293c:	00052603          	lw	a2,0(a0)
a0002940:	00449793          	slli	a5,s1,0x4
a0002944:	00f30433          	add	s0,t1,a5
a0002948:	00442703          	lw	a4,4(s0)
a000294c:	00012683          	lw	a3,0(sp)
a0002950:	00160613          	addi	a2,a2,1
a0002954:	00271793          	slli	a5,a4,0x2
a0002958:	00f686b3          	add	a3,a3,a5
a000295c:	0006a583          	lw	a1,0(a3)
a0002960:	00d12823          	sw	a3,16(sp)
a0002964:	fcb610e3          	bne	a2,a1,a0002924 <_ZN5Dinic3DFSEii+0x108>
a0002968:	00842603          	lw	a2,8(s0)
a000296c:	00c42683          	lw	a3,12(s0)
a0002970:	40d606b3          	sub	a3,a2,a3
a0002974:	02012603          	lw	a2,32(sp)
a0002978:	02d12a23          	sw	a3,52(sp)
a000297c:	00d65463          	bge	a2,a3,a0002984 <_ZN5Dinic3DFSEii+0x168>
a0002980:	02c12a23          	sw	a2,52(sp)
a0002984:	01812683          	lw	a3,24(sp)
a0002988:	00e686e3          	beq	a3,a4,a0003194 <_ZN5Dinic3DFSEii+0x978>
a000298c:	03412703          	lw	a4,52(sp)
a0002990:	f8070ae3          	beqz	a4,a0002924 <_ZN5Dinic3DFSEii+0x108>
a0002994:	04012703          	lw	a4,64(sp)
a0002998:	00f707b3          	add	a5,a4,a5
a000299c:	0007a683          	lw	a3,0(a5)
a00029a0:	fff00793          	li	a5,-1
a00029a4:	f8f680e3          	beq	a3,a5,a0002924 <_ZN5Dinic3DFSEii+0x108>
a00029a8:	08912223          	sw	s1,132(sp)
a00029ac:	00d12223          	sw	a3,4(sp)
a00029b0:	00040493          	mv	s1,s0
a00029b4:	00030613          	mv	a2,t1
a00029b8:	04012e23          	sw	zero,92(sp)
a00029bc:	00028313          	mv	t1,t0
a00029c0:	00050413          	mv	s0,a0
a00029c4:	00012283          	lw	t0,0(sp)
a00029c8:	00058693          	mv	a3,a1
a00029cc:	02c0006f          	j	a00029f8 <_ZN5Dinic3DFSEii+0x1dc>
a00029d0:	00412783          	lw	a5,4(sp)
a00029d4:	01832703          	lw	a4,24(t1)
a00029d8:	00279793          	slli	a5,a5,0x2
a00029dc:	00f70733          	add	a4,a4,a5
a00029e0:	00072783          	lw	a5,0(a4)
a00029e4:	fff00713          	li	a4,-1
a00029e8:	00f12223          	sw	a5,4(sp)
a00029ec:	6ae78c63          	beq	a5,a4,a00030a4 <_ZN5Dinic3DFSEii+0x888>
a00029f0:	01012783          	lw	a5,16(sp)
a00029f4:	0007a683          	lw	a3,0(a5)
a00029f8:	00412783          	lw	a5,4(sp)
a00029fc:	00168693          	addi	a3,a3,1
a0002a00:	00479793          	slli	a5,a5,0x4
a0002a04:	00f607b3          	add	a5,a2,a5
a0002a08:	0047a703          	lw	a4,4(a5)
a0002a0c:	02f12223          	sw	a5,36(sp)
a0002a10:	00271793          	slli	a5,a4,0x2
a0002a14:	00f285b3          	add	a1,t0,a5
a0002a18:	00b12e23          	sw	a1,28(sp)
a0002a1c:	0005a583          	lw	a1,0(a1)
a0002a20:	fab698e3          	bne	a3,a1,a00029d0 <_ZN5Dinic3DFSEii+0x1b4>
a0002a24:	02412683          	lw	a3,36(sp)
a0002a28:	0086a503          	lw	a0,8(a3)
a0002a2c:	00c6a683          	lw	a3,12(a3)
a0002a30:	40d506b3          	sub	a3,a0,a3
a0002a34:	03412503          	lw	a0,52(sp)
a0002a38:	04d12223          	sw	a3,68(sp)
a0002a3c:	00d55463          	bge	a0,a3,a0002a44 <_ZN5Dinic3DFSEii+0x228>
a0002a40:	04a12223          	sw	a0,68(sp)
a0002a44:	01812683          	lw	a3,24(sp)
a0002a48:	74e68c63          	beq	a3,a4,a00031a0 <_ZN5Dinic3DFSEii+0x984>
a0002a4c:	04412703          	lw	a4,68(sp)
a0002a50:	f80700e3          	beqz	a4,a00029d0 <_ZN5Dinic3DFSEii+0x1b4>
a0002a54:	04012703          	lw	a4,64(sp)
a0002a58:	00f707b3          	add	a5,a4,a5
a0002a5c:	0007a683          	lw	a3,0(a5)
a0002a60:	fff00793          	li	a5,-1
a0002a64:	f6f686e3          	beq	a3,a5,a00029d0 <_ZN5Dinic3DFSEii+0x1b4>
a0002a68:	00d12423          	sw	a3,8(sp)
a0002a6c:	06012223          	sw	zero,100(sp)
a0002a70:	00058693          	mv	a3,a1
a0002a74:	02c0006f          	j	a0002aa0 <_ZN5Dinic3DFSEii+0x284>
a0002a78:	00812703          	lw	a4,8(sp)
a0002a7c:	01832783          	lw	a5,24(t1)
a0002a80:	00271713          	slli	a4,a4,0x2
a0002a84:	00e787b3          	add	a5,a5,a4
a0002a88:	0007a783          	lw	a5,0(a5)
a0002a8c:	fff00713          	li	a4,-1
a0002a90:	00f12423          	sw	a5,8(sp)
a0002a94:	5ce78063          	beq	a5,a4,a0003054 <_ZN5Dinic3DFSEii+0x838>
a0002a98:	01c12783          	lw	a5,28(sp)
a0002a9c:	0007a683          	lw	a3,0(a5)
a0002aa0:	00812783          	lw	a5,8(sp)
a0002aa4:	00168693          	addi	a3,a3,1
a0002aa8:	00479793          	slli	a5,a5,0x4
a0002aac:	00f607b3          	add	a5,a2,a5
a0002ab0:	0047a703          	lw	a4,4(a5)
a0002ab4:	02f12c23          	sw	a5,56(sp)
a0002ab8:	00271793          	slli	a5,a4,0x2
a0002abc:	00f285b3          	add	a1,t0,a5
a0002ac0:	02b12423          	sw	a1,40(sp)
a0002ac4:	0005a583          	lw	a1,0(a1)
a0002ac8:	fab698e3          	bne	a3,a1,a0002a78 <_ZN5Dinic3DFSEii+0x25c>
a0002acc:	03812683          	lw	a3,56(sp)
a0002ad0:	0086a503          	lw	a0,8(a3)
a0002ad4:	00c6a683          	lw	a3,12(a3)
a0002ad8:	40d506b3          	sub	a3,a0,a3
a0002adc:	04412503          	lw	a0,68(sp)
a0002ae0:	00d12a23          	sw	a3,20(sp)
a0002ae4:	68d54e63          	blt	a0,a3,a0003180 <_ZN5Dinic3DFSEii+0x964>
a0002ae8:	01812683          	lw	a3,24(sp)
a0002aec:	6ce68063          	beq	a3,a4,a00031ac <_ZN5Dinic3DFSEii+0x990>
a0002af0:	01412703          	lw	a4,20(sp)
a0002af4:	f80702e3          	beqz	a4,a0002a78 <_ZN5Dinic3DFSEii+0x25c>
a0002af8:	04012683          	lw	a3,64(sp)
a0002afc:	00f687b3          	add	a5,a3,a5
a0002b00:	0007a683          	lw	a3,0(a5)
a0002b04:	fff00793          	li	a5,-1
a0002b08:	f6f688e3          	beq	a3,a5,a0002a78 <_ZN5Dinic3DFSEii+0x25c>
a0002b0c:	08712823          	sw	t2,144(sp)
a0002b10:	08912a23          	sw	s1,148(sp)
a0002b14:	00d12a23          	sw	a3,20(sp)
a0002b18:	06012823          	sw	zero,112(sp)
a0002b1c:	00060693          	mv	a3,a2
a0002b20:	00040493          	mv	s1,s0
a0002b24:	00028613          	mv	a2,t0
a0002b28:	00070393          	mv	t2,a4
a0002b2c:	00030293          	mv	t0,t1
a0002b30:	02c0006f          	j	a0002b5c <_ZN5Dinic3DFSEii+0x340>
a0002b34:	01412703          	lw	a4,20(sp)
a0002b38:	0182a783          	lw	a5,24(t0)
a0002b3c:	00271713          	slli	a4,a4,0x2
a0002b40:	00e787b3          	add	a5,a5,a4
a0002b44:	0007a783          	lw	a5,0(a5)
a0002b48:	fff00713          	li	a4,-1
a0002b4c:	00f12a23          	sw	a5,20(sp)
a0002b50:	48e78e63          	beq	a5,a4,a0002fec <_ZN5Dinic3DFSEii+0x7d0>
a0002b54:	02812783          	lw	a5,40(sp)
a0002b58:	0007a583          	lw	a1,0(a5)
a0002b5c:	01412783          	lw	a5,20(sp)
a0002b60:	00158593          	addi	a1,a1,1
a0002b64:	00479793          	slli	a5,a5,0x4
a0002b68:	00f687b3          	add	a5,a3,a5
a0002b6c:	0047a703          	lw	a4,4(a5)
a0002b70:	04f12423          	sw	a5,72(sp)
a0002b74:	00271793          	slli	a5,a4,0x2
a0002b78:	00f60533          	add	a0,a2,a5
a0002b7c:	02a12e23          	sw	a0,60(sp)
a0002b80:	00052503          	lw	a0,0(a0)
a0002b84:	faa598e3          	bne	a1,a0,a0002b34 <_ZN5Dinic3DFSEii+0x318>
a0002b88:	04812583          	lw	a1,72(sp)
a0002b8c:	0085a303          	lw	t1,8(a1)
a0002b90:	00c5a583          	lw	a1,12(a1)
a0002b94:	40b305b3          	sub	a1,t1,a1
a0002b98:	06b12023          	sw	a1,96(sp)
a0002b9c:	00b3d463          	bge	t2,a1,a0002ba4 <_ZN5Dinic3DFSEii+0x388>
a0002ba0:	06712023          	sw	t2,96(sp)
a0002ba4:	01812583          	lw	a1,24(sp)
a0002ba8:	60e58863          	beq	a1,a4,a00031b8 <_ZN5Dinic3DFSEii+0x99c>
a0002bac:	06012703          	lw	a4,96(sp)
a0002bb0:	f80702e3          	beqz	a4,a0002b34 <_ZN5Dinic3DFSEii+0x318>
a0002bb4:	04012703          	lw	a4,64(sp)
a0002bb8:	00f707b3          	add	a5,a4,a5
a0002bbc:	0007a703          	lw	a4,0(a5)
a0002bc0:	fff00793          	li	a5,-1
a0002bc4:	f6f708e3          	beq	a4,a5,a0002b34 <_ZN5Dinic3DFSEii+0x318>
a0002bc8:	00000313          	li	t1,0
a0002bcc:	00048413          	mv	s0,s1
a0002bd0:	08712e23          	sw	t2,156(sp)
a0002bd4:	04c12823          	sw	a2,80(sp)
a0002bd8:	00030393          	mv	t2,t1
a0002bdc:	00068613          	mv	a2,a3
a0002be0:	00070493          	mv	s1,a4
a0002be4:	00050693          	mv	a3,a0
a0002be8:	00028313          	mv	t1,t0
a0002bec:	0240006f          	j	a0002c10 <_ZN5Dinic3DFSEii+0x3f4>
a0002bf0:	01832783          	lw	a5,24(t1)
a0002bf4:	00249713          	slli	a4,s1,0x2
a0002bf8:	00e787b3          	add	a5,a5,a4
a0002bfc:	0007a483          	lw	s1,0(a5)
a0002c00:	fff00793          	li	a5,-1
a0002c04:	38f48663          	beq	s1,a5,a0002f90 <_ZN5Dinic3DFSEii+0x774>
a0002c08:	03c12783          	lw	a5,60(sp)
a0002c0c:	0007a683          	lw	a3,0(a5)
a0002c10:	00449793          	slli	a5,s1,0x4
a0002c14:	00f607b3          	add	a5,a2,a5
a0002c18:	0047a703          	lw	a4,4(a5)
a0002c1c:	05012583          	lw	a1,80(sp)
a0002c20:	04f12a23          	sw	a5,84(sp)
a0002c24:	00271793          	slli	a5,a4,0x2
a0002c28:	00f582b3          	add	t0,a1,a5
a0002c2c:	0002a503          	lw	a0,0(t0)
a0002c30:	00168693          	addi	a3,a3,1
a0002c34:	faa69ee3          	bne	a3,a0,a0002bf0 <_ZN5Dinic3DFSEii+0x3d4>
a0002c38:	05412683          	lw	a3,84(sp)
a0002c3c:	0086a583          	lw	a1,8(a3)
a0002c40:	00c6a683          	lw	a3,12(a3)
a0002c44:	40d586b3          	sub	a3,a1,a3
a0002c48:	06012583          	lw	a1,96(sp)
a0002c4c:	06d12423          	sw	a3,104(sp)
a0002c50:	00d5d463          	bge	a1,a3,a0002c58 <_ZN5Dinic3DFSEii+0x43c>
a0002c54:	06b12423          	sw	a1,104(sp)
a0002c58:	01812683          	lw	a3,24(sp)
a0002c5c:	56e68663          	beq	a3,a4,a00031c8 <_ZN5Dinic3DFSEii+0x9ac>
a0002c60:	06812703          	lw	a4,104(sp)
a0002c64:	f80706e3          	beqz	a4,a0002bf0 <_ZN5Dinic3DFSEii+0x3d4>
a0002c68:	04012703          	lw	a4,64(sp)
a0002c6c:	00f707b3          	add	a5,a4,a5
a0002c70:	0007a783          	lw	a5,0(a5)
a0002c74:	00078713          	mv	a4,a5
a0002c78:	02f12823          	sw	a5,48(sp)
a0002c7c:	fff00793          	li	a5,-1
a0002c80:	f6f708e3          	beq	a4,a5,a0002bf0 <_ZN5Dinic3DFSEii+0x3d4>
a0002c84:	06512623          	sw	t0,108(sp)
a0002c88:	0a712223          	sw	t2,164(sp)
a0002c8c:	05012283          	lw	t0,80(sp)
a0002c90:	00060393          	mv	t2,a2
a0002c94:	08012423          	sw	zero,136(sp)
a0002c98:	0a912023          	sw	s1,160(sp)
a0002c9c:	00050613          	mv	a2,a0
a0002ca0:	02c0006f          	j	a0002ccc <_ZN5Dinic3DFSEii+0x4b0>
a0002ca4:	03012703          	lw	a4,48(sp)
a0002ca8:	01832783          	lw	a5,24(t1)
a0002cac:	00271713          	slli	a4,a4,0x2
a0002cb0:	00e787b3          	add	a5,a5,a4
a0002cb4:	0007a783          	lw	a5,0(a5)
a0002cb8:	fff00713          	li	a4,-1
a0002cbc:	02f12823          	sw	a5,48(sp)
a0002cc0:	28e78063          	beq	a5,a4,a0002f40 <_ZN5Dinic3DFSEii+0x724>
a0002cc4:	06c12783          	lw	a5,108(sp)
a0002cc8:	0007a603          	lw	a2,0(a5)
a0002ccc:	03012783          	lw	a5,48(sp)
a0002cd0:	00160613          	addi	a2,a2,1
a0002cd4:	00479793          	slli	a5,a5,0x4
a0002cd8:	00f384b3          	add	s1,t2,a5
a0002cdc:	0044a683          	lw	a3,4(s1)
a0002ce0:	00269793          	slli	a5,a3,0x2
a0002ce4:	00f28733          	add	a4,t0,a5
a0002ce8:	04e12c23          	sw	a4,88(sp)
a0002cec:	00072703          	lw	a4,0(a4)
a0002cf0:	fae61ae3          	bne	a2,a4,a0002ca4 <_ZN5Dinic3DFSEii+0x488>
a0002cf4:	0084a583          	lw	a1,8(s1)
a0002cf8:	00c4a603          	lw	a2,12(s1)
a0002cfc:	40c58633          	sub	a2,a1,a2
a0002d00:	06812583          	lw	a1,104(sp)
a0002d04:	08c12023          	sw	a2,128(sp)
a0002d08:	00c5d463          	bge	a1,a2,a0002d10 <_ZN5Dinic3DFSEii+0x4f4>
a0002d0c:	08b12023          	sw	a1,128(sp)
a0002d10:	01812603          	lw	a2,24(sp)
a0002d14:	4cd60463          	beq	a2,a3,a00031dc <_ZN5Dinic3DFSEii+0x9c0>
a0002d18:	08012683          	lw	a3,128(sp)
a0002d1c:	f80684e3          	beqz	a3,a0002ca4 <_ZN5Dinic3DFSEii+0x488>
a0002d20:	04012683          	lw	a3,64(sp)
a0002d24:	00f687b3          	add	a5,a3,a5
a0002d28:	0007a583          	lw	a1,0(a5)
a0002d2c:	fff00793          	li	a5,-1
a0002d30:	f6f58ae3          	beq	a1,a5,a0002ca4 <_ZN5Dinic3DFSEii+0x488>
a0002d34:	0c912023          	sw	s1,192(sp)
a0002d38:	08012623          	sw	zero,140(sp)
a0002d3c:	0a812e23          	sw	s0,188(sp)
a0002d40:	00058493          	mv	s1,a1
a0002d44:	0240006f          	j	a0002d68 <_ZN5Dinic3DFSEii+0x54c>
a0002d48:	01832783          	lw	a5,24(t1)
a0002d4c:	00249493          	slli	s1,s1,0x2
a0002d50:	009787b3          	add	a5,a5,s1
a0002d54:	0007a483          	lw	s1,0(a5)
a0002d58:	fff00793          	li	a5,-1
a0002d5c:	18f48863          	beq	s1,a5,a0002eec <_ZN5Dinic3DFSEii+0x6d0>
a0002d60:	05812783          	lw	a5,88(sp)
a0002d64:	0007a703          	lw	a4,0(a5)
a0002d68:	00449793          	slli	a5,s1,0x4
a0002d6c:	00f387b3          	add	a5,t2,a5
a0002d70:	0047a583          	lw	a1,4(a5)
a0002d74:	00170513          	addi	a0,a4,1
a0002d78:	00259613          	slli	a2,a1,0x2
a0002d7c:	00c28733          	add	a4,t0,a2
a0002d80:	00072683          	lw	a3,0(a4)
a0002d84:	fcd512e3          	bne	a0,a3,a0002d48 <_ZN5Dinic3DFSEii+0x52c>
a0002d88:	0087a403          	lw	s0,8(a5)
a0002d8c:	00c7a503          	lw	a0,12(a5)
a0002d90:	40a40533          	sub	a0,s0,a0
a0002d94:	08012403          	lw	s0,128(sp)
a0002d98:	08a12c23          	sw	a0,152(sp)
a0002d9c:	00a45463          	bge	s0,a0,a0002da4 <_ZN5Dinic3DFSEii+0x588>
a0002da0:	08812c23          	sw	s0,152(sp)
a0002da4:	01812503          	lw	a0,24(sp)
a0002da8:	0eb50c63          	beq	a0,a1,a0002ea0 <_ZN5Dinic3DFSEii+0x684>
a0002dac:	09812583          	lw	a1,152(sp)
a0002db0:	f8058ce3          	beqz	a1,a0002d48 <_ZN5Dinic3DFSEii+0x52c>
a0002db4:	04012503          	lw	a0,64(sp)
a0002db8:	00c50633          	add	a2,a0,a2
a0002dbc:	00062403          	lw	s0,0(a2)
a0002dc0:	fff00613          	li	a2,-1
a0002dc4:	f8c402e3          	beq	s0,a2,a0002d48 <_ZN5Dinic3DFSEii+0x52c>
a0002dc8:	0c912423          	sw	s1,200(sp)
a0002dcc:	08012c23          	sw	zero,152(sp)
a0002dd0:	0cf12223          	sw	a5,196(sp)
a0002dd4:	00058493          	mv	s1,a1
a0002dd8:	00068513          	mv	a0,a3
a0002ddc:	0200006f          	j	a0002dfc <_ZN5Dinic3DFSEii+0x5e0>
a0002de0:	01832783          	lw	a5,24(t1)
a0002de4:	00241413          	slli	s0,s0,0x2
a0002de8:	008787b3          	add	a5,a5,s0
a0002dec:	0007a403          	lw	s0,0(a5)
a0002df0:	fff00793          	li	a5,-1
a0002df4:	0af40263          	beq	s0,a5,a0002e98 <_ZN5Dinic3DFSEii+0x67c>
a0002df8:	00072503          	lw	a0,0(a4)
a0002dfc:	00441793          	slli	a5,s0,0x4
a0002e00:	00f387b3          	add	a5,t2,a5
a0002e04:	0047a583          	lw	a1,4(a5)
a0002e08:	00150513          	addi	a0,a0,1
a0002e0c:	00259613          	slli	a2,a1,0x2
a0002e10:	00c28633          	add	a2,t0,a2
a0002e14:	00062603          	lw	a2,0(a2)
a0002e18:	fcc514e3          	bne	a0,a2,a0002de0 <_ZN5Dinic3DFSEii+0x5c4>
a0002e1c:	0087a603          	lw	a2,8(a5)
a0002e20:	00c7a083          	lw	ra,12(a5)
a0002e24:	00030513          	mv	a0,t1
a0002e28:	40160633          	sub	a2,a2,ra
a0002e2c:	38c4ca63          	blt	s1,a2,a00031c0 <_ZN5Dinic3DFSEii+0x9a4>
a0002e30:	0a612a23          	sw	t1,180(sp)
a0002e34:	0a512823          	sw	t0,176(sp)
a0002e38:	0a712623          	sw	t2,172(sp)
a0002e3c:	0ae12423          	sw	a4,168(sp)
a0002e40:	0af12c23          	sw	a5,184(sp)
a0002e44:	9d9ff0ef          	jal	a000281c <_ZN5Dinic3DFSEii>
a0002e48:	0ac12383          	lw	t2,172(sp)
a0002e4c:	00144613          	xori	a2,s0,1
a0002e50:	00461613          	slli	a2,a2,0x4
a0002e54:	0a812703          	lw	a4,168(sp)
a0002e58:	0b012283          	lw	t0,176(sp)
a0002e5c:	0b412303          	lw	t1,180(sp)
a0002e60:	00c38633          	add	a2,t2,a2
a0002e64:	f6a05ee3          	blez	a0,a0002de0 <_ZN5Dinic3DFSEii+0x5c4>
a0002e68:	0b812783          	lw	a5,184(sp)
a0002e6c:	09812683          	lw	a3,152(sp)
a0002e70:	40a484b3          	sub	s1,s1,a0
a0002e74:	00c7a583          	lw	a1,12(a5)
a0002e78:	00a686b3          	add	a3,a3,a0
a0002e7c:	08d12c23          	sw	a3,152(sp)
a0002e80:	00a585b3          	add	a1,a1,a0
a0002e84:	00b7a623          	sw	a1,12(a5)
a0002e88:	00c62783          	lw	a5,12(a2)
a0002e8c:	40a787b3          	sub	a5,a5,a0
a0002e90:	00f62623          	sw	a5,12(a2)
a0002e94:	f40496e3          	bnez	s1,a0002de0 <_ZN5Dinic3DFSEii+0x5c4>
a0002e98:	0c412783          	lw	a5,196(sp)
a0002e9c:	0c812483          	lw	s1,200(sp)
a0002ea0:	09812603          	lw	a2,152(sp)
a0002ea4:	eac052e3          	blez	a2,a0002d48 <_ZN5Dinic3DFSEii+0x52c>
a0002ea8:	00c7a683          	lw	a3,12(a5)
a0002eac:	08012583          	lw	a1,128(sp)
a0002eb0:	0014c713          	xori	a4,s1,1
a0002eb4:	00c686b3          	add	a3,a3,a2
a0002eb8:	00471713          	slli	a4,a4,0x4
a0002ebc:	00d7a623          	sw	a3,12(a5)
a0002ec0:	00e38733          	add	a4,t2,a4
a0002ec4:	00060693          	mv	a3,a2
a0002ec8:	00c72783          	lw	a5,12(a4)
a0002ecc:	40c58633          	sub	a2,a1,a2
a0002ed0:	08c12583          	lw	a1,140(sp)
a0002ed4:	40d787b3          	sub	a5,a5,a3
a0002ed8:	08c12023          	sw	a2,128(sp)
a0002edc:	00d585b3          	add	a1,a1,a3
a0002ee0:	08b12623          	sw	a1,140(sp)
a0002ee4:	00f72623          	sw	a5,12(a4)
a0002ee8:	e60610e3          	bnez	a2,a0002d48 <_ZN5Dinic3DFSEii+0x52c>
a0002eec:	0bc12403          	lw	s0,188(sp)
a0002ef0:	0c012483          	lw	s1,192(sp)
a0002ef4:	08c12683          	lw	a3,140(sp)
a0002ef8:	dad056e3          	blez	a3,a0002ca4 <_ZN5Dinic3DFSEii+0x488>
a0002efc:	03012783          	lw	a5,48(sp)
a0002f00:	00c4a703          	lw	a4,12(s1)
a0002f04:	06812603          	lw	a2,104(sp)
a0002f08:	0017c793          	xori	a5,a5,1
a0002f0c:	00d70733          	add	a4,a4,a3
a0002f10:	00479793          	slli	a5,a5,0x4
a0002f14:	00e4a623          	sw	a4,12(s1)
a0002f18:	00f387b3          	add	a5,t2,a5
a0002f1c:	00c7a703          	lw	a4,12(a5)
a0002f20:	08812583          	lw	a1,136(sp)
a0002f24:	40d60633          	sub	a2,a2,a3
a0002f28:	40d70733          	sub	a4,a4,a3
a0002f2c:	00d585b3          	add	a1,a1,a3
a0002f30:	06c12423          	sw	a2,104(sp)
a0002f34:	08b12423          	sw	a1,136(sp)
a0002f38:	00e7a623          	sw	a4,12(a5)
a0002f3c:	d60614e3          	bnez	a2,a0002ca4 <_ZN5Dinic3DFSEii+0x488>
a0002f40:	00038613          	mv	a2,t2
a0002f44:	0a012483          	lw	s1,160(sp)
a0002f48:	0a412383          	lw	t2,164(sp)
a0002f4c:	08812683          	lw	a3,136(sp)
a0002f50:	cad050e3          	blez	a3,a0002bf0 <_ZN5Dinic3DFSEii+0x3d4>
a0002f54:	05412583          	lw	a1,84(sp)
a0002f58:	0014c793          	xori	a5,s1,1
a0002f5c:	00479793          	slli	a5,a5,0x4
a0002f60:	00c5a703          	lw	a4,12(a1)
a0002f64:	00f607b3          	add	a5,a2,a5
a0002f68:	00d383b3          	add	t2,t2,a3
a0002f6c:	00d70733          	add	a4,a4,a3
a0002f70:	00e5a623          	sw	a4,12(a1)
a0002f74:	00c7a703          	lw	a4,12(a5)
a0002f78:	06012583          	lw	a1,96(sp)
a0002f7c:	40d70733          	sub	a4,a4,a3
a0002f80:	40d585b3          	sub	a1,a1,a3
a0002f84:	06b12023          	sw	a1,96(sp)
a0002f88:	00e7a623          	sw	a4,12(a5)
a0002f8c:	c60592e3          	bnez	a1,a0002bf0 <_ZN5Dinic3DFSEii+0x3d4>
a0002f90:	00060693          	mv	a3,a2
a0002f94:	00030293          	mv	t0,t1
a0002f98:	05012603          	lw	a2,80(sp)
a0002f9c:	00038313          	mv	t1,t2
a0002fa0:	09c12383          	lw	t2,156(sp)
a0002fa4:	00040493          	mv	s1,s0
a0002fa8:	b86056e3          	blez	t1,a0002b34 <_ZN5Dinic3DFSEii+0x318>
a0002fac:	04812583          	lw	a1,72(sp)
a0002fb0:	01412783          	lw	a5,20(sp)
a0002fb4:	406383b3          	sub	t2,t2,t1
a0002fb8:	00c5a703          	lw	a4,12(a1)
a0002fbc:	0017c793          	xori	a5,a5,1
a0002fc0:	00479793          	slli	a5,a5,0x4
a0002fc4:	00670733          	add	a4,a4,t1
a0002fc8:	00e5a623          	sw	a4,12(a1)
a0002fcc:	00f687b3          	add	a5,a3,a5
a0002fd0:	00c7a703          	lw	a4,12(a5)
a0002fd4:	07012583          	lw	a1,112(sp)
a0002fd8:	40670733          	sub	a4,a4,t1
a0002fdc:	006585b3          	add	a1,a1,t1
a0002fe0:	06b12823          	sw	a1,112(sp)
a0002fe4:	00e7a623          	sw	a4,12(a5)
a0002fe8:	b40396e3          	bnez	t2,a0002b34 <_ZN5Dinic3DFSEii+0x318>
a0002fec:	00048413          	mv	s0,s1
a0002ff0:	09012383          	lw	t2,144(sp)
a0002ff4:	09412483          	lw	s1,148(sp)
a0002ff8:	00028313          	mv	t1,t0
a0002ffc:	00060293          	mv	t0,a2
a0003000:	00068613          	mv	a2,a3
a0003004:	07012683          	lw	a3,112(sp)
a0003008:	a6d058e3          	blez	a3,a0002a78 <_ZN5Dinic3DFSEii+0x25c>
a000300c:	03812583          	lw	a1,56(sp)
a0003010:	00812783          	lw	a5,8(sp)
a0003014:	06412503          	lw	a0,100(sp)
a0003018:	00c5a703          	lw	a4,12(a1)
a000301c:	0017c793          	xori	a5,a5,1
a0003020:	00479793          	slli	a5,a5,0x4
a0003024:	00d70733          	add	a4,a4,a3
a0003028:	00e5a623          	sw	a4,12(a1)
a000302c:	00f607b3          	add	a5,a2,a5
a0003030:	00c7a703          	lw	a4,12(a5)
a0003034:	04412583          	lw	a1,68(sp)
a0003038:	00d50533          	add	a0,a0,a3
a000303c:	40d70733          	sub	a4,a4,a3
a0003040:	40d585b3          	sub	a1,a1,a3
a0003044:	04b12223          	sw	a1,68(sp)
a0003048:	06a12223          	sw	a0,100(sp)
a000304c:	00e7a623          	sw	a4,12(a5)
a0003050:	a20594e3          	bnez	a1,a0002a78 <_ZN5Dinic3DFSEii+0x25c>
a0003054:	06412683          	lw	a3,100(sp)
a0003058:	96d05ce3          	blez	a3,a00029d0 <_ZN5Dinic3DFSEii+0x1b4>
a000305c:	02412583          	lw	a1,36(sp)
a0003060:	00412783          	lw	a5,4(sp)
a0003064:	05c12503          	lw	a0,92(sp)
a0003068:	00c5a703          	lw	a4,12(a1)
a000306c:	0017c793          	xori	a5,a5,1
a0003070:	00479793          	slli	a5,a5,0x4
a0003074:	00d70733          	add	a4,a4,a3
a0003078:	00e5a623          	sw	a4,12(a1)
a000307c:	00f607b3          	add	a5,a2,a5
a0003080:	00c7a703          	lw	a4,12(a5)
a0003084:	03412583          	lw	a1,52(sp)
a0003088:	00d50533          	add	a0,a0,a3
a000308c:	40d70733          	sub	a4,a4,a3
a0003090:	40d585b3          	sub	a1,a1,a3
a0003094:	02b12a23          	sw	a1,52(sp)
a0003098:	04a12e23          	sw	a0,92(sp)
a000309c:	00e7a623          	sw	a4,12(a5)
a00030a0:	920598e3          	bnez	a1,a00029d0 <_ZN5Dinic3DFSEii+0x1b4>
a00030a4:	00040513          	mv	a0,s0
a00030a8:	00048413          	mv	s0,s1
a00030ac:	08412483          	lw	s1,132(sp)
a00030b0:	00030293          	mv	t0,t1
a00030b4:	00060313          	mv	t1,a2
a00030b8:	05c12683          	lw	a3,92(sp)
a00030bc:	86d054e3          	blez	a3,a0002924 <_ZN5Dinic3DFSEii+0x108>
a00030c0:	00c42703          	lw	a4,12(s0)
a00030c4:	0014c793          	xori	a5,s1,1
a00030c8:	00479793          	slli	a5,a5,0x4
a00030cc:	00d70733          	add	a4,a4,a3
a00030d0:	00e42623          	sw	a4,12(s0)
a00030d4:	00f307b3          	add	a5,t1,a5
a00030d8:	00c7a703          	lw	a4,12(a5)
a00030dc:	02012603          	lw	a2,32(sp)
a00030e0:	04c12583          	lw	a1,76(sp)
a00030e4:	40d70733          	sub	a4,a4,a3
a00030e8:	40d60633          	sub	a2,a2,a3
a00030ec:	00d585b3          	add	a1,a1,a3
a00030f0:	02c12023          	sw	a2,32(sp)
a00030f4:	04b12623          	sw	a1,76(sp)
a00030f8:	00e7a623          	sw	a4,12(a5)
a00030fc:	820614e3          	bnez	a2,a0002924 <_ZN5Dinic3DFSEii+0x108>
a0003100:	00038313          	mv	t1,t2
a0003104:	07812503          	lw	a0,120(sp)
a0003108:	07412383          	lw	t2,116(sp)
a000310c:	07c12403          	lw	s0,124(sp)
a0003110:	0cc12483          	lw	s1,204(sp)
a0003114:	04c12683          	lw	a3,76(sp)
a0003118:	f6d05263          	blez	a3,a000287c <_ZN5Dinic3DFSEii+0x60>
a000311c:	00c3a703          	lw	a4,12(t2)
a0003120:	00134793          	xori	a5,t1,1
a0003124:	00479793          	slli	a5,a5,0x4
a0003128:	00d70733          	add	a4,a4,a3
a000312c:	00e3a623          	sw	a4,12(t2)
a0003130:	00c12703          	lw	a4,12(sp)
a0003134:	02c12603          	lw	a2,44(sp)
a0003138:	40d40433          	sub	s0,s0,a3
a000313c:	00f707b3          	add	a5,a4,a5
a0003140:	00c7a703          	lw	a4,12(a5)
a0003144:	00d60633          	add	a2,a2,a3
a0003148:	02c12623          	sw	a2,44(sp)
a000314c:	40d70733          	sub	a4,a4,a3
a0003150:	00e7a623          	sw	a4,12(a5)
a0003154:	f2041463          	bnez	s0,a000287c <_ZN5Dinic3DFSEii+0x60>
a0003158:	0d012403          	lw	s0,208(sp)
a000315c:	0d412083          	lw	ra,212(sp)
a0003160:	02c12503          	lw	a0,44(sp)
a0003164:	0d810113          	addi	sp,sp,216
a0003168:	00008067          	ret
a000316c:	0d412083          	lw	ra,212(sp)
a0003170:	02c12623          	sw	a2,44(sp)
a0003174:	02c12503          	lw	a0,44(sp)
a0003178:	0d810113          	addi	sp,sp,216
a000317c:	00008067          	ret
a0003180:	00a12a23          	sw	a0,20(sp)
a0003184:	965ff06f          	j	a0002ae8 <_ZN5Dinic3DFSEii+0x2cc>
a0003188:	02012783          	lw	a5,32(sp)
a000318c:	04f12623          	sw	a5,76(sp)
a0003190:	f85ff06f          	j	a0003114 <_ZN5Dinic3DFSEii+0x8f8>
a0003194:	03412783          	lw	a5,52(sp)
a0003198:	04f12e23          	sw	a5,92(sp)
a000319c:	f1dff06f          	j	a00030b8 <_ZN5Dinic3DFSEii+0x89c>
a00031a0:	04412783          	lw	a5,68(sp)
a00031a4:	06f12223          	sw	a5,100(sp)
a00031a8:	eadff06f          	j	a0003054 <_ZN5Dinic3DFSEii+0x838>
a00031ac:	01412783          	lw	a5,20(sp)
a00031b0:	06f12823          	sw	a5,112(sp)
a00031b4:	e51ff06f          	j	a0003004 <_ZN5Dinic3DFSEii+0x7e8>
a00031b8:	06012303          	lw	t1,96(sp)
a00031bc:	dedff06f          	j	a0002fa8 <_ZN5Dinic3DFSEii+0x78c>
a00031c0:	00048613          	mv	a2,s1
a00031c4:	c6dff06f          	j	a0002e30 <_ZN5Dinic3DFSEii+0x614>
a00031c8:	06812783          	lw	a5,104(sp)
a00031cc:	08f12423          	sw	a5,136(sp)
a00031d0:	d7dff06f          	j	a0002f4c <_ZN5Dinic3DFSEii+0x730>
a00031d4:	0cc12483          	lw	s1,204(sp)
a00031d8:	ea4ff06f          	j	a000287c <_ZN5Dinic3DFSEii+0x60>
a00031dc:	08012783          	lw	a5,128(sp)
a00031e0:	08f12623          	sw	a5,140(sp)
a00031e4:	d11ff06f          	j	a0002ef4 <_ZN5Dinic3DFSEii+0x6d8>

a00031e8 <bench_dinic_prepare>:
a00031e8:	00ffd797          	auipc	a5,0xffd
a00031ec:	4e47a783          	lw	a5,1252(a5) # a10006cc <setting>
a00031f0:	0007a783          	lw	a5,0(a5)
a00031f4:	fe010113          	addi	sp,sp,-32
a00031f8:	00112e23          	sw	ra,28(sp)
a00031fc:	00812c23          	sw	s0,24(sp)
a0003200:	00912a23          	sw	s1,20(sp)
a0003204:	00ffd417          	auipc	s0,0xffd
a0003208:	4e440413          	addi	s0,s0,1252 # a10006e8 <_ZL1N>
a000320c:	00100513          	li	a0,1
a0003210:	00f42023          	sw	a5,0(s0)
a0003214:	894ff0ef          	jal	a00022a8 <bench_srand>
a0003218:	00042783          	lw	a5,0(s0)
a000321c:	02c00513          	li	a0,44
a0003220:	00179793          	slli	a5,a5,0x1
a0003224:	00f12623          	sw	a5,12(sp)
a0003228:	00178793          	addi	a5,a5,1
a000322c:	00f12823          	sw	a5,16(sp)
a0003230:	fd1fe0ef          	jal	a0002200 <bench_alloc>
a0003234:	00042683          	lw	a3,0(s0)
a0003238:	00050413          	mv	s0,a0
a000323c:	00168693          	addi	a3,a3,1
a0003240:	00169713          	slli	a4,a3,0x1
a0003244:	ffe70793          	addi	a5,a4,-2
a0003248:	4017d493          	srai	s1,a5,0x1
a000324c:	00ffd797          	auipc	a5,0xffd
a0003250:	49878793          	addi	a5,a5,1176 # a10006e4 <_ZL1G>
a0003254:	00048593          	mv	a1,s1
a0003258:	00048513          	mv	a0,s1
a000325c:	0087a023          	sw	s0,0(a5)
a0003260:	00e12223          	sw	a4,4(sp)
a0003264:	00d12423          	sw	a3,8(sp)
a0003268:	0c5020ef          	jal	a0005b2c <__mulsi3>
a000326c:	00149793          	slli	a5,s1,0x1
a0003270:	00f507b3          	add	a5,a0,a5
a0003274:	00579513          	slli	a0,a5,0x5
a0003278:	00f12023          	sw	a5,0(sp)
a000327c:	f85fe0ef          	jal	a0002200 <bench_alloc>
a0003280:	00812683          	lw	a3,8(sp)
a0003284:	00a42823          	sw	a0,16(s0)
a0003288:	00369493          	slli	s1,a3,0x3
a000328c:	00048513          	mv	a0,s1
a0003290:	f71fe0ef          	jal	a0002200 <bench_alloc>
a0003294:	00012783          	lw	a5,0(sp)
a0003298:	00a42a23          	sw	a0,20(s0)
a000329c:	00379513          	slli	a0,a5,0x3
a00032a0:	f61fe0ef          	jal	a0002200 <bench_alloc>
a00032a4:	00412703          	lw	a4,4(sp)
a00032a8:	00a42c23          	sw	a0,24(s0)
a00032ac:	00070513          	mv	a0,a4
a00032b0:	00e12023          	sw	a4,0(sp)
a00032b4:	f4dfe0ef          	jal	a0002200 <bench_alloc>
a00032b8:	02a42423          	sw	a0,40(s0)
a00032bc:	00048513          	mv	a0,s1
a00032c0:	f41fe0ef          	jal	a0002200 <bench_alloc>
a00032c4:	00a42e23          	sw	a0,28(s0)
a00032c8:	00048513          	mv	a0,s1
a00032cc:	f35fe0ef          	jal	a0002200 <bench_alloc>
a00032d0:	02a42023          	sw	a0,32(s0)
a00032d4:	00048513          	mv	a0,s1
a00032d8:	f29fe0ef          	jal	a0002200 <bench_alloc>
a00032dc:	00012703          	lw	a4,0(sp)
a00032e0:	02a42223          	sw	a0,36(s0)
a00032e4:	00e42023          	sw	a4,0(s0)
a00032e8:	00e05e63          	blez	a4,a0003304 <bench_dinic_prepare+0x11c>
a00032ec:	01442783          	lw	a5,20(s0)
a00032f0:	fff00713          	li	a4,-1
a00032f4:	00f484b3          	add	s1,s1,a5
a00032f8:	00e7a023          	sw	a4,0(a5)
a00032fc:	00478793          	addi	a5,a5,4
a0003300:	fef49ce3          	bne	s1,a5,a00032f8 <bench_dinic_prepare+0x110>
a0003304:	00ffd797          	auipc	a5,0xffd
a0003308:	3e478793          	addi	a5,a5,996 # a10006e8 <_ZL1N>
a000330c:	0007a483          	lw	s1,0(a5)
a0003310:	00042223          	sw	zero,4(s0)
a0003314:	00000313          	li	t1,0
a0003318:	00048293          	mv	t0,s1
a000331c:	2a905e63          	blez	s1,a00035d8 <bench_dinic_prepare+0x3f0>
a0003320:	00000493          	li	s1,0
a0003324:	00231793          	slli	a5,t1,0x2
a0003328:	00048693          	mv	a3,s1
a000332c:	00f12423          	sw	a5,8(sp)
a0003330:	00612223          	sw	t1,4(sp)
a0003334:	00028493          	mv	s1,t0
a0003338:	00ffd797          	auipc	a5,0xffd
a000333c:	3ac78793          	addi	a5,a5,940 # a10006e4 <_ZL1G>
a0003340:	0007a403          	lw	s0,0(a5)
a0003344:	00d12023          	sw	a3,0(sp)
a0003348:	f75fe0ef          	jal	a00022bc <bench_rand>
a000334c:	00a00593          	li	a1,10
a0003350:	778020ef          	jal	a0005ac8 <__umodsi3>
a0003354:	00012683          	lw	a3,0(sp)
a0003358:	00ffd797          	auipc	a5,0xffd
a000335c:	39078793          	addi	a5,a5,912 # a10006e8 <_ZL1N>
a0003360:	00d485b3          	add	a1,s1,a3
a0003364:	00259313          	slli	t1,a1,0x2
a0003368:	00612023          	sw	t1,0(sp)
a000336c:	0007a483          	lw	s1,0(a5)
a0003370:	00168693          	addi	a3,a3,1
a0003374:	08050e63          	beqz	a0,a0003410 <bench_dinic_prepare+0x228>
a0003378:	00442703          	lw	a4,4(s0)
a000337c:	01042783          	lw	a5,16(s0)
a0003380:	00412283          	lw	t0,4(sp)
a0003384:	00471393          	slli	t2,a4,0x4
a0003388:	007783b3          	add	t2,a5,t2
a000338c:	01442603          	lw	a2,20(s0)
a0003390:	0053a023          	sw	t0,0(t2)
a0003394:	00a3a423          	sw	a0,8(t2)
a0003398:	00b3a223          	sw	a1,4(t2)
a000339c:	0003a623          	sw	zero,12(t2)
a00033a0:	00812383          	lw	t2,8(sp)
a00033a4:	01842503          	lw	a0,24(s0)
a00033a8:	00271713          	slli	a4,a4,0x2
a00033ac:	007603b3          	add	t2,a2,t2
a00033b0:	0003a303          	lw	t1,0(t2)
a00033b4:	00e50733          	add	a4,a0,a4
a00033b8:	00672023          	sw	t1,0(a4)
a00033bc:	00442703          	lw	a4,4(s0)
a00033c0:	00259313          	slli	t1,a1,0x2
a00033c4:	00660633          	add	a2,a2,t1
a00033c8:	00170313          	addi	t1,a4,1
a00033cc:	00642223          	sw	t1,4(s0)
a00033d0:	00e3a023          	sw	a4,0(t2)
a00033d4:	00442703          	lw	a4,4(s0)
a00033d8:	00471313          	slli	t1,a4,0x4
a00033dc:	006787b3          	add	a5,a5,t1
a00033e0:	00b7a023          	sw	a1,0(a5)
a00033e4:	0057a223          	sw	t0,4(a5)
a00033e8:	0007a423          	sw	zero,8(a5)
a00033ec:	0007a623          	sw	zero,12(a5)
a00033f0:	00062783          	lw	a5,0(a2)
a00033f4:	00271713          	slli	a4,a4,0x2
a00033f8:	00e50533          	add	a0,a0,a4
a00033fc:	00f52023          	sw	a5,0(a0)
a0003400:	00442783          	lw	a5,4(s0)
a0003404:	00178713          	addi	a4,a5,1
a0003408:	00e42223          	sw	a4,4(s0)
a000340c:	00f62023          	sw	a5,0(a2)
a0003410:	f296c4e3          	blt	a3,s1,a0003338 <bench_dinic_prepare+0x150>
a0003414:	00412303          	lw	t1,4(sp)
a0003418:	00048293          	mv	t0,s1
a000341c:	00130313          	addi	t1,t1,1
a0003420:	f09340e3          	blt	t1,s1,a0003320 <bench_dinic_prepare+0x138>
a0003424:	1a905a63          	blez	s1,a00035d8 <bench_dinic_prepare+0x3f0>
a0003428:	00c12783          	lw	a5,12(sp)
a000342c:	00000493          	li	s1,0
a0003430:	00279793          	slli	a5,a5,0x2
a0003434:	00f12423          	sw	a5,8(sp)
a0003438:	01012783          	lw	a5,16(sp)
a000343c:	00279793          	slli	a5,a5,0x2
a0003440:	00f12223          	sw	a5,4(sp)
a0003444:	00ffd417          	auipc	s0,0xffd
a0003448:	2a040413          	addi	s0,s0,672 # a10006e4 <_ZL1G>
a000344c:	00042683          	lw	a3,0(s0)
a0003450:	00d12023          	sw	a3,0(sp)
a0003454:	e69fe0ef          	jal	a00022bc <bench_rand>
a0003458:	3e800593          	li	a1,1000
a000345c:	66c020ef          	jal	a0005ac8 <__umodsi3>
a0003460:	00ffd797          	auipc	a5,0xffd
a0003464:	28878793          	addi	a5,a5,648 # a10006e8 <_ZL1N>
a0003468:	00042403          	lw	s0,0(s0)
a000346c:	0007a703          	lw	a4,0(a5)
a0003470:	00249313          	slli	t1,s1,0x2
a0003474:	08050e63          	beqz	a0,a0003510 <bench_dinic_prepare+0x328>
a0003478:	00012683          	lw	a3,0(sp)
a000347c:	00c12783          	lw	a5,12(sp)
a0003480:	0046a583          	lw	a1,4(a3)
a0003484:	0106a603          	lw	a2,16(a3)
a0003488:	0146a383          	lw	t2,20(a3)
a000348c:	00459293          	slli	t0,a1,0x4
a0003490:	005602b3          	add	t0,a2,t0
a0003494:	00f2a023          	sw	a5,0(t0)
a0003498:	00a2a423          	sw	a0,8(t0)
a000349c:	0092a223          	sw	s1,4(t0)
a00034a0:	0002a623          	sw	zero,12(t0)
a00034a4:	00812283          	lw	t0,8(sp)
a00034a8:	0186a503          	lw	a0,24(a3)
a00034ac:	00259593          	slli	a1,a1,0x2
a00034b0:	005382b3          	add	t0,t2,t0
a00034b4:	0002a083          	lw	ra,0(t0)
a00034b8:	00b505b3          	add	a1,a0,a1
a00034bc:	00638333          	add	t1,t2,t1
a00034c0:	0015a023          	sw	ra,0(a1)
a00034c4:	0046a583          	lw	a1,4(a3)
a00034c8:	00158393          	addi	t2,a1,1
a00034cc:	0076a223          	sw	t2,4(a3)
a00034d0:	00b2a023          	sw	a1,0(t0)
a00034d4:	0046a583          	lw	a1,4(a3)
a00034d8:	00459293          	slli	t0,a1,0x4
a00034dc:	00560633          	add	a2,a2,t0
a00034e0:	00962023          	sw	s1,0(a2)
a00034e4:	00f62223          	sw	a5,4(a2)
a00034e8:	00062423          	sw	zero,8(a2)
a00034ec:	00062623          	sw	zero,12(a2)
a00034f0:	00032603          	lw	a2,0(t1)
a00034f4:	00259593          	slli	a1,a1,0x2
a00034f8:	00b50533          	add	a0,a0,a1
a00034fc:	00c52023          	sw	a2,0(a0)
a0003500:	0046a603          	lw	a2,4(a3)
a0003504:	00160593          	addi	a1,a2,1
a0003508:	00b6a223          	sw	a1,4(a3)
a000350c:	00c32023          	sw	a2,0(t1)
a0003510:	00e12023          	sw	a4,0(sp)
a0003514:	da9fe0ef          	jal	a00022bc <bench_rand>
a0003518:	3e800593          	li	a1,1000
a000351c:	5ac020ef          	jal	a0005ac8 <__umodsi3>
a0003520:	00012703          	lw	a4,0(sp)
a0003524:	00ffd797          	auipc	a5,0xffd
a0003528:	1c478793          	addi	a5,a5,452 # a10006e8 <_ZL1N>
a000352c:	0007a383          	lw	t2,0(a5)
a0003530:	00970733          	add	a4,a4,s1
a0003534:	00271293          	slli	t0,a4,0x2
a0003538:	00148493          	addi	s1,s1,1
a000353c:	08050c63          	beqz	a0,a00035d4 <bench_dinic_prepare+0x3ec>
a0003540:	00442603          	lw	a2,4(s0)
a0003544:	01042683          	lw	a3,16(s0)
a0003548:	01442303          	lw	t1,20(s0)
a000354c:	01012783          	lw	a5,16(sp)
a0003550:	00461593          	slli	a1,a2,0x4
a0003554:	00b685b3          	add	a1,a3,a1
a0003558:	00e5a023          	sw	a4,0(a1)
a000355c:	00f5a223          	sw	a5,4(a1)
a0003560:	00a5a423          	sw	a0,8(a1)
a0003564:	0005a623          	sw	zero,12(a1)
a0003568:	005302b3          	add	t0,t1,t0
a000356c:	01842583          	lw	a1,24(s0)
a0003570:	0002a503          	lw	a0,0(t0)
a0003574:	00261613          	slli	a2,a2,0x2
a0003578:	00c58633          	add	a2,a1,a2
a000357c:	00a62023          	sw	a0,0(a2)
a0003580:	00442603          	lw	a2,4(s0)
a0003584:	00412503          	lw	a0,4(sp)
a0003588:	00a30333          	add	t1,t1,a0
a000358c:	00160513          	addi	a0,a2,1
a0003590:	00a42223          	sw	a0,4(s0)
a0003594:	00c2a023          	sw	a2,0(t0)
a0003598:	00442603          	lw	a2,4(s0)
a000359c:	00461513          	slli	a0,a2,0x4
a00035a0:	00a686b3          	add	a3,a3,a0
a00035a4:	00f6a023          	sw	a5,0(a3)
a00035a8:	00e6a223          	sw	a4,4(a3)
a00035ac:	0006a423          	sw	zero,8(a3)
a00035b0:	0006a623          	sw	zero,12(a3)
a00035b4:	00032703          	lw	a4,0(t1)
a00035b8:	00261613          	slli	a2,a2,0x2
a00035bc:	00c585b3          	add	a1,a1,a2
a00035c0:	00e5a023          	sw	a4,0(a1)
a00035c4:	00442703          	lw	a4,4(s0)
a00035c8:	00170693          	addi	a3,a4,1
a00035cc:	00d42223          	sw	a3,4(s0)
a00035d0:	00e32023          	sw	a4,0(t1)
a00035d4:	e674c8e3          	blt	s1,t2,a0003444 <bench_dinic_prepare+0x25c>
a00035d8:	01c12083          	lw	ra,28(sp)
a00035dc:	01812403          	lw	s0,24(sp)
a00035e0:	01412483          	lw	s1,20(sp)
a00035e4:	02010113          	addi	sp,sp,32
a00035e8:	00008067          	ret

a00035ec <bench_dinic_run>:
a00035ec:	00ffd517          	auipc	a0,0xffd
a00035f0:	0f852503          	lw	a0,248(a0) # a10006e4 <_ZL1G>
a00035f4:	02852783          	lw	a5,40(a0)
a00035f8:	f7c10113          	addi	sp,sp,-132
a00035fc:	00ffd717          	auipc	a4,0xffd
a0003600:	0ec72703          	lw	a4,236(a4) # a10006e8 <_ZL1N>
a0003604:	00f12623          	sw	a5,12(sp)
a0003608:	02452783          	lw	a5,36(a0)
a000360c:	00171593          	slli	a1,a4,0x1
a0003610:	01452683          	lw	a3,20(a0)
a0003614:	00f12e23          	sw	a5,28(sp)
a0003618:	01c52783          	lw	a5,28(a0)
a000361c:	06812e23          	sw	s0,124(sp)
a0003620:	06912c23          	sw	s1,120(sp)
a0003624:	00f12023          	sw	a5,0(sp)
a0003628:	00052783          	lw	a5,0(a0)
a000362c:	08112023          	sw	ra,128(sp)
a0003630:	00158613          	addi	a2,a1,1
a0003634:	00371713          	slli	a4,a4,0x3
a0003638:	00000493          	li	s1,0
a000363c:	04b12423          	sw	a1,72(sp)
a0003640:	00b52423          	sw	a1,8(a0)
a0003644:	00c52623          	sw	a2,12(a0)
a0003648:	06e12223          	sw	a4,100(sp)
a000364c:	00050293          	mv	t0,a0
a0003650:	00048413          	mv	s0,s1
a0003654:	00c12603          	lw	a2,12(sp)
a0003658:	00060713          	mv	a4,a2
a000365c:	00f60633          	add	a2,a2,a5
a0003660:	00f05863          	blez	a5,a0003670 <bench_dinic_run+0x84>
a0003664:	00070023          	sb	zero,0(a4)
a0003668:	00170713          	addi	a4,a4,1
a000366c:	fec71ce3          	bne	a4,a2,a0003664 <bench_dinic_run+0x78>
a0003670:	00012703          	lw	a4,0(sp)
a0003674:	01c12503          	lw	a0,28(sp)
a0003678:	00259793          	slli	a5,a1,0x2
a000367c:	00f707b3          	add	a5,a4,a5
a0003680:	00b52023          	sw	a1,0(a0)
a0003684:	0007a023          	sw	zero,0(a5)
a0003688:	0082a783          	lw	a5,8(t0)
a000368c:	00c12703          	lw	a4,12(sp)
a0003690:	00100393          	li	t2,1
a0003694:	02812023          	sw	s0,32(sp)
a0003698:	00f707b3          	add	a5,a4,a5
a000369c:	00100713          	li	a4,1
a00036a0:	00e78023          	sb	a4,0(a5)
a00036a4:	00000593          	li	a1,0
a00036a8:	fff00493          	li	s1,-1
a00036ac:	00028613          	mv	a2,t0
a00036b0:	00038413          	mv	s0,t2
a00036b4:	00052703          	lw	a4,0(a0)
a00036b8:	00158593          	addi	a1,a1,1
a00036bc:	00271713          	slli	a4,a4,0x2
a00036c0:	00e687b3          	add	a5,a3,a4
a00036c4:	0007a783          	lw	a5,0(a5)
a00036c8:	0a978663          	beq	a5,s1,a0003774 <bench_dinic_run+0x188>
a00036cc:	00012383          	lw	t2,0(sp)
a00036d0:	01062283          	lw	t0,16(a2)
a00036d4:	01862303          	lw	t1,24(a2)
a00036d8:	00e38733          	add	a4,t2,a4
a00036dc:	00e12823          	sw	a4,16(sp)
a00036e0:	00512223          	sw	t0,4(sp)
a00036e4:	00612423          	sw	t1,8(sp)
a00036e8:	00412303          	lw	t1,4(sp)
a00036ec:	00812283          	lw	t0,8(sp)
a00036f0:	00479713          	slli	a4,a5,0x4
a00036f4:	00e30733          	add	a4,t1,a4
a00036f8:	00279793          	slli	a5,a5,0x2
a00036fc:	00472303          	lw	t1,4(a4)
a0003700:	00f287b3          	add	a5,t0,a5
a0003704:	00c12283          	lw	t0,12(sp)
a0003708:	006282b3          	add	t0,t0,t1
a000370c:	0002c383          	lbu	t2,0(t0)
a0003710:	04039e63          	bnez	t2,a000376c <bench_dinic_run+0x180>
a0003714:	00012383          	lw	t2,0(sp)
a0003718:	00231313          	slli	t1,t1,0x2
a000371c:	00638333          	add	t1,t2,t1
a0003720:	01c12383          	lw	t2,28(sp)
a0003724:	00612a23          	sw	t1,20(sp)
a0003728:	00241313          	slli	t1,s0,0x2
a000372c:	00638333          	add	t1,t2,t1
a0003730:	00612c23          	sw	t1,24(sp)
a0003734:	00c72383          	lw	t2,12(a4)
a0003738:	00872303          	lw	t1,8(a4)
a000373c:	0263d863          	bge	t2,t1,a000376c <bench_dinic_run+0x180>
a0003740:	01012383          	lw	t2,16(sp)
a0003744:	00140413          	addi	s0,s0,1
a0003748:	0003a303          	lw	t1,0(t2)
a000374c:	00100393          	li	t2,1
a0003750:	00728023          	sb	t2,0(t0)
a0003754:	01412283          	lw	t0,20(sp)
a0003758:	00130313          	addi	t1,t1,1
a000375c:	0062a023          	sw	t1,0(t0)
a0003760:	00472703          	lw	a4,4(a4)
a0003764:	01812303          	lw	t1,24(sp)
a0003768:	00e32023          	sw	a4,0(t1)
a000376c:	0007a783          	lw	a5,0(a5)
a0003770:	f6979ce3          	bne	a5,s1,a00036e8 <bench_dinic_run+0xfc>
a0003774:	00450513          	addi	a0,a0,4
a0003778:	f2859ee3          	bne	a1,s0,a00036b4 <bench_dinic_run+0xc8>
a000377c:	00c62783          	lw	a5,12(a2)
a0003780:	00c12703          	lw	a4,12(sp)
a0003784:	02012403          	lw	s0,32(sp)
a0003788:	00f12c23          	sw	a5,24(sp)
a000378c:	00f707b3          	add	a5,a4,a5
a0003790:	0007c783          	lbu	a5,0(a5)
a0003794:	00060293          	mv	t0,a2
a0003798:	4a078463          	beqz	a5,a0003c40 <bench_dinic_run+0x654>
a000379c:	00062783          	lw	a5,0(a2)
a00037a0:	02f05a63          	blez	a5,a00037d4 <bench_dinic_run+0x1e8>
a00037a4:	0202a583          	lw	a1,32(t0)
a00037a8:	00068613          	mv	a2,a3
a00037ac:	00000713          	li	a4,0
a00037b0:	00062783          	lw	a5,0(a2)
a00037b4:	00170713          	addi	a4,a4,1
a00037b8:	00460613          	addi	a2,a2,4
a00037bc:	00f5a023          	sw	a5,0(a1)
a00037c0:	0002a783          	lw	a5,0(t0)
a00037c4:	00458593          	addi	a1,a1,4
a00037c8:	fef744e3          	blt	a4,a5,a00037b0 <bench_dinic_run+0x1c4>
a00037cc:	00c2a703          	lw	a4,12(t0)
a00037d0:	00e12c23          	sw	a4,24(sp)
a00037d4:	04812703          	lw	a4,72(sp)
a00037d8:	01812603          	lw	a2,24(sp)
a00037dc:	42c70e63          	beq	a4,a2,a0003c18 <bench_dinic_run+0x62c>
a00037e0:	0202a703          	lw	a4,32(t0)
a00037e4:	06412583          	lw	a1,100(sp)
a00037e8:	00070613          	mv	a2,a4
a00037ec:	00b60633          	add	a2,a2,a1
a00037f0:	00062483          	lw	s1,0(a2)
a00037f4:	02e12a23          	sw	a4,52(sp)
a00037f8:	fff00713          	li	a4,-1
a00037fc:	3ee48463          	beq	s1,a4,a0003be4 <bench_dinic_run+0x5f8>
a0003800:	00012703          	lw	a4,0(sp)
a0003804:	0102a503          	lw	a0,16(t0)
a0003808:	003f47b7          	lui	a5,0x3f4
a000380c:	00b70333          	add	t1,a4,a1
a0003810:	f3f78793          	addi	a5,a5,-193 # 3f3f3f <_STACK_SIZE+0x3e3f3f>
a0003814:	00912223          	sw	s1,4(sp)
a0003818:	00612a23          	sw	t1,20(sp)
a000381c:	02012623          	sw	zero,44(sp)
a0003820:	02812e23          	sw	s0,60(sp)
a0003824:	00078493          	mv	s1,a5
a0003828:	04d12023          	sw	a3,64(sp)
a000382c:	00050613          	mv	a2,a0
a0003830:	00028313          	mv	t1,t0
a0003834:	0240006f          	j	a0003858 <bench_dinic_run+0x26c>
a0003838:	00412703          	lw	a4,4(sp)
a000383c:	01832783          	lw	a5,24(t1)
a0003840:	00271713          	slli	a4,a4,0x2
a0003844:	00e787b3          	add	a5,a5,a4
a0003848:	0007a783          	lw	a5,0(a5)
a000384c:	fff00713          	li	a4,-1
a0003850:	00f12223          	sw	a5,4(sp)
a0003854:	38e78c63          	beq	a5,a4,a0003bec <bench_dinic_run+0x600>
a0003858:	00412783          	lw	a5,4(sp)
a000385c:	00012583          	lw	a1,0(sp)
a0003860:	00479793          	slli	a5,a5,0x4
a0003864:	00f60433          	add	s0,a2,a5
a0003868:	00442703          	lw	a4,4(s0)
a000386c:	01412783          	lw	a5,20(sp)
a0003870:	0007a683          	lw	a3,0(a5)
a0003874:	00271793          	slli	a5,a4,0x2
a0003878:	00f582b3          	add	t0,a1,a5
a000387c:	0002a503          	lw	a0,0(t0)
a0003880:	00168693          	addi	a3,a3,1
a0003884:	faa69ae3          	bne	a3,a0,a0003838 <bench_dinic_run+0x24c>
a0003888:	00842583          	lw	a1,8(s0)
a000388c:	00c42683          	lw	a3,12(s0)
a0003890:	40d586b3          	sub	a3,a1,a3
a0003894:	02d12023          	sw	a3,32(sp)
a0003898:	00d4d463          	bge	s1,a3,a00038a0 <bench_dinic_run+0x2b4>
a000389c:	02912023          	sw	s1,32(sp)
a00038a0:	01812683          	lw	a3,24(sp)
a00038a4:	36d70463          	beq	a4,a3,a0003c0c <bench_dinic_run+0x620>
a00038a8:	02012703          	lw	a4,32(sp)
a00038ac:	f80706e3          	beqz	a4,a0003838 <bench_dinic_run+0x24c>
a00038b0:	03412703          	lw	a4,52(sp)
a00038b4:	00f707b3          	add	a5,a4,a5
a00038b8:	0007a583          	lw	a1,0(a5)
a00038bc:	fff00793          	li	a5,-1
a00038c0:	f6f58ce3          	beq	a1,a5,a0003838 <bench_dinic_run+0x24c>
a00038c4:	00b12423          	sw	a1,8(sp)
a00038c8:	00060393          	mv	t2,a2
a00038cc:	00012583          	lw	a1,0(sp)
a00038d0:	02012823          	sw	zero,48(sp)
a00038d4:	04912623          	sw	s1,76(sp)
a00038d8:	04812823          	sw	s0,80(sp)
a00038dc:	02512223          	sw	t0,36(sp)
a00038e0:	00050613          	mv	a2,a0
a00038e4:	02c0006f          	j	a0003910 <bench_dinic_run+0x324>
a00038e8:	00812703          	lw	a4,8(sp)
a00038ec:	01832783          	lw	a5,24(t1)
a00038f0:	00271713          	slli	a4,a4,0x2
a00038f4:	00e787b3          	add	a5,a5,a4
a00038f8:	0007a783          	lw	a5,0(a5)
a00038fc:	fff00713          	li	a4,-1
a0003900:	00f12423          	sw	a5,8(sp)
a0003904:	26e78e63          	beq	a5,a4,a0003b80 <bench_dinic_run+0x594>
a0003908:	02412783          	lw	a5,36(sp)
a000390c:	0007a603          	lw	a2,0(a5)
a0003910:	00812783          	lw	a5,8(sp)
a0003914:	00160613          	addi	a2,a2,1
a0003918:	00479793          	slli	a5,a5,0x4
a000391c:	00f384b3          	add	s1,t2,a5
a0003920:	0044a683          	lw	a3,4(s1)
a0003924:	00269793          	slli	a5,a3,0x2
a0003928:	00f58733          	add	a4,a1,a5
a000392c:	00e12823          	sw	a4,16(sp)
a0003930:	00072703          	lw	a4,0(a4)
a0003934:	fae61ae3          	bne	a2,a4,a00038e8 <bench_dinic_run+0x2fc>
a0003938:	0084a503          	lw	a0,8(s1)
a000393c:	00c4a603          	lw	a2,12(s1)
a0003940:	40c50633          	sub	a2,a0,a2
a0003944:	02012503          	lw	a0,32(sp)
a0003948:	02c12423          	sw	a2,40(sp)
a000394c:	00c55463          	bge	a0,a2,a0003954 <bench_dinic_run+0x368>
a0003950:	02a12423          	sw	a0,40(sp)
a0003954:	01812603          	lw	a2,24(sp)
a0003958:	2cc68a63          	beq	a3,a2,a0003c2c <bench_dinic_run+0x640>
a000395c:	02812683          	lw	a3,40(sp)
a0003960:	f80684e3          	beqz	a3,a00038e8 <bench_dinic_run+0x2fc>
a0003964:	03412683          	lw	a3,52(sp)
a0003968:	00f687b3          	add	a5,a3,a5
a000396c:	0007a683          	lw	a3,0(a5)
a0003970:	fff00793          	li	a5,-1
a0003974:	f6f68ae3          	beq	a3,a5,a00038e8 <bench_dinic_run+0x2fc>
a0003978:	06912423          	sw	s1,104(sp)
a000397c:	02012c23          	sw	zero,56(sp)
a0003980:	00068493          	mv	s1,a3
a0003984:	00058693          	mv	a3,a1
a0003988:	0240006f          	j	a00039ac <bench_dinic_run+0x3c0>
a000398c:	01832783          	lw	a5,24(t1)
a0003990:	00249493          	slli	s1,s1,0x2
a0003994:	009787b3          	add	a5,a5,s1
a0003998:	0007a483          	lw	s1,0(a5)
a000399c:	fff00793          	li	a5,-1
a00039a0:	18f48663          	beq	s1,a5,a0003b2c <bench_dinic_run+0x540>
a00039a4:	01012783          	lw	a5,16(sp)
a00039a8:	0007a703          	lw	a4,0(a5)
a00039ac:	00449793          	slli	a5,s1,0x4
a00039b0:	00f387b3          	add	a5,t2,a5
a00039b4:	0047a503          	lw	a0,4(a5)
a00039b8:	00170293          	addi	t0,a4,1
a00039bc:	00251593          	slli	a1,a0,0x2
a00039c0:	00b68733          	add	a4,a3,a1
a00039c4:	00072603          	lw	a2,0(a4)
a00039c8:	fcc292e3          	bne	t0,a2,a000398c <bench_dinic_run+0x3a0>
a00039cc:	0087a403          	lw	s0,8(a5)
a00039d0:	00c7a283          	lw	t0,12(a5)
a00039d4:	405402b3          	sub	t0,s0,t0
a00039d8:	02812403          	lw	s0,40(sp)
a00039dc:	00545463          	bge	s0,t0,a00039e4 <bench_dinic_run+0x3f8>
a00039e0:	00040293          	mv	t0,s0
a00039e4:	01812403          	lw	s0,24(sp)
a00039e8:	24850863          	beq	a0,s0,a0003c38 <bench_dinic_run+0x64c>
a00039ec:	fa0280e3          	beqz	t0,a000398c <bench_dinic_run+0x3a0>
a00039f0:	03412503          	lw	a0,52(sp)
a00039f4:	00b505b3          	add	a1,a0,a1
a00039f8:	0005a403          	lw	s0,0(a1)
a00039fc:	fff00593          	li	a1,-1
a0003a00:	f8b406e3          	beq	s0,a1,a000398c <bench_dinic_run+0x3a0>
a0003a04:	06912a23          	sw	s1,116(sp)
a0003a08:	04012223          	sw	zero,68(sp)
a0003a0c:	06f12823          	sw	a5,112(sp)
a0003a10:	00030493          	mv	s1,t1
a0003a14:	0200006f          	j	a0003a34 <bench_dinic_run+0x448>
a0003a18:	0184a783          	lw	a5,24(s1)
a0003a1c:	00241413          	slli	s0,s0,0x2
a0003a20:	008787b3          	add	a5,a5,s0
a0003a24:	0007a403          	lw	s0,0(a5)
a0003a28:	fff00793          	li	a5,-1
a0003a2c:	0af40463          	beq	s0,a5,a0003ad4 <bench_dinic_run+0x4e8>
a0003a30:	00072603          	lw	a2,0(a4)
a0003a34:	00441793          	slli	a5,s0,0x4
a0003a38:	00f387b3          	add	a5,t2,a5
a0003a3c:	0047a583          	lw	a1,4(a5)
a0003a40:	00160513          	addi	a0,a2,1
a0003a44:	00259613          	slli	a2,a1,0x2
a0003a48:	00c68633          	add	a2,a3,a2
a0003a4c:	00062603          	lw	a2,0(a2)
a0003a50:	fcc514e3          	bne	a0,a2,a0003a18 <bench_dinic_run+0x42c>
a0003a54:	0087a603          	lw	a2,8(a5)
a0003a58:	00c7a083          	lw	ra,12(a5)
a0003a5c:	00048513          	mv	a0,s1
a0003a60:	40160633          	sub	a2,a2,ra
a0003a64:	00c2d463          	bge	t0,a2,a0003a6c <bench_dinic_run+0x480>
a0003a68:	00028613          	mv	a2,t0
a0003a6c:	06712023          	sw	t2,96(sp)
a0003a70:	04d12e23          	sw	a3,92(sp)
a0003a74:	04e12c23          	sw	a4,88(sp)
a0003a78:	04512a23          	sw	t0,84(sp)
a0003a7c:	06f12623          	sw	a5,108(sp)
a0003a80:	d9dfe0ef          	jal	a000281c <_ZN5Dinic3DFSEii>
a0003a84:	06012383          	lw	t2,96(sp)
a0003a88:	00144613          	xori	a2,s0,1
a0003a8c:	00461613          	slli	a2,a2,0x4
a0003a90:	05412283          	lw	t0,84(sp)
a0003a94:	05812703          	lw	a4,88(sp)
a0003a98:	05c12683          	lw	a3,92(sp)
a0003a9c:	00c38633          	add	a2,t2,a2
a0003aa0:	f6a05ce3          	blez	a0,a0003a18 <bench_dinic_run+0x42c>
a0003aa4:	06c12783          	lw	a5,108(sp)
a0003aa8:	04412303          	lw	t1,68(sp)
a0003aac:	40a282b3          	sub	t0,t0,a0
a0003ab0:	00c7a583          	lw	a1,12(a5)
a0003ab4:	00a30333          	add	t1,t1,a0
a0003ab8:	04612223          	sw	t1,68(sp)
a0003abc:	00a585b3          	add	a1,a1,a0
a0003ac0:	00b7a623          	sw	a1,12(a5)
a0003ac4:	00c62783          	lw	a5,12(a2)
a0003ac8:	40a787b3          	sub	a5,a5,a0
a0003acc:	00f62623          	sw	a5,12(a2)
a0003ad0:	f40294e3          	bnez	t0,a0003a18 <bench_dinic_run+0x42c>
a0003ad4:	00048313          	mv	t1,s1
a0003ad8:	07012783          	lw	a5,112(sp)
a0003adc:	07412483          	lw	s1,116(sp)
a0003ae0:	04412583          	lw	a1,68(sp)
a0003ae4:	eab054e3          	blez	a1,a000398c <bench_dinic_run+0x3a0>
a0003ae8:	00c7a603          	lw	a2,12(a5)
a0003aec:	02812503          	lw	a0,40(sp)
a0003af0:	0014c713          	xori	a4,s1,1
a0003af4:	00b60633          	add	a2,a2,a1
a0003af8:	00471713          	slli	a4,a4,0x4
a0003afc:	00c7a623          	sw	a2,12(a5)
a0003b00:	00e38733          	add	a4,t2,a4
a0003b04:	00058613          	mv	a2,a1
a0003b08:	00c72783          	lw	a5,12(a4)
a0003b0c:	40b505b3          	sub	a1,a0,a1
a0003b10:	03812503          	lw	a0,56(sp)
a0003b14:	40c787b3          	sub	a5,a5,a2
a0003b18:	02b12423          	sw	a1,40(sp)
a0003b1c:	00c50533          	add	a0,a0,a2
a0003b20:	02a12c23          	sw	a0,56(sp)
a0003b24:	00f72623          	sw	a5,12(a4)
a0003b28:	e60592e3          	bnez	a1,a000398c <bench_dinic_run+0x3a0>
a0003b2c:	06812483          	lw	s1,104(sp)
a0003b30:	00068593          	mv	a1,a3
a0003b34:	03812683          	lw	a3,56(sp)
a0003b38:	dad058e3          	blez	a3,a00038e8 <bench_dinic_run+0x2fc>
a0003b3c:	00812783          	lw	a5,8(sp)
a0003b40:	00c4a703          	lw	a4,12(s1)
a0003b44:	02012603          	lw	a2,32(sp)
a0003b48:	0017c793          	xori	a5,a5,1
a0003b4c:	00d70733          	add	a4,a4,a3
a0003b50:	00479793          	slli	a5,a5,0x4
a0003b54:	00e4a623          	sw	a4,12(s1)
a0003b58:	00f387b3          	add	a5,t2,a5
a0003b5c:	00c7a703          	lw	a4,12(a5)
a0003b60:	03012503          	lw	a0,48(sp)
a0003b64:	40d60633          	sub	a2,a2,a3
a0003b68:	40d70733          	sub	a4,a4,a3
a0003b6c:	00d50533          	add	a0,a0,a3
a0003b70:	02c12023          	sw	a2,32(sp)
a0003b74:	02a12823          	sw	a0,48(sp)
a0003b78:	00e7a623          	sw	a4,12(a5)
a0003b7c:	d60616e3          	bnez	a2,a00038e8 <bench_dinic_run+0x2fc>
a0003b80:	04c12483          	lw	s1,76(sp)
a0003b84:	05012403          	lw	s0,80(sp)
a0003b88:	00038613          	mv	a2,t2
a0003b8c:	03012683          	lw	a3,48(sp)
a0003b90:	cad054e3          	blez	a3,a0003838 <bench_dinic_run+0x24c>
a0003b94:	00412783          	lw	a5,4(sp)
a0003b98:	00c42703          	lw	a4,12(s0)
a0003b9c:	02c12583          	lw	a1,44(sp)
a0003ba0:	0017c793          	xori	a5,a5,1
a0003ba4:	00d70733          	add	a4,a4,a3
a0003ba8:	00479793          	slli	a5,a5,0x4
a0003bac:	00e42623          	sw	a4,12(s0)
a0003bb0:	00f607b3          	add	a5,a2,a5
a0003bb4:	00c7a703          	lw	a4,12(a5)
a0003bb8:	00d585b3          	add	a1,a1,a3
a0003bbc:	40d484b3          	sub	s1,s1,a3
a0003bc0:	40d70733          	sub	a4,a4,a3
a0003bc4:	02b12623          	sw	a1,44(sp)
a0003bc8:	00e7a623          	sw	a4,12(a5)
a0003bcc:	c60496e3          	bnez	s1,a0003838 <bench_dinic_run+0x24c>
a0003bd0:	03c12403          	lw	s0,60(sp)
a0003bd4:	04012683          	lw	a3,64(sp)
a0003bd8:	00032783          	lw	a5,0(t1)
a0003bdc:	00030293          	mv	t0,t1
a0003be0:	00b40433          	add	s0,s0,a1
a0003be4:	0082a583          	lw	a1,8(t0)
a0003be8:	a6dff06f          	j	a0003654 <bench_dinic_run+0x68>
a0003bec:	03c12403          	lw	s0,60(sp)
a0003bf0:	02c12703          	lw	a4,44(sp)
a0003bf4:	00030293          	mv	t0,t1
a0003bf8:	04012683          	lw	a3,64(sp)
a0003bfc:	00032783          	lw	a5,0(t1)
a0003c00:	0082a583          	lw	a1,8(t0)
a0003c04:	00e40433          	add	s0,s0,a4
a0003c08:	a4dff06f          	j	a0003654 <bench_dinic_run+0x68>
a0003c0c:	02012783          	lw	a5,32(sp)
a0003c10:	02f12823          	sw	a5,48(sp)
a0003c14:	f79ff06f          	j	a0003b8c <bench_dinic_run+0x5a0>
a0003c18:	003f4737          	lui	a4,0x3f4
a0003c1c:	f3f70713          	addi	a4,a4,-193 # 3f3f3f <_STACK_SIZE+0x3e3f3f>
a0003c20:	0082a583          	lw	a1,8(t0)
a0003c24:	00e40433          	add	s0,s0,a4
a0003c28:	a2dff06f          	j	a0003654 <bench_dinic_run+0x68>
a0003c2c:	02812783          	lw	a5,40(sp)
a0003c30:	02f12c23          	sw	a5,56(sp)
a0003c34:	f01ff06f          	j	a0003b34 <bench_dinic_run+0x548>
a0003c38:	04512223          	sw	t0,68(sp)
a0003c3c:	ea5ff06f          	j	a0003ae0 <bench_dinic_run+0x4f4>
a0003c40:	08012083          	lw	ra,128(sp)
a0003c44:	00ffd797          	auipc	a5,0xffd
a0003c48:	a887ae23          	sw	s0,-1380(a5) # a10006e0 <_ZL3ans>
a0003c4c:	07c12403          	lw	s0,124(sp)
a0003c50:	07812483          	lw	s1,120(sp)
a0003c54:	08410113          	addi	sp,sp,132
a0003c58:	00008067          	ret

a0003c5c <bench_dinic_validate>:
a0003c5c:	00ffd797          	auipc	a5,0xffd
a0003c60:	a707a783          	lw	a5,-1424(a5) # a10006cc <setting>
a0003c64:	00c7a503          	lw	a0,12(a5)
a0003c68:	00ffd797          	auipc	a5,0xffd
a0003c6c:	a787a783          	lw	a5,-1416(a5) # a10006e0 <_ZL3ans>
a0003c70:	40f50533          	sub	a0,a0,a5
a0003c74:	00153513          	seqz	a0,a0
a0003c78:	00008067          	ret

a0003c7c <_ZNK14Updatable_heapI8N_puzzleILi4EEE7pointerERKS1_.isra.0>:
a0003c7c:	00064303          	lbu	t1,0(a2)
a0003c80:	00030c63          	beqz	t1,a0003c98 <_ZNK14Updatable_heapI8N_puzzleILi4EEE7pointerERKS1_.isra.0+0x1c>
a0003c84:	01462383          	lw	t2,20(a2)
a0003c88:	fff50513          	addi	a0,a0,-1
a0003c8c:	007577b3          	and	a5,a0,t2
a0003c90:	00279793          	slli	a5,a5,0x2
a0003c94:	00f585b3          	add	a1,a1,a5
a0003c98:	0005a503          	lw	a0,0(a1)
a0003c9c:	06050a63          	beqz	a0,a0003d10 <_ZNK14Updatable_heapI8N_puzzleILi4EEE7pointerERKS1_.isra.0+0x94>
a0003ca0:	01800293          	li	t0,24
a0003ca4:	00c0006f          	j	a0003cb0 <_ZNK14Updatable_heapI8N_puzzleILi4EEE7pointerERKS1_.isra.0+0x34>
a0003ca8:	01852503          	lw	a0,24(a0)
a0003cac:	06050263          	beqz	a0,a0003d10 <_ZNK14Updatable_heapI8N_puzzleILi4EEE7pointerERKS1_.isra.0+0x94>
a0003cb0:	00054783          	lbu	a5,0(a0)
a0003cb4:	fe078ae3          	beqz	a5,a0003ca8 <_ZNK14Updatable_heapI8N_puzzleILi4EEE7pointerERKS1_.isra.0+0x2c>
a0003cb8:	fe0308e3          	beqz	t1,a0003ca8 <_ZNK14Updatable_heapI8N_puzzleILi4EEE7pointerERKS1_.isra.0+0x2c>
a0003cbc:	01462383          	lw	t2,20(a2)
a0003cc0:	01452783          	lw	a5,20(a0)
a0003cc4:	00800713          	li	a4,8
a0003cc8:	02778063          	beq	a5,t2,a0003ce8 <_ZNK14Updatable_heapI8N_puzzleILi4EEE7pointerERKS1_.isra.0+0x6c>
a0003ccc:	01852503          	lw	a0,24(a0)
a0003cd0:	04050063          	beqz	a0,a0003d10 <_ZNK14Updatable_heapI8N_puzzleILi4EEE7pointerERKS1_.isra.0+0x94>
a0003cd4:	00054783          	lbu	a5,0(a0)
a0003cd8:	fc0788e3          	beqz	a5,a0003ca8 <_ZNK14Updatable_heapI8N_puzzleILi4EEE7pointerERKS1_.isra.0+0x2c>
a0003cdc:	01452783          	lw	a5,20(a0)
a0003ce0:	00800713          	li	a4,8
a0003ce4:	fe7794e3          	bne	a5,t2,a0003ccc <_ZNK14Updatable_heapI8N_puzzleILi4EEE7pointerERKS1_.isra.0+0x50>
a0003ce8:	ffc70793          	addi	a5,a4,-4
a0003cec:	00f505b3          	add	a1,a0,a5
a0003cf0:	00f606b3          	add	a3,a2,a5
a0003cf4:	00058583          	lb	a1,0(a1)
a0003cf8:	00068683          	lb	a3,0(a3)
a0003cfc:	00178793          	addi	a5,a5,1
a0003d00:	fcd596e3          	bne	a1,a3,a0003ccc <_ZNK14Updatable_heapI8N_puzzleILi4EEE7pointerERKS1_.isra.0+0x50>
a0003d04:	fef714e3          	bne	a4,a5,a0003cec <_ZNK14Updatable_heapI8N_puzzleILi4EEE7pointerERKS1_.isra.0+0x70>
a0003d08:	00470713          	addi	a4,a4,4
a0003d0c:	fc571ee3          	bne	a4,t0,a0003ce8 <_ZNK14Updatable_heapI8N_puzzleILi4EEE7pointerERKS1_.isra.0+0x6c>
a0003d10:	00008067          	ret

a0003d14 <bench_15pz_prepare>:
a0003d14:	00008067          	ret

a0003d18 <bench_15pz_validate>:
a0003d18:	00ffd797          	auipc	a5,0xffd
a0003d1c:	9b47a783          	lw	a5,-1612(a5) # a10006cc <setting>
a0003d20:	00c7a503          	lw	a0,12(a5)
a0003d24:	00ffd797          	auipc	a5,0xffd
a0003d28:	9c87a783          	lw	a5,-1592(a5) # a10006ec <_ZL3ans>
a0003d2c:	40f50533          	sub	a0,a0,a5
a0003d30:	00153513          	seqz	a0,a0
a0003d34:	00008067          	ret

a0003d38 <_ZN8N_puzzleILi4EEC1Ev>:
a0003d38:	fa010113          	addi	sp,sp,-96
a0003d3c:	04812c23          	sw	s0,88(sp)
a0003d40:	04112e23          	sw	ra,92(sp)
a0003d44:	04912a23          	sw	s1,84(sp)
a0003d48:	00100793          	li	a5,1
a0003d4c:	00f50023          	sb	a5,0(a0)
a0003d50:	00050413          	mv	s0,a0
a0003d54:	000501a3          	sb	zero,3(a0)
a0003d58:	01410713          	addi	a4,sp,20
a0003d5c:	00000793          	li	a5,0
a0003d60:	01000693          	li	a3,16
a0003d64:	00f72023          	sw	a5,0(a4)
a0003d68:	00178793          	addi	a5,a5,1
a0003d6c:	00470713          	addi	a4,a4,4
a0003d70:	fed79ae3          	bne	a5,a3,a0003d64 <_ZN8N_puzzleILi4EEC1Ev+0x2c>
a0003d74:	00000793          	li	a5,0
a0003d78:	00000693          	li	a3,0
a0003d7c:	00078313          	mv	t1,a5
a0003d80:	00040293          	mv	t0,s0
a0003d84:	01410793          	addi	a5,sp,20
a0003d88:	00231413          	slli	s0,t1,0x2
a0003d8c:	00f40433          	add	s0,s0,a5
a0003d90:	01030793          	addi	a5,t1,16
a0003d94:	00f12623          	sw	a5,12(sp)
a0003d98:	406287b3          	sub	a5,t0,t1
a0003d9c:	00000493          	li	s1,0
a0003da0:	00f12423          	sw	a5,8(sp)
a0003da4:	00d12223          	sw	a3,4(sp)
a0003da8:	00612823          	sw	t1,16(sp)
a0003dac:	00512023          	sw	t0,0(sp)
a0003db0:	d0cfe0ef          	jal	a00022bc <bench_rand>
a0003db4:	00c12783          	lw	a5,12(sp)
a0003db8:	409785b3          	sub	a1,a5,s1
a0003dbc:	50d010ef          	jal	a0005ac8 <__umodsi3>
a0003dc0:	00251513          	slli	a0,a0,0x2
a0003dc4:	01410713          	addi	a4,sp,20
a0003dc8:	04050793          	addi	a5,a0,64
a0003dcc:	00e787b3          	add	a5,a5,a4
a0003dd0:	fc07a683          	lw	a3,-64(a5)
a0003dd4:	00812783          	lw	a5,8(sp)
a0003dd8:	00412303          	lw	t1,4(sp)
a0003ddc:	fff68393          	addi	t2,a3,-1
a0003de0:	00978633          	add	a2,a5,s1
a0003de4:	41f3d793          	srai	a5,t2,0x1f
a0003de8:	01e7d593          	srli	a1,a5,0x1e
a0003dec:	00b38733          	add	a4,t2,a1
a0003df0:	0037f793          	andi	a5,a5,3
a0003df4:	007787b3          	add	a5,a5,t2
a0003df8:	00377713          	andi	a4,a4,3
a0003dfc:	40b70733          	sub	a4,a4,a1
a0003e00:	4027d793          	srai	a5,a5,0x2
a0003e04:	40970733          	sub	a4,a4,s1
a0003e08:	406787b3          	sub	a5,a5,t1
a0003e0c:	41f7d393          	srai	t2,a5,0x1f
a0003e10:	41f75593          	srai	a1,a4,0x1f
a0003e14:	00f3c7b3          	xor	a5,t2,a5
a0003e18:	00e5c733          	xor	a4,a1,a4
a0003e1c:	407787b3          	sub	a5,a5,t2
a0003e20:	40b70733          	sub	a4,a4,a1
a0003e24:	00d60223          	sb	a3,4(a2)
a0003e28:	00012283          	lw	t0,0(sp)
a0003e2c:	00e78733          	add	a4,a5,a4
a0003e30:	0a069863          	bnez	a3,a0003ee0 <_ZN8N_puzzleILi4EEC1Ev+0x1a8>
a0003e34:	006280a3          	sb	t1,1(t0)
a0003e38:	00928123          	sb	s1,2(t0)
a0003e3c:	03c42783          	lw	a5,60(s0)
a0003e40:	04050713          	addi	a4,a0,64
a0003e44:	01410693          	addi	a3,sp,20
a0003e48:	00d70533          	add	a0,a4,a3
a0003e4c:	fcf52023          	sw	a5,-64(a0)
a0003e50:	00148493          	addi	s1,s1,1
a0003e54:	00400793          	li	a5,4
a0003e58:	ffc40413          	addi	s0,s0,-4
a0003e5c:	f4f498e3          	bne	s1,a5,a0003dac <_ZN8N_puzzleILi4EEC1Ev+0x74>
a0003e60:	01012303          	lw	t1,16(sp)
a0003e64:	00412683          	lw	a3,4(sp)
a0003e68:	ff000793          	li	a5,-16
a0003e6c:	ffc30313          	addi	t1,t1,-4
a0003e70:	00168693          	addi	a3,a3,1
a0003e74:	f0f318e3          	bne	t1,a5,a0003d84 <_ZN8N_puzzleILi4EEC1Ev+0x4c>
a0003e78:	00000793          	li	a5,0
a0003e7c:	00028413          	mv	s0,t0
a0003e80:	00428613          	addi	a2,t0,4
a0003e84:	01428593          	addi	a1,t0,20
a0003e88:	00078693          	mv	a3,a5
a0003e8c:	ffc60713          	addi	a4,a2,-4
a0003e90:	00569793          	slli	a5,a3,0x5
a0003e94:	40d787b3          	sub	a5,a5,a3
a0003e98:	00279793          	slli	a5,a5,0x2
a0003e9c:	40d787b3          	sub	a5,a5,a3
a0003ea0:	00279793          	slli	a5,a5,0x2
a0003ea4:	00470503          	lb	a0,4(a4)
a0003ea8:	00d787b3          	add	a5,a5,a3
a0003eac:	00279793          	slli	a5,a5,0x2
a0003eb0:	00d787b3          	add	a5,a5,a3
a0003eb4:	00170713          	addi	a4,a4,1
a0003eb8:	00a786b3          	add	a3,a5,a0
a0003ebc:	fce61ae3          	bne	a2,a4,a0003e90 <_ZN8N_puzzleILi4EEC1Ev+0x158>
a0003ec0:	00460613          	addi	a2,a2,4
a0003ec4:	fcc594e3          	bne	a1,a2,a0003e8c <_ZN8N_puzzleILi4EEC1Ev+0x154>
a0003ec8:	05c12083          	lw	ra,92(sp)
a0003ecc:	00d42a23          	sw	a3,20(s0)
a0003ed0:	05812403          	lw	s0,88(sp)
a0003ed4:	05412483          	lw	s1,84(sp)
a0003ed8:	06010113          	addi	sp,sp,96
a0003edc:	00008067          	ret
a0003ee0:	0032c783          	lbu	a5,3(t0)
a0003ee4:	00f70733          	add	a4,a4,a5
a0003ee8:	00e281a3          	sb	a4,3(t0)
a0003eec:	f51ff06f          	j	a0003e3c <_ZN8N_puzzleILi4EEC1Ev+0x104>

a0003ef0 <_ZN8N_puzzleILi4EEC1EPi>:
a0003ef0:	fe010113          	addi	sp,sp,-32
a0003ef4:	00100713          	li	a4,1
a0003ef8:	00812e23          	sw	s0,28(sp)
a0003efc:	00912c23          	sw	s1,24(sp)
a0003f00:	00e50023          	sb	a4,0(a0)
a0003f04:	000501a3          	sb	zero,3(a0)
a0003f08:	00012423          	sw	zero,8(sp)
a0003f0c:	00012623          	sw	zero,12(sp)
a0003f10:	00012823          	sw	zero,16(sp)
a0003f14:	00012a23          	sw	zero,20(sp)
a0003f18:	00050493          	mv	s1,a0
a0003f1c:	00000413          	li	s0,0
a0003f20:	00000293          	li	t0,0
a0003f24:	00b12223          	sw	a1,4(sp)
a0003f28:	00412783          	lw	a5,4(sp)
a0003f2c:	00229313          	slli	t1,t0,0x2
a0003f30:	00000693          	li	a3,0
a0003f34:	00678333          	add	t1,a5,t1
a0003f38:	00512023          	sw	t0,0(sp)
a0003f3c:	00032603          	lw	a2,0(t1)
a0003f40:	00d485b3          	add	a1,s1,a3
a0003f44:	fff60393          	addi	t2,a2,-1
a0003f48:	41f3d793          	srai	a5,t2,0x1f
a0003f4c:	01e7d293          	srli	t0,a5,0x1e
a0003f50:	00538733          	add	a4,t2,t0
a0003f54:	0037f793          	andi	a5,a5,3
a0003f58:	007787b3          	add	a5,a5,t2
a0003f5c:	00377713          	andi	a4,a4,3
a0003f60:	40570733          	sub	a4,a4,t0
a0003f64:	4027d793          	srai	a5,a5,0x2
a0003f68:	40d70733          	sub	a4,a4,a3
a0003f6c:	408787b3          	sub	a5,a5,s0
a0003f70:	41f7d393          	srai	t2,a5,0x1f
a0003f74:	41f75293          	srai	t0,a4,0x1f
a0003f78:	00f3c7b3          	xor	a5,t2,a5
a0003f7c:	00e2c733          	xor	a4,t0,a4
a0003f80:	407787b3          	sub	a5,a5,t2
a0003f84:	40570733          	sub	a4,a4,t0
a0003f88:	00810393          	addi	t2,sp,8
a0003f8c:	01060293          	addi	t0,a2,16
a0003f90:	007282b3          	add	t0,t0,t2
a0003f94:	00e78733          	add	a4,a5,a4
a0003f98:	00100793          	li	a5,1
a0003f9c:	00c58223          	sb	a2,4(a1)
a0003fa0:	fef28823          	sb	a5,-16(t0)
a0003fa4:	0a061663          	bnez	a2,a0004050 <_ZN8N_puzzleILi4EEC1EPi+0x160>
a0003fa8:	008500a3          	sb	s0,1(a0)
a0003fac:	00d50123          	sb	a3,2(a0)
a0003fb0:	00168693          	addi	a3,a3,1
a0003fb4:	00400793          	li	a5,4
a0003fb8:	00430313          	addi	t1,t1,4
a0003fbc:	f8f690e3          	bne	a3,a5,a0003f3c <_ZN8N_puzzleILi4EEC1EPi+0x4c>
a0003fc0:	00012283          	lw	t0,0(sp)
a0003fc4:	01000793          	li	a5,16
a0003fc8:	00140413          	addi	s0,s0,1
a0003fcc:	00428293          	addi	t0,t0,4
a0003fd0:	00448493          	addi	s1,s1,4
a0003fd4:	f4f29ae3          	bne	t0,a5,a0003f28 <_ZN8N_puzzleILi4EEC1EPi+0x38>
a0003fd8:	00810793          	addi	a5,sp,8
a0003fdc:	01810693          	addi	a3,sp,24
a0003fe0:	0007c703          	lbu	a4,0(a5)
a0003fe4:	00178793          	addi	a5,a5,1
a0003fe8:	06070c63          	beqz	a4,a0004060 <_ZN8N_puzzleILi4EEC1EPi+0x170>
a0003fec:	fef69ae3          	bne	a3,a5,a0003fe0 <_ZN8N_puzzleILi4EEC1EPi+0xf0>
a0003ff0:	00000793          	li	a5,0
a0003ff4:	00450613          	addi	a2,a0,4
a0003ff8:	01450593          	addi	a1,a0,20
a0003ffc:	00078693          	mv	a3,a5
a0004000:	ffc60713          	addi	a4,a2,-4
a0004004:	00569793          	slli	a5,a3,0x5
a0004008:	40d787b3          	sub	a5,a5,a3
a000400c:	00279793          	slli	a5,a5,0x2
a0004010:	40d787b3          	sub	a5,a5,a3
a0004014:	00279793          	slli	a5,a5,0x2
a0004018:	00470303          	lb	t1,4(a4)
a000401c:	00d787b3          	add	a5,a5,a3
a0004020:	00279793          	slli	a5,a5,0x2
a0004024:	00d787b3          	add	a5,a5,a3
a0004028:	00170713          	addi	a4,a4,1
a000402c:	006786b3          	add	a3,a5,t1
a0004030:	fcc71ae3          	bne	a4,a2,a0004004 <_ZN8N_puzzleILi4EEC1EPi+0x114>
a0004034:	00470613          	addi	a2,a4,4
a0004038:	fcb614e3          	bne	a2,a1,a0004000 <_ZN8N_puzzleILi4EEC1EPi+0x110>
a000403c:	01c12403          	lw	s0,28(sp)
a0004040:	00d52a23          	sw	a3,20(a0)
a0004044:	01812483          	lw	s1,24(sp)
a0004048:	02010113          	addi	sp,sp,32
a000404c:	00008067          	ret
a0004050:	00354783          	lbu	a5,3(a0)
a0004054:	00f70733          	add	a4,a4,a5
a0004058:	00e501a3          	sb	a4,3(a0)
a000405c:	f55ff06f          	j	a0003fb0 <_ZN8N_puzzleILi4EEC1EPi+0xc0>
a0004060:	01c12403          	lw	s0,28(sp)
a0004064:	00050023          	sb	zero,0(a0)
a0004068:	01812483          	lw	s1,24(sp)
a000406c:	02010113          	addi	sp,sp,32
a0004070:	00008067          	ret

a0004074 <_ZNK8N_puzzleILi4EE8solvableEv>:
a0004074:	00050293          	mv	t0,a0
a0004078:	00054503          	lbu	a0,0(a0)
a000407c:	0a050463          	beqz	a0,a0004124 <_ZNK8N_puzzleILi4EE8solvableEv+0xb0>
a0004080:	fc010113          	addi	sp,sp,-64
a0004084:	00428613          	addi	a2,t0,4
a0004088:	01428513          	addi	a0,t0,20
a000408c:	00010593          	mv	a1,sp
a0004090:	ffc60793          	addi	a5,a2,-4
a0004094:	00058693          	mv	a3,a1
a0004098:	00478703          	lb	a4,4(a5)
a000409c:	00178793          	addi	a5,a5,1
a00040a0:	00071463          	bnez	a4,a00040a8 <_ZNK8N_puzzleILi4EE8solvableEv+0x34>
a00040a4:	01000713          	li	a4,16
a00040a8:	00e6a023          	sw	a4,0(a3)
a00040ac:	00468693          	addi	a3,a3,4
a00040b0:	fec794e3          	bne	a5,a2,a0004098 <_ZNK8N_puzzleILi4EE8solvableEv+0x24>
a00040b4:	00478613          	addi	a2,a5,4
a00040b8:	01058593          	addi	a1,a1,16
a00040bc:	fcc51ae3          	bne	a0,a2,a0004090 <_ZNK8N_puzzleILi4EE8solvableEv+0x1c>
a00040c0:	00410313          	addi	t1,sp,4
a00040c4:	00000693          	li	a3,0
a00040c8:	00100513          	li	a0,1
a00040cc:	04010593          	addi	a1,sp,64
a00040d0:	01000393          	li	t2,16
a00040d4:	ffc32603          	lw	a2,-4(t1)
a00040d8:	00030793          	mv	a5,t1
a00040dc:	0007a703          	lw	a4,0(a5)
a00040e0:	00478793          	addi	a5,a5,4
a00040e4:	00c72733          	slt	a4,a4,a2
a00040e8:	00e686b3          	add	a3,a3,a4
a00040ec:	fef598e3          	bne	a1,a5,a00040dc <_ZNK8N_puzzleILi4EE8solvableEv+0x68>
a00040f0:	00150513          	addi	a0,a0,1
a00040f4:	00430313          	addi	t1,t1,4
a00040f8:	fc751ee3          	bne	a0,t2,a00040d4 <_ZNK8N_puzzleILi4EE8solvableEv+0x60>
a00040fc:	0012c703          	lbu	a4,1(t0)
a0004100:	0022c783          	lbu	a5,2(t0)
a0004104:	00600513          	li	a0,6
a0004108:	40e50533          	sub	a0,a0,a4
a000410c:	40f50533          	sub	a0,a0,a5
a0004110:	00d50533          	add	a0,a0,a3
a0004114:	fff54513          	not	a0,a0
a0004118:	00157513          	andi	a0,a0,1
a000411c:	04010113          	addi	sp,sp,64
a0004120:	00008067          	ret
a0004124:	00008067          	ret

a0004128 <_ZN14Updatable_heapI8N_puzzleILi4EEE12percolate_upEi>:
a0004128:	00100793          	li	a5,1
a000412c:	06f58c63          	beq	a1,a5,a00041a4 <_ZN14Updatable_heapI8N_puzzleILi4EEE12percolate_upEi+0x7c>
a0004130:	00852683          	lw	a3,8(a0)
a0004134:	00259793          	slli	a5,a1,0x2
a0004138:	ffc10113          	addi	sp,sp,-4
a000413c:	00f687b3          	add	a5,a3,a5
a0004140:	0007a603          	lw	a2,0(a5)
a0004144:	00812023          	sw	s0,0(sp)
a0004148:	00100313          	li	t1,1
a000414c:	02462503          	lw	a0,36(a2)
a0004150:	01c0006f          	j	a000416c <_ZN14Updatable_heapI8N_puzzleILi4EEE12percolate_upEi+0x44>
a0004154:	00772023          	sw	t2,0(a4)
a0004158:	00c7a023          	sw	a2,0(a5)
a000415c:	00072783          	lw	a5,0(a4)
a0004160:	00b62e23          	sw	a1,28(a2)
a0004164:	0057ae23          	sw	t0,28(a5)
a0004168:	02658863          	beq	a1,t1,a0004198 <_ZN14Updatable_heapI8N_puzzleILi4EEE12percolate_upEi+0x70>
a000416c:	01f5d793          	srli	a5,a1,0x1f
a0004170:	00b787b3          	add	a5,a5,a1
a0004174:	00058293          	mv	t0,a1
a0004178:	4017d593          	srai	a1,a5,0x1
a000417c:	00259793          	slli	a5,a1,0x2
a0004180:	00f687b3          	add	a5,a3,a5
a0004184:	0007a383          	lw	t2,0(a5)
a0004188:	00229713          	slli	a4,t0,0x2
a000418c:	00e68733          	add	a4,a3,a4
a0004190:	0243a403          	lw	s0,36(t2)
a0004194:	fc8540e3          	blt	a0,s0,a0004154 <_ZN14Updatable_heapI8N_puzzleILi4EEE12percolate_upEi+0x2c>
a0004198:	00012403          	lw	s0,0(sp)
a000419c:	00410113          	addi	sp,sp,4
a00041a0:	00008067          	ret
a00041a4:	00008067          	ret

a00041a8 <_ZN14Updatable_heapI8N_puzzleILi4EEE4pushERKS1_i>:
a00041a8:	fec10113          	addi	sp,sp,-20
a00041ac:	00912423          	sw	s1,8(sp)
a00041b0:	00052483          	lw	s1,0(a0)
a00041b4:	00058713          	mv	a4,a1
a00041b8:	00452583          	lw	a1,4(a0)
a00041bc:	00812623          	sw	s0,12(sp)
a00041c0:	00a12223          	sw	a0,4(sp)
a00041c4:	00060413          	mv	s0,a2
a00041c8:	00048513          	mv	a0,s1
a00041cc:	00070613          	mv	a2,a4
a00041d0:	00e12023          	sw	a4,0(sp)
a00041d4:	00112823          	sw	ra,16(sp)
a00041d8:	aa5ff0ef          	jal	a0003c7c <_ZNK14Updatable_heapI8N_puzzleILi4EEE7pointerERKS1_.isra.0>
a00041dc:	00012703          	lw	a4,0(sp)
a00041e0:	00412783          	lw	a5,4(sp)
a00041e4:	02050e63          	beqz	a0,a0004220 <_ZN14Updatable_heapI8N_puzzleILi4EEE4pushERKS1_i+0x78>
a00041e8:	02854703          	lbu	a4,40(a0)
a00041ec:	02071063          	bnez	a4,a000420c <_ZN14Updatable_heapI8N_puzzleILi4EEE4pushERKS1_i+0x64>
a00041f0:	00054683          	lbu	a3,0(a0)
a00041f4:	04000713          	li	a4,64
a00041f8:	00068463          	beqz	a3,a0004200 <_ZN14Updatable_heapI8N_puzzleILi4EEE4pushERKS1_i+0x58>
a00041fc:	00350703          	lb	a4,3(a0)
a0004200:	02452683          	lw	a3,36(a0)
a0004204:	00e40433          	add	s0,s0,a4
a0004208:	14d44263          	blt	s0,a3,a000434c <_ZN14Updatable_heapI8N_puzzleILi4EEE4pushERKS1_i+0x1a4>
a000420c:	01012083          	lw	ra,16(sp)
a0004210:	00c12403          	lw	s0,12(sp)
a0004214:	00812483          	lw	s1,8(sp)
a0004218:	01410113          	addi	sp,sp,20
a000421c:	00008067          	ret
a0004220:	00c7a683          	lw	a3,12(a5)
a0004224:	14d4ce63          	blt	s1,a3,a0004380 <_ZN14Updatable_heapI8N_puzzleILi4EEE4pushERKS1_i+0x1d8>
a0004228:	00168693          	addi	a3,a3,1
a000422c:	00d7a623          	sw	a3,12(a5)
a0004230:	03000513          	li	a0,48
a0004234:	00e12223          	sw	a4,4(sp)
a0004238:	00f12023          	sw	a5,0(sp)
a000423c:	fc5fd0ef          	jal	a0002200 <bench_alloc>
a0004240:	00412703          	lw	a4,4(sp)
a0004244:	00012783          	lw	a5,0(sp)
a0004248:	00000613          	li	a2,0
a000424c:	00074383          	lbu	t2,0(a4)
a0004250:	0047a283          	lw	t0,4(a5)
a0004254:	01472303          	lw	t1,20(a4)
a0004258:	0e039663          	bnez	t2,a0004344 <_ZN14Updatable_heapI8N_puzzleILi4EEE4pushERKS1_i+0x19c>
a000425c:	0007a583          	lw	a1,0(a5)
a0004260:	00c7a483          	lw	s1,12(a5)
a0004264:	00450693          	addi	a3,a0,4
a0004268:	fff58593          	addi	a1,a1,-1
a000426c:	00c5f633          	and	a2,a1,a2
a0004270:	00261613          	slli	a2,a2,0x2
a0004274:	00c28633          	add	a2,t0,a2
a0004278:	00062603          	lw	a2,0(a2)
a000427c:	00750023          	sb	t2,0(a0)
a0004280:	00174083          	lbu	ra,1(a4)
a0004284:	00b12223          	sw	a1,4(sp)
a0004288:	00c12023          	sw	a2,0(sp)
a000428c:	001500a3          	sb	ra,1(a0)
a0004290:	00274083          	lbu	ra,2(a4)
a0004294:	00470613          	addi	a2,a4,4
a0004298:	01450593          	addi	a1,a0,20
a000429c:	00150123          	sb	ra,2(a0)
a00042a0:	00370083          	lb	ra,3(a4)
a00042a4:	00652a23          	sw	t1,20(a0)
a00042a8:	001501a3          	sb	ra,3(a0)
a00042ac:	00062303          	lw	t1,0(a2)
a00042b0:	00468693          	addi	a3,a3,4
a00042b4:	00460613          	addi	a2,a2,4
a00042b8:	fe66ae23          	sw	t1,-4(a3)
a00042bc:	feb698e3          	bne	a3,a1,a00042ac <_ZN14Updatable_heapI8N_puzzleILi4EEE4pushERKS1_i+0x104>
a00042c0:	00012683          	lw	a3,0(sp)
a00042c4:	00952e23          	sw	s1,28(a0)
a00042c8:	02852023          	sw	s0,32(a0)
a00042cc:	00d52c23          	sw	a3,24(a0)
a00042d0:	08038e63          	beqz	t2,a000436c <_ZN14Updatable_heapI8N_puzzleILi4EEE4pushERKS1_i+0x1c4>
a00042d4:	01472703          	lw	a4,20(a4)
a00042d8:	00412683          	lw	a3,4(sp)
a00042dc:	008080b3          	add	ra,ra,s0
a00042e0:	02152223          	sw	ra,36(a0)
a00042e4:	00e6f733          	and	a4,a3,a4
a00042e8:	00271713          	slli	a4,a4,0x2
a00042ec:	02050423          	sb	zero,40(a0)
a00042f0:	02052623          	sw	zero,44(a0)
a00042f4:	00e282b3          	add	t0,t0,a4
a00042f8:	0087a703          	lw	a4,8(a5)
a00042fc:	00249693          	slli	a3,s1,0x2
a0004300:	00a2a023          	sw	a0,0(t0)
a0004304:	00d70733          	add	a4,a4,a3
a0004308:	00a72023          	sw	a0,0(a4)
a000430c:	00048593          	mv	a1,s1
a0004310:	00078513          	mv	a0,a5
a0004314:	00f12023          	sw	a5,0(sp)
a0004318:	e11ff0ef          	jal	a0004128 <_ZN14Updatable_heapI8N_puzzleILi4EEE12percolate_upEi>
a000431c:	00012783          	lw	a5,0(sp)
a0004320:	0107a703          	lw	a4,16(a5)
a0004324:	00975463          	bge	a4,s1,a000432c <_ZN14Updatable_heapI8N_puzzleILi4EEE4pushERKS1_i+0x184>
a0004328:	00048713          	mv	a4,s1
a000432c:	01012083          	lw	ra,16(sp)
a0004330:	00c12403          	lw	s0,12(sp)
a0004334:	00e7a823          	sw	a4,16(a5)
a0004338:	00812483          	lw	s1,8(sp)
a000433c:	01410113          	addi	sp,sp,20
a0004340:	00008067          	ret
a0004344:	00030613          	mv	a2,t1
a0004348:	f15ff06f          	j	a000425c <_ZN14Updatable_heapI8N_puzzleILi4EEE4pushERKS1_i+0xb4>
a000434c:	02852223          	sw	s0,36(a0)
a0004350:	00c12403          	lw	s0,12(sp)
a0004354:	01c52583          	lw	a1,28(a0)
a0004358:	01012083          	lw	ra,16(sp)
a000435c:	00812483          	lw	s1,8(sp)
a0004360:	00078513          	mv	a0,a5
a0004364:	01410113          	addi	sp,sp,20
a0004368:	dc1ff06f          	j	a0004128 <_ZN14Updatable_heapI8N_puzzleILi4EEE12percolate_upEi>
a000436c:	04040413          	addi	s0,s0,64
a0004370:	02852223          	sw	s0,36(a0)
a0004374:	02050423          	sb	zero,40(a0)
a0004378:	02052623          	sw	zero,44(a0)
a000437c:	f7dff06f          	j	a00042f8 <_ZN14Updatable_heapI8N_puzzleILi4EEE4pushERKS1_i+0x150>
a0004380:	09800613          	li	a2,152
a0004384:	00003597          	auipc	a1,0x3
a0004388:	11058593          	addi	a1,a1,272 # a0007494 <rodata_start+0x3a8>
a000438c:	00003517          	auipc	a0,0x3
a0004390:	db050513          	addi	a0,a0,-592 # a000713c <rodata_start+0x50>
a0004394:	0c9010ef          	jal	a0005c5c <printf>
a0004398:	00100513          	li	a0,1
a000439c:	588010ef          	jal	a0005924 <halt>

a00043a0 <_ZN14Updatable_heapI8N_puzzleILi4EEE14percolate_downEv>:
a00043a0:	00c52783          	lw	a5,12(a0)
a00043a4:	ff010113          	addi	sp,sp,-16
a00043a8:	00078713          	mv	a4,a5
a00043ac:	00f12023          	sw	a5,0(sp)
a00043b0:	00200793          	li	a5,2
a00043b4:	12e7d463          	bge	a5,a4,a00044dc <_ZN14Updatable_heapI8N_puzzleILi4EEE14percolate_downEv+0x13c>
a00043b8:	00852583          	lw	a1,8(a0)
a00043bc:	00812623          	sw	s0,12(sp)
a00043c0:	00912423          	sw	s1,8(sp)
a00043c4:	00100693          	li	a3,1
a00043c8:	00200713          	li	a4,2
a00043cc:	00a12223          	sw	a0,4(sp)
a00043d0:	00269513          	slli	a0,a3,0x2
a00043d4:	00a58333          	add	t1,a1,a0
a00043d8:	00a30533          	add	a0,t1,a0
a00043dc:	00052283          	lw	t0,0(a0)
a00043e0:	00032403          	lw	s0,0(t1)
a00043e4:	00369513          	slli	a0,a3,0x3
a00043e8:	00a58533          	add	a0,a1,a0
a00043ec:	00452503          	lw	a0,4(a0)
a00043f0:	02442483          	lw	s1,36(s0)
a00043f4:	0242a283          	lw	t0,36(t0)
a00043f8:	00170393          	addi	t2,a4,1
a00043fc:	00271793          	slli	a5,a4,0x2
a0004400:	00239613          	slli	a2,t2,0x2
a0004404:	02452503          	lw	a0,36(a0)
a0004408:	00f587b3          	add	a5,a1,a5
a000440c:	00c58633          	add	a2,a1,a2
a0004410:	0054d463          	bge	s1,t0,a0004418 <_ZN14Updatable_heapI8N_puzzleILi4EEE14percolate_downEv+0x78>
a0004414:	06a4c663          	blt	s1,a0,a0004480 <_ZN14Updatable_heapI8N_puzzleILi4EEE14percolate_downEv+0xe0>
a0004418:	04a2d463          	bge	t0,a0,a0004460 <_ZN14Updatable_heapI8N_puzzleILi4EEE14percolate_downEv+0xc0>
a000441c:	0007a603          	lw	a2,0(a5)
a0004420:	0087a023          	sw	s0,0(a5)
a0004424:	00c32023          	sw	a2,0(t1)
a0004428:	0007a783          	lw	a5,0(a5)
a000442c:	00d62e23          	sw	a3,28(a2)
a0004430:	00070693          	mv	a3,a4
a0004434:	00e7ae23          	sw	a4,28(a5)
a0004438:	00012783          	lw	a5,0(sp)
a000443c:	00169713          	slli	a4,a3,0x1
a0004440:	f8f748e3          	blt	a4,a5,a00043d0 <_ZN14Updatable_heapI8N_puzzleILi4EEE14percolate_downEv+0x30>
a0004444:	00412503          	lw	a0,4(sp)
a0004448:	00c12403          	lw	s0,12(sp)
a000444c:	00812483          	lw	s1,8(sp)
a0004450:	00012783          	lw	a5,0(sp)
a0004454:	02f70e63          	beq	a4,a5,a0004490 <_ZN14Updatable_heapI8N_puzzleILi4EEE14percolate_downEv+0xf0>
a0004458:	01010113          	addi	sp,sp,16
a000445c:	00008067          	ret
a0004460:	00062783          	lw	a5,0(a2)
a0004464:	00862023          	sw	s0,0(a2)
a0004468:	00f32023          	sw	a5,0(t1)
a000446c:	00062703          	lw	a4,0(a2)
a0004470:	00d7ae23          	sw	a3,28(a5)
a0004474:	00038693          	mv	a3,t2
a0004478:	00772e23          	sw	t2,28(a4)
a000447c:	fbdff06f          	j	a0004438 <_ZN14Updatable_heapI8N_puzzleILi4EEE14percolate_downEv+0x98>
a0004480:	00c12403          	lw	s0,12(sp)
a0004484:	00812483          	lw	s1,8(sp)
a0004488:	01010113          	addi	sp,sp,16
a000448c:	00008067          	ret
a0004490:	00852583          	lw	a1,8(a0)
a0004494:	00269793          	slli	a5,a3,0x2
a0004498:	00369613          	slli	a2,a3,0x3
a000449c:	00c58633          	add	a2,a1,a2
a00044a0:	00f587b3          	add	a5,a1,a5
a00044a4:	00062303          	lw	t1,0(a2)
a00044a8:	0007a503          	lw	a0,0(a5)
a00044ac:	02432303          	lw	t1,36(t1)
a00044b0:	02452603          	lw	a2,36(a0)
a00044b4:	fac352e3          	bge	t1,a2,a0004458 <_ZN14Updatable_heapI8N_puzzleILi4EEE14percolate_downEv+0xb8>
a00044b8:	00271613          	slli	a2,a4,0x2
a00044bc:	00c58633          	add	a2,a1,a2
a00044c0:	00062583          	lw	a1,0(a2)
a00044c4:	00a62023          	sw	a0,0(a2)
a00044c8:	00b7a023          	sw	a1,0(a5)
a00044cc:	00062783          	lw	a5,0(a2)
a00044d0:	00d5ae23          	sw	a3,28(a1)
a00044d4:	00e7ae23          	sw	a4,28(a5)
a00044d8:	f81ff06f          	j	a0004458 <_ZN14Updatable_heapI8N_puzzleILi4EEE14percolate_downEv+0xb8>
a00044dc:	00100693          	li	a3,1
a00044e0:	00200713          	li	a4,2
a00044e4:	f6dff06f          	j	a0004450 <_ZN14Updatable_heapI8N_puzzleILi4EEE14percolate_downEv+0xb0>

a00044e8 <bench_15pz_run>:
a00044e8:	f4010113          	addi	sp,sp,-192
a00044ec:	02c10513          	addi	a0,sp,44
a00044f0:	0a112e23          	sw	ra,188(sp)
a00044f4:	0a812c23          	sw	s0,184(sp)
a00044f8:	0a912a23          	sw	s1,180(sp)
a00044fc:	83dff0ef          	jal	a0003d38 <_ZN8N_puzzleILi4EEC1Ev>
a0004500:	00ffc797          	auipc	a5,0xffc
a0004504:	1cc7a783          	lw	a5,460(a5) # a10006cc <setting>
a0004508:	0007a783          	lw	a5,0(a5)
a000450c:	00200713          	li	a4,2
a0004510:	18e786e3          	beq	a5,a4,a0004e9c <bench_15pz_run+0x9b4>
a0004514:	12f742e3          	blt	a4,a5,a0004e38 <bench_15pz_run+0x950>
a0004518:	06078663          	beqz	a5,a0004584 <bench_15pz_run+0x9c>
a000451c:	00100713          	li	a4,1
a0004520:	20e79ce3          	bne	a5,a4,a0004f38 <bench_15pz_run+0xa50>
a0004524:	07410793          	addi	a5,sp,116
a0004528:	00078513          	mv	a0,a5
a000452c:	00ffc597          	auipc	a1,0xffc
a0004530:	e9c58593          	addi	a1,a1,-356 # a10003c8 <_ZL8PUZZLE_M>
a0004534:	00078413          	mv	s0,a5
a0004538:	00f12223          	sw	a5,4(sp)
a000453c:	9b5ff0ef          	jal	a0003ef0 <_ZN8N_puzzleILi4EEC1EPi>
a0004540:	07412783          	lw	a5,116(sp)
a0004544:	08410613          	addi	a2,sp,132
a0004548:	03010713          	addi	a4,sp,48
a000454c:	02f12623          	sw	a5,44(sp)
a0004550:	08812783          	lw	a5,136(sp)
a0004554:	02c12023          	sw	a2,32(sp)
a0004558:	04f12023          	sw	a5,64(sp)
a000455c:	00040793          	mv	a5,s0
a0004560:	0047a683          	lw	a3,4(a5)
a0004564:	00478793          	addi	a5,a5,4
a0004568:	00470713          	addi	a4,a4,4
a000456c:	fed72e23          	sw	a3,-4(a4)
a0004570:	fef618e3          	bne	a2,a5,a0004560 <bench_15pz_run+0x78>
a0004574:	000017b7          	lui	a5,0x1
a0004578:	80078793          	addi	a5,a5,-2048 # 800 <data_size+0x1a8>
a000457c:	00f12c23          	sw	a5,24(sp)
a0004580:	05c0006f          	j	a00045dc <bench_15pz_run+0xf4>
a0004584:	07410793          	addi	a5,sp,116
a0004588:	00078513          	mv	a0,a5
a000458c:	00ffc597          	auipc	a1,0xffc
a0004590:	e7c58593          	addi	a1,a1,-388 # a1000408 <_ZL8PUZZLE_S>
a0004594:	00078413          	mv	s0,a5
a0004598:	00f12223          	sw	a5,4(sp)
a000459c:	955ff0ef          	jal	a0003ef0 <_ZN8N_puzzleILi4EEC1EPi>
a00045a0:	07412783          	lw	a5,116(sp)
a00045a4:	08410613          	addi	a2,sp,132
a00045a8:	03010713          	addi	a4,sp,48
a00045ac:	02f12623          	sw	a5,44(sp)
a00045b0:	08812783          	lw	a5,136(sp)
a00045b4:	02c12023          	sw	a2,32(sp)
a00045b8:	04f12023          	sw	a5,64(sp)
a00045bc:	00040793          	mv	a5,s0
a00045c0:	0047a683          	lw	a3,4(a5)
a00045c4:	00478793          	addi	a5,a5,4
a00045c8:	00470713          	addi	a4,a4,4
a00045cc:	fed72e23          	sw	a3,-4(a4)
a00045d0:	fec798e3          	bne	a5,a2,a00045c0 <bench_15pz_run+0xd8>
a00045d4:	00a00793          	li	a5,10
a00045d8:	00f12c23          	sw	a5,24(sp)
a00045dc:	02c10513          	addi	a0,sp,44
a00045e0:	a95ff0ef          	jal	a0004074 <_ZNK8N_puzzleILi4EE8solvableEv>
a00045e4:	10050ae3          	beqz	a0,a0004ef8 <bench_15pz_run+0xa10>
a00045e8:	01400513          	li	a0,20
a00045ec:	c15fd0ef          	jal	a0002200 <bench_alloc>
a00045f0:	01812783          	lw	a5,24(sp)
a00045f4:	00050493          	mv	s1,a0
a00045f8:	00f52023          	sw	a5,0(a0)
a00045fc:	00279513          	slli	a0,a5,0x2
a0004600:	c01fd0ef          	jal	a0002200 <bench_alloc>
a0004604:	0004a783          	lw	a5,0(s1)
a0004608:	00a4a423          	sw	a0,8(s1)
a000460c:	00178793          	addi	a5,a5,1
a0004610:	00279513          	slli	a0,a5,0x2
a0004614:	bedfd0ef          	jal	a0002200 <bench_alloc>
a0004618:	0004a603          	lw	a2,0(s1)
a000461c:	00a4a223          	sw	a0,4(s1)
a0004620:	0004a623          	sw	zero,12(s1)
a0004624:	00261713          	slli	a4,a2,0x2
a0004628:	0004a823          	sw	zero,16(s1)
a000462c:	00050793          	mv	a5,a0
a0004630:	00e50733          	add	a4,a0,a4
a0004634:	00c05863          	blez	a2,a0004644 <bench_15pz_run+0x15c>
a0004638:	0007a023          	sw	zero,0(a5)
a000463c:	00478793          	addi	a5,a5,4
a0004640:	fee79ce3          	bne	a5,a4,a0004638 <bench_15pz_run+0x150>
a0004644:	02c10593          	addi	a1,sp,44
a0004648:	00000613          	li	a2,0
a000464c:	00048513          	mv	a0,s1
a0004650:	b59ff0ef          	jal	a00041a8 <_ZN14Updatable_heapI8N_puzzleILi4EEE4pushERKS1_i>
a0004654:	00c4a583          	lw	a1,12(s1)
a0004658:	fff00793          	li	a5,-1
a000465c:	00ffc717          	auipc	a4,0xffc
a0004660:	09070713          	addi	a4,a4,144 # a10006ec <_ZL3ans>
a0004664:	00f72023          	sw	a5,0(a4)
a0004668:	00012423          	sw	zero,8(sp)
a000466c:	00048413          	mv	s0,s1
a0004670:	18058063          	beqz	a1,a00047f0 <bench_15pz_run+0x308>
a0004674:	00842283          	lw	t0,8(s0)
a0004678:	07810693          	addi	a3,sp,120
a000467c:	0042a703          	lw	a4,4(t0)
a0004680:	00174783          	lbu	a5,1(a4)
a0004684:	00074483          	lbu	s1,0(a4)
a0004688:	00072303          	lw	t1,0(a4)
a000468c:	00f12623          	sw	a5,12(sp)
a0004690:	00274783          	lbu	a5,2(a4)
a0004694:	00f12823          	sw	a5,16(sp)
a0004698:	00370783          	lb	a5,3(a4)
a000469c:	00f12a23          	sw	a5,20(sp)
a00046a0:	01472783          	lw	a5,20(a4)
a00046a4:	00f12023          	sw	a5,0(sp)
a00046a8:	00470793          	addi	a5,a4,4
a00046ac:	01470713          	addi	a4,a4,20
a00046b0:	0007a603          	lw	a2,0(a5)
a00046b4:	00478793          	addi	a5,a5,4
a00046b8:	00468693          	addi	a3,a3,4
a00046bc:	fec6ae23          	sw	a2,-4(a3)
a00046c0:	fef718e3          	bne	a4,a5,a00046b0 <bench_15pz_run+0x1c8>
a00046c4:	00100793          	li	a5,1
a00046c8:	74f58463          	beq	a1,a5,a0004e10 <bench_15pz_run+0x928>
a00046cc:	04b7d6e3          	bge	a5,a1,a0004f18 <bench_15pz_run+0xa30>
a00046d0:	00259713          	slli	a4,a1,0x2
a00046d4:	00e28733          	add	a4,t0,a4
a00046d8:	00072703          	lw	a4,0(a4)
a00046dc:	fff58593          	addi	a1,a1,-1
a00046e0:	00040513          	mv	a0,s0
a00046e4:	00e2a223          	sw	a4,4(t0)
a00046e8:	00f72e23          	sw	a5,28(a4)
a00046ec:	00b42623          	sw	a1,12(s0)
a00046f0:	00612e23          	sw	t1,28(sp)
a00046f4:	cadff0ef          	jal	a00043a0 <_ZN14Updatable_heapI8N_puzzleILi4EEE14percolate_downEv>
a00046f8:	01c12303          	lw	t1,28(sp)
a00046fc:	00012783          	lw	a5,0(sp)
a0004700:	02012603          	lw	a2,32(sp)
a0004704:	04612223          	sw	t1,68(sp)
a0004708:	04f12c23          	sw	a5,88(sp)
a000470c:	00412783          	lw	a5,4(sp)
a0004710:	04810713          	addi	a4,sp,72
a0004714:	0047a683          	lw	a3,4(a5)
a0004718:	00478793          	addi	a5,a5,4
a000471c:	00470713          	addi	a4,a4,4
a0004720:	fed72e23          	sw	a3,-4(a4)
a0004724:	fef618e3          	bne	a2,a5,a0004714 <bench_15pz_run+0x22c>
a0004728:	00812783          	lw	a5,8(sp)
a000472c:	00412703          	lw	a4,4(sp)
a0004730:	00f00693          	li	a3,15
a0004734:	00178793          	addi	a5,a5,1
a0004738:	00f12423          	sw	a5,8(sp)
a000473c:	00000793          	li	a5,0
a0004740:	00178793          	addi	a5,a5,1
a0004744:	00f72023          	sw	a5,0(a4)
a0004748:	00470713          	addi	a4,a4,4
a000474c:	fed79ae3          	bne	a5,a3,a0004740 <bench_15pz_run+0x258>
a0004750:	00412583          	lw	a1,4(sp)
a0004754:	05c10513          	addi	a0,sp,92
a0004758:	0a012823          	sw	zero,176(sp)
a000475c:	f94ff0ef          	jal	a0003ef0 <_ZN8N_puzzleILi4EEC1EPi>
a0004760:	50048e63          	beqz	s1,a0004c7c <bench_15pz_run+0x794>
a0004764:	05c14783          	lbu	a5,92(sp)
a0004768:	08078e63          	beqz	a5,a0004804 <bench_15pz_run+0x31c>
a000476c:	07012783          	lw	a5,112(sp)
a0004770:	00012703          	lw	a4,0(sp)
a0004774:	08e79863          	bne	a5,a4,a0004804 <bench_15pz_run+0x31c>
a0004778:	04410793          	addi	a5,sp,68
a000477c:	00f12023          	sw	a5,0(sp)
a0004780:	00078613          	mv	a2,a5
a0004784:	05c10593          	addi	a1,sp,92
a0004788:	05410493          	addi	s1,sp,84
a000478c:	00400513          	li	a0,4
a0004790:	00000793          	li	a5,0
a0004794:	00f606b3          	add	a3,a2,a5
a0004798:	00f58733          	add	a4,a1,a5
a000479c:	00468683          	lb	a3,4(a3)
a00047a0:	00470703          	lb	a4,4(a4)
a00047a4:	06e69663          	bne	a3,a4,a0004810 <bench_15pz_run+0x328>
a00047a8:	00178793          	addi	a5,a5,1
a00047ac:	fea794e3          	bne	a5,a0,a0004794 <bench_15pz_run+0x2ac>
a00047b0:	00460613          	addi	a2,a2,4
a00047b4:	00458593          	addi	a1,a1,4
a00047b8:	fcc49ce3          	bne	s1,a2,a0004790 <bench_15pz_run+0x2a8>
a00047bc:	00442583          	lw	a1,4(s0)
a00047c0:	00042503          	lw	a0,0(s0)
a00047c4:	00012603          	lw	a2,0(sp)
a00047c8:	cb4ff0ef          	jal	a0003c7c <_ZNK14Updatable_heapI8N_puzzleILi4EEE7pointerERKS1_.isra.0>
a00047cc:	800005b7          	lui	a1,0x80000
a00047d0:	fff58593          	addi	a1,a1,-1 # 7fffffff <data_load_start+0x4fff803b>
a00047d4:	00050463          	beqz	a0,a00047dc <bench_15pz_run+0x2f4>
a00047d8:	02052583          	lw	a1,32(a0)
a00047dc:	00812503          	lw	a0,8(sp)
a00047e0:	34c010ef          	jal	a0005b2c <__mulsi3>
a00047e4:	00ffc797          	auipc	a5,0xffc
a00047e8:	f0878793          	addi	a5,a5,-248 # a10006ec <_ZL3ans>
a00047ec:	00a7a023          	sw	a0,0(a5)
a00047f0:	0bc12083          	lw	ra,188(sp)
a00047f4:	0b812403          	lw	s0,184(sp)
a00047f8:	0b412483          	lw	s1,180(sp)
a00047fc:	0c010113          	addi	sp,sp,192
a0004800:	00008067          	ret
a0004804:	04410793          	addi	a5,sp,68
a0004808:	00f12023          	sw	a5,0(sp)
a000480c:	05410493          	addi	s1,sp,84
a0004810:	01414783          	lbu	a5,20(sp)
a0004814:	01012603          	lw	a2,16(sp)
a0004818:	00300693          	li	a3,3
a000481c:	00f12a23          	sw	a5,20(sp)
a0004820:	07810713          	addi	a4,sp,120
a0004824:	00012783          	lw	a5,0(sp)
a0004828:	46d60e63          	beq	a2,a3,a0004ca4 <bench_15pz_run+0x7bc>
a000482c:	0047a683          	lw	a3,4(a5)
a0004830:	00478793          	addi	a5,a5,4
a0004834:	00470713          	addi	a4,a4,4
a0004838:	fed72e23          	sw	a3,-4(a4)
a000483c:	fef498e3          	bne	s1,a5,a000482c <bench_15pz_run+0x344>
a0004840:	00c12783          	lw	a5,12(sp)
a0004844:	01012283          	lw	t0,16(sp)
a0004848:	02c10713          	addi	a4,sp,44
a000484c:	00279793          	slli	a5,a5,0x2
a0004850:	02f12423          	sw	a5,40(sp)
a0004854:	08878793          	addi	a5,a5,136
a0004858:	00128313          	addi	t1,t0,1
a000485c:	00e78733          	add	a4,a5,a4
a0004860:	006707b3          	add	a5,a4,t1
a0004864:	f9478683          	lb	a3,-108(a5)
a0004868:	005705b3          	add	a1,a4,t0
a000486c:	0ff37613          	zext.b	a2,t1
a0004870:	fff68793          	addi	a5,a3,-1
a0004874:	41f7d513          	srai	a0,a5,0x1f
a0004878:	01e55513          	srli	a0,a0,0x1e
a000487c:	00a787b3          	add	a5,a5,a0
a0004880:	0037f793          	andi	a5,a5,3
a0004884:	40a787b3          	sub	a5,a5,a0
a0004888:	40578533          	sub	a0,a5,t0
a000488c:	406787b3          	sub	a5,a5,t1
a0004890:	41f7d293          	srai	t0,a5,0x1f
a0004894:	41f55393          	srai	t2,a0,0x1f
a0004898:	00f2c7b3          	xor	a5,t0,a5
a000489c:	00a3c533          	xor	a0,t2,a0
a00048a0:	405787b3          	sub	a5,a5,t0
a00048a4:	40750533          	sub	a0,a0,t2
a00048a8:	40f50533          	sub	a0,a0,a5
a00048ac:	01412783          	lw	a5,20(sp)
a00048b0:	00c70733          	add	a4,a4,a2
a00048b4:	00412603          	lw	a2,4(sp)
a00048b8:	00a78533          	add	a0,a5,a0
a00048bc:	fcd58223          	sb	a3,-60(a1)
a00048c0:	01851513          	slli	a0,a0,0x18
a00048c4:	08810293          	addi	t0,sp,136
a00048c8:	41855513          	srai	a0,a0,0x18
a00048cc:	0ff37313          	zext.b	t1,t1
a00048d0:	fc070223          	sb	zero,-60(a4)
a00048d4:	07810593          	addi	a1,sp,120
a00048d8:	02512223          	sw	t0,36(sp)
a00048dc:	00000793          	li	a5,0
a00048e0:	ffc58693          	addi	a3,a1,-4
a00048e4:	00579713          	slli	a4,a5,0x5
a00048e8:	40f70733          	sub	a4,a4,a5
a00048ec:	00271713          	slli	a4,a4,0x2
a00048f0:	40f70733          	sub	a4,a4,a5
a00048f4:	00271713          	slli	a4,a4,0x2
a00048f8:	00468383          	lb	t2,4(a3)
a00048fc:	00f70733          	add	a4,a4,a5
a0004900:	00271713          	slli	a4,a4,0x2
a0004904:	00f707b3          	add	a5,a4,a5
a0004908:	00168693          	addi	a3,a3,1
a000490c:	007787b3          	add	a5,a5,t2
a0004910:	fcb69ae3          	bne	a3,a1,a00048e4 <bench_15pz_run+0x3fc>
a0004914:	00468593          	addi	a1,a3,4
a0004918:	fcb294e3          	bne	t0,a1,a00048e0 <bench_15pz_run+0x3f8>
a000491c:	00100713          	li	a4,1
a0004920:	04e10e23          	sb	a4,92(sp)
a0004924:	00c12703          	lw	a4,12(sp)
a0004928:	06010693          	addi	a3,sp,96
a000492c:	00d12e23          	sw	a3,28(sp)
a0004930:	04e10ea3          	sb	a4,93(sp)
a0004934:	00412703          	lw	a4,4(sp)
a0004938:	06f12823          	sw	a5,112(sp)
a000493c:	04610f23          	sb	t1,94(sp)
a0004940:	00068793          	mv	a5,a3
a0004944:	04a10fa3          	sb	a0,95(sp)
a0004948:	01070693          	addi	a3,a4,16
a000494c:	00462703          	lw	a4,4(a2)
a0004950:	00460613          	addi	a2,a2,4
a0004954:	00478793          	addi	a5,a5,4
a0004958:	fee7ae23          	sw	a4,-4(a5)
a000495c:	fec698e3          	bne	a3,a2,a000494c <bench_15pz_run+0x464>
a0004960:	00442583          	lw	a1,4(s0)
a0004964:	00042503          	lw	a0,0(s0)
a0004968:	00012603          	lw	a2,0(sp)
a000496c:	b10ff0ef          	jal	a0003c7c <_ZNK14Updatable_heapI8N_puzzleILi4EEE7pointerERKS1_.isra.0>
a0004970:	4a050463          	beqz	a0,a0004e18 <bench_15pz_run+0x930>
a0004974:	02052603          	lw	a2,32(a0)
a0004978:	00160613          	addi	a2,a2,1
a000497c:	05c10593          	addi	a1,sp,92
a0004980:	00040513          	mv	a0,s0
a0004984:	825ff0ef          	jal	a00041a8 <_ZN14Updatable_heapI8N_puzzleILi4EEE4pushERKS1_i>
a0004988:	01012783          	lw	a5,16(sp)
a000498c:	32079a63          	bnez	a5,a0004cc0 <bench_15pz_run+0x7d8>
a0004990:	00c12603          	lw	a2,12(sp)
a0004994:	00300693          	li	a3,3
a0004998:	00012783          	lw	a5,0(sp)
a000499c:	07810713          	addi	a4,sp,120
a00049a0:	16d60a63          	beq	a2,a3,a0004b14 <bench_15pz_run+0x62c>
a00049a4:	0047a683          	lw	a3,4(a5)
a00049a8:	00478793          	addi	a5,a5,4
a00049ac:	00470713          	addi	a4,a4,4
a00049b0:	fed72e23          	sw	a3,-4(a4)
a00049b4:	fe9798e3          	bne	a5,s1,a00049a4 <bench_15pz_run+0x4bc>
a00049b8:	00c12583          	lw	a1,12(sp)
a00049bc:	01012383          	lw	t2,16(sp)
a00049c0:	02c10713          	addi	a4,sp,44
a00049c4:	00158313          	addi	t1,a1,1
a00049c8:	00231793          	slli	a5,t1,0x2
a00049cc:	08878793          	addi	a5,a5,136
a00049d0:	00e787b3          	add	a5,a5,a4
a00049d4:	007787b3          	add	a5,a5,t2
a00049d8:	f9478683          	lb	a3,-108(a5)
a00049dc:	0ff37713          	zext.b	a4,t1
a00049e0:	00271713          	slli	a4,a4,0x2
a00049e4:	fff68613          	addi	a2,a3,-1
a00049e8:	41f65793          	srai	a5,a2,0x1f
a00049ec:	0037f793          	andi	a5,a5,3
a00049f0:	00c787b3          	add	a5,a5,a2
a00049f4:	4027d793          	srai	a5,a5,0x2
a00049f8:	40b78633          	sub	a2,a5,a1
a00049fc:	406787b3          	sub	a5,a5,t1
a0004a00:	41f65293          	srai	t0,a2,0x1f
a0004a04:	41f7d593          	srai	a1,a5,0x1f
a0004a08:	00c2c533          	xor	a0,t0,a2
a0004a0c:	00f5c7b3          	xor	a5,a1,a5
a0004a10:	40b787b3          	sub	a5,a5,a1
a0004a14:	40550533          	sub	a0,a0,t0
a0004a18:	40f50533          	sub	a0,a0,a5
a0004a1c:	02812783          	lw	a5,40(sp)
a0004a20:	02c10613          	addi	a2,sp,44
a0004a24:	02412283          	lw	t0,36(sp)
a0004a28:	08878793          	addi	a5,a5,136
a0004a2c:	00c78633          	add	a2,a5,a2
a0004a30:	08870793          	addi	a5,a4,136
a0004a34:	02c10713          	addi	a4,sp,44
a0004a38:	00e787b3          	add	a5,a5,a4
a0004a3c:	01412703          	lw	a4,20(sp)
a0004a40:	00760633          	add	a2,a2,t2
a0004a44:	fcd60223          	sb	a3,-60(a2)
a0004a48:	00a70533          	add	a0,a4,a0
a0004a4c:	00412603          	lw	a2,4(sp)
a0004a50:	007787b3          	add	a5,a5,t2
a0004a54:	01851513          	slli	a0,a0,0x18
a0004a58:	fc078223          	sb	zero,-60(a5)
a0004a5c:	41855513          	srai	a0,a0,0x18
a0004a60:	0ff37313          	zext.b	t1,t1
a0004a64:	07810593          	addi	a1,sp,120
a0004a68:	00000793          	li	a5,0
a0004a6c:	ffc58693          	addi	a3,a1,-4
a0004a70:	00579713          	slli	a4,a5,0x5
a0004a74:	40f70733          	sub	a4,a4,a5
a0004a78:	00271713          	slli	a4,a4,0x2
a0004a7c:	40f70733          	sub	a4,a4,a5
a0004a80:	00271713          	slli	a4,a4,0x2
a0004a84:	00468383          	lb	t2,4(a3)
a0004a88:	00f70733          	add	a4,a4,a5
a0004a8c:	00271713          	slli	a4,a4,0x2
a0004a90:	00f707b3          	add	a5,a4,a5
a0004a94:	00168693          	addi	a3,a3,1
a0004a98:	007787b3          	add	a5,a5,t2
a0004a9c:	fcb69ae3          	bne	a3,a1,a0004a70 <bench_15pz_run+0x588>
a0004aa0:	00468593          	addi	a1,a3,4
a0004aa4:	fcb294e3          	bne	t0,a1,a0004a6c <bench_15pz_run+0x584>
a0004aa8:	00100713          	li	a4,1
a0004aac:	04e10e23          	sb	a4,92(sp)
a0004ab0:	01012703          	lw	a4,16(sp)
a0004ab4:	06f12823          	sw	a5,112(sp)
a0004ab8:	01c12783          	lw	a5,28(sp)
a0004abc:	04e10f23          	sb	a4,94(sp)
a0004ac0:	00412703          	lw	a4,4(sp)
a0004ac4:	04610ea3          	sb	t1,93(sp)
a0004ac8:	04a10fa3          	sb	a0,95(sp)
a0004acc:	01070693          	addi	a3,a4,16
a0004ad0:	00462703          	lw	a4,4(a2)
a0004ad4:	00460613          	addi	a2,a2,4
a0004ad8:	00478793          	addi	a5,a5,4
a0004adc:	fee7ae23          	sw	a4,-4(a5)
a0004ae0:	fed618e3          	bne	a2,a3,a0004ad0 <bench_15pz_run+0x5e8>
a0004ae4:	00442583          	lw	a1,4(s0)
a0004ae8:	00042503          	lw	a0,0(s0)
a0004aec:	00012603          	lw	a2,0(sp)
a0004af0:	98cff0ef          	jal	a0003c7c <_ZNK14Updatable_heapI8N_puzzleILi4EEE7pointerERKS1_.isra.0>
a0004af4:	32050663          	beqz	a0,a0004e20 <bench_15pz_run+0x938>
a0004af8:	02052603          	lw	a2,32(a0)
a0004afc:	00160613          	addi	a2,a2,1
a0004b00:	05c10593          	addi	a1,sp,92
a0004b04:	00040513          	mv	a0,s0
a0004b08:	ea0ff0ef          	jal	a00041a8 <_ZN14Updatable_heapI8N_puzzleILi4EEE4pushERKS1_i>
a0004b0c:	00c12783          	lw	a5,12(sp)
a0004b10:	16078663          	beqz	a5,a0004c7c <bench_15pz_run+0x794>
a0004b14:	00012783          	lw	a5,0(sp)
a0004b18:	07810713          	addi	a4,sp,120
a0004b1c:	0047a683          	lw	a3,4(a5)
a0004b20:	00478793          	addi	a5,a5,4
a0004b24:	00470713          	addi	a4,a4,4
a0004b28:	fed72e23          	sw	a3,-4(a4)
a0004b2c:	fef498e3          	bne	s1,a5,a0004b1c <bench_15pz_run+0x634>
a0004b30:	00c12503          	lw	a0,12(sp)
a0004b34:	01012383          	lw	t2,16(sp)
a0004b38:	02c10713          	addi	a4,sp,44
a0004b3c:	fff50593          	addi	a1,a0,-1
a0004b40:	00259793          	slli	a5,a1,0x2
a0004b44:	08878793          	addi	a5,a5,136
a0004b48:	00e787b3          	add	a5,a5,a4
a0004b4c:	007787b3          	add	a5,a5,t2
a0004b50:	f9478683          	lb	a3,-108(a5)
a0004b54:	02812783          	lw	a5,40(sp)
a0004b58:	0ff5f313          	zext.b	t1,a1
a0004b5c:	fff68613          	addi	a2,a3,-1
a0004b60:	08878793          	addi	a5,a5,136
a0004b64:	00e78733          	add	a4,a5,a4
a0004b68:	41f65793          	srai	a5,a2,0x1f
a0004b6c:	0037f793          	andi	a5,a5,3
a0004b70:	00c787b3          	add	a5,a5,a2
a0004b74:	4027d793          	srai	a5,a5,0x2
a0004b78:	40a78633          	sub	a2,a5,a0
a0004b7c:	40b787b3          	sub	a5,a5,a1
a0004b80:	41f65293          	srai	t0,a2,0x1f
a0004b84:	41f7d593          	srai	a1,a5,0x1f
a0004b88:	00c2c533          	xor	a0,t0,a2
a0004b8c:	00f5c7b3          	xor	a5,a1,a5
a0004b90:	40b787b3          	sub	a5,a5,a1
a0004b94:	40550533          	sub	a0,a0,t0
a0004b98:	00231613          	slli	a2,t1,0x2
a0004b9c:	40f50533          	sub	a0,a0,a5
a0004ba0:	08860793          	addi	a5,a2,136
a0004ba4:	02c10613          	addi	a2,sp,44
a0004ba8:	00c787b3          	add	a5,a5,a2
a0004bac:	01412603          	lw	a2,20(sp)
a0004bb0:	00770733          	add	a4,a4,t2
a0004bb4:	00412583          	lw	a1,4(sp)
a0004bb8:	00a60533          	add	a0,a2,a0
a0004bbc:	02412283          	lw	t0,36(sp)
a0004bc0:	007787b3          	add	a5,a5,t2
a0004bc4:	fcd70223          	sb	a3,-60(a4)
a0004bc8:	01851513          	slli	a0,a0,0x18
a0004bcc:	fc078223          	sb	zero,-60(a5)
a0004bd0:	41855513          	srai	a0,a0,0x18
a0004bd4:	07810613          	addi	a2,sp,120
a0004bd8:	00000793          	li	a5,0
a0004bdc:	ffc60693          	addi	a3,a2,-4
a0004be0:	00579713          	slli	a4,a5,0x5
a0004be4:	40f70733          	sub	a4,a4,a5
a0004be8:	00271713          	slli	a4,a4,0x2
a0004bec:	40f70733          	sub	a4,a4,a5
a0004bf0:	00271713          	slli	a4,a4,0x2
a0004bf4:	00468383          	lb	t2,4(a3)
a0004bf8:	00f70733          	add	a4,a4,a5
a0004bfc:	00271713          	slli	a4,a4,0x2
a0004c00:	00f707b3          	add	a5,a4,a5
a0004c04:	00168693          	addi	a3,a3,1
a0004c08:	007787b3          	add	a5,a5,t2
a0004c0c:	fcd61ae3          	bne	a2,a3,a0004be0 <bench_15pz_run+0x6f8>
a0004c10:	00460613          	addi	a2,a2,4
a0004c14:	fcc294e3          	bne	t0,a2,a0004bdc <bench_15pz_run+0x6f4>
a0004c18:	00100713          	li	a4,1
a0004c1c:	04e10e23          	sb	a4,92(sp)
a0004c20:	01012703          	lw	a4,16(sp)
a0004c24:	06f12823          	sw	a5,112(sp)
a0004c28:	01c12783          	lw	a5,28(sp)
a0004c2c:	04e10f23          	sb	a4,94(sp)
a0004c30:	00412703          	lw	a4,4(sp)
a0004c34:	04610ea3          	sb	t1,93(sp)
a0004c38:	04a10fa3          	sb	a0,95(sp)
a0004c3c:	01070693          	addi	a3,a4,16
a0004c40:	0045a703          	lw	a4,4(a1)
a0004c44:	00458593          	addi	a1,a1,4
a0004c48:	00478793          	addi	a5,a5,4
a0004c4c:	fee7ae23          	sw	a4,-4(a5)
a0004c50:	fed598e3          	bne	a1,a3,a0004c40 <bench_15pz_run+0x758>
a0004c54:	00442583          	lw	a1,4(s0)
a0004c58:	00042503          	lw	a0,0(s0)
a0004c5c:	00012603          	lw	a2,0(sp)
a0004c60:	81cff0ef          	jal	a0003c7c <_ZNK14Updatable_heapI8N_puzzleILi4EEE7pointerERKS1_.isra.0>
a0004c64:	1c050663          	beqz	a0,a0004e30 <bench_15pz_run+0x948>
a0004c68:	02052603          	lw	a2,32(a0)
a0004c6c:	00160613          	addi	a2,a2,1
a0004c70:	05c10593          	addi	a1,sp,92
a0004c74:	00040513          	mv	a0,s0
a0004c78:	d30ff0ef          	jal	a00041a8 <_ZN14Updatable_heapI8N_puzzleILi4EEE4pushERKS1_i>
a0004c7c:	00c42583          	lw	a1,12(s0)
a0004c80:	b60588e3          	beqz	a1,a00047f0 <bench_15pz_run+0x308>
a0004c84:	01812783          	lw	a5,24(sp)
a0004c88:	00812703          	lw	a4,8(sp)
a0004c8c:	9ee794e3          	bne	a5,a4,a0004674 <bench_15pz_run+0x18c>
a0004c90:	0bc12083          	lw	ra,188(sp)
a0004c94:	0b812403          	lw	s0,184(sp)
a0004c98:	0b412483          	lw	s1,180(sp)
a0004c9c:	0c010113          	addi	sp,sp,192
a0004ca0:	00008067          	ret
a0004ca4:	00c12783          	lw	a5,12(sp)
a0004ca8:	00279793          	slli	a5,a5,0x2
a0004cac:	02f12423          	sw	a5,40(sp)
a0004cb0:	08810793          	addi	a5,sp,136
a0004cb4:	02f12223          	sw	a5,36(sp)
a0004cb8:	06010793          	addi	a5,sp,96
a0004cbc:	00f12e23          	sw	a5,28(sp)
a0004cc0:	00012783          	lw	a5,0(sp)
a0004cc4:	07810713          	addi	a4,sp,120
a0004cc8:	0047a683          	lw	a3,4(a5)
a0004ccc:	00478793          	addi	a5,a5,4
a0004cd0:	00470713          	addi	a4,a4,4
a0004cd4:	fed72e23          	sw	a3,-4(a4)
a0004cd8:	fe9798e3          	bne	a5,s1,a0004cc8 <bench_15pz_run+0x7e0>
a0004cdc:	02812783          	lw	a5,40(sp)
a0004ce0:	01012283          	lw	t0,16(sp)
a0004ce4:	02c10713          	addi	a4,sp,44
a0004ce8:	08878793          	addi	a5,a5,136
a0004cec:	fff28513          	addi	a0,t0,-1
a0004cf0:	00e78733          	add	a4,a5,a4
a0004cf4:	00a707b3          	add	a5,a4,a0
a0004cf8:	f9478683          	lb	a3,-108(a5)
a0004cfc:	00570633          	add	a2,a4,t0
a0004d00:	0ff57313          	zext.b	t1,a0
a0004d04:	fff68793          	addi	a5,a3,-1
a0004d08:	41f7d593          	srai	a1,a5,0x1f
a0004d0c:	01e5d593          	srli	a1,a1,0x1e
a0004d10:	00b787b3          	add	a5,a5,a1
a0004d14:	0037f793          	andi	a5,a5,3
a0004d18:	40b787b3          	sub	a5,a5,a1
a0004d1c:	405785b3          	sub	a1,a5,t0
a0004d20:	40a787b3          	sub	a5,a5,a0
a0004d24:	41f5d393          	srai	t2,a1,0x1f
a0004d28:	41f7d293          	srai	t0,a5,0x1f
a0004d2c:	00b3c533          	xor	a0,t2,a1
a0004d30:	00f2c7b3          	xor	a5,t0,a5
a0004d34:	405787b3          	sub	a5,a5,t0
a0004d38:	40750533          	sub	a0,a0,t2
a0004d3c:	40f50533          	sub	a0,a0,a5
a0004d40:	01412783          	lw	a5,20(sp)
a0004d44:	fcd60223          	sb	a3,-60(a2)
a0004d48:	02412283          	lw	t0,36(sp)
a0004d4c:	00a78533          	add	a0,a5,a0
a0004d50:	00412603          	lw	a2,4(sp)
a0004d54:	00670733          	add	a4,a4,t1
a0004d58:	01851513          	slli	a0,a0,0x18
a0004d5c:	41855513          	srai	a0,a0,0x18
a0004d60:	fc070223          	sb	zero,-60(a4)
a0004d64:	07810593          	addi	a1,sp,120
a0004d68:	00000793          	li	a5,0
a0004d6c:	ffc58693          	addi	a3,a1,-4
a0004d70:	00579713          	slli	a4,a5,0x5
a0004d74:	40f70733          	sub	a4,a4,a5
a0004d78:	00271713          	slli	a4,a4,0x2
a0004d7c:	40f70733          	sub	a4,a4,a5
a0004d80:	00271713          	slli	a4,a4,0x2
a0004d84:	00468383          	lb	t2,4(a3)
a0004d88:	00f70733          	add	a4,a4,a5
a0004d8c:	00271713          	slli	a4,a4,0x2
a0004d90:	00f707b3          	add	a5,a4,a5
a0004d94:	00168693          	addi	a3,a3,1
a0004d98:	007787b3          	add	a5,a5,t2
a0004d9c:	fcb69ae3          	bne	a3,a1,a0004d70 <bench_15pz_run+0x888>
a0004da0:	00468593          	addi	a1,a3,4
a0004da4:	fcb294e3          	bne	t0,a1,a0004d6c <bench_15pz_run+0x884>
a0004da8:	00100713          	li	a4,1
a0004dac:	04e10e23          	sb	a4,92(sp)
a0004db0:	00c12703          	lw	a4,12(sp)
a0004db4:	06f12823          	sw	a5,112(sp)
a0004db8:	01c12783          	lw	a5,28(sp)
a0004dbc:	04e10ea3          	sb	a4,93(sp)
a0004dc0:	00412703          	lw	a4,4(sp)
a0004dc4:	04610f23          	sb	t1,94(sp)
a0004dc8:	04a10fa3          	sb	a0,95(sp)
a0004dcc:	01070693          	addi	a3,a4,16
a0004dd0:	00462703          	lw	a4,4(a2)
a0004dd4:	00460613          	addi	a2,a2,4
a0004dd8:	00478793          	addi	a5,a5,4
a0004ddc:	fee7ae23          	sw	a4,-4(a5)
a0004de0:	fec698e3          	bne	a3,a2,a0004dd0 <bench_15pz_run+0x8e8>
a0004de4:	00442583          	lw	a1,4(s0)
a0004de8:	00042503          	lw	a0,0(s0)
a0004dec:	00012603          	lw	a2,0(sp)
a0004df0:	e8dfe0ef          	jal	a0003c7c <_ZNK14Updatable_heapI8N_puzzleILi4EEE7pointerERKS1_.isra.0>
a0004df4:	02050a63          	beqz	a0,a0004e28 <bench_15pz_run+0x940>
a0004df8:	02052603          	lw	a2,32(a0)
a0004dfc:	00160613          	addi	a2,a2,1
a0004e00:	05c10593          	addi	a1,sp,92
a0004e04:	00040513          	mv	a0,s0
a0004e08:	ba0ff0ef          	jal	a00041a8 <_ZN14Updatable_heapI8N_puzzleILi4EEE4pushERKS1_i>
a0004e0c:	b85ff06f          	j	a0004990 <bench_15pz_run+0x4a8>
a0004e10:	00042623          	sw	zero,12(s0)
a0004e14:	8e9ff06f          	j	a00046fc <bench_15pz_run+0x214>
a0004e18:	80000637          	lui	a2,0x80000
a0004e1c:	b61ff06f          	j	a000497c <bench_15pz_run+0x494>
a0004e20:	80000637          	lui	a2,0x80000
a0004e24:	cddff06f          	j	a0004b00 <bench_15pz_run+0x618>
a0004e28:	80000637          	lui	a2,0x80000
a0004e2c:	fd5ff06f          	j	a0004e00 <bench_15pz_run+0x918>
a0004e30:	80000637          	lui	a2,0x80000
a0004e34:	e3dff06f          	j	a0004c70 <bench_15pz_run+0x788>
a0004e38:	00300713          	li	a4,3
a0004e3c:	0ee79e63          	bne	a5,a4,a0004f38 <bench_15pz_run+0xa50>
a0004e40:	07410793          	addi	a5,sp,116
a0004e44:	00078513          	mv	a0,a5
a0004e48:	00ffb597          	auipc	a1,0xffb
a0004e4c:	50058593          	addi	a1,a1,1280 # a1000348 <_ZL8PUZZLE_H>
a0004e50:	00078413          	mv	s0,a5
a0004e54:	00f12223          	sw	a5,4(sp)
a0004e58:	898ff0ef          	jal	a0003ef0 <_ZN8N_puzzleILi4EEC1EPi>
a0004e5c:	07412783          	lw	a5,116(sp)
a0004e60:	08410613          	addi	a2,sp,132
a0004e64:	03010713          	addi	a4,sp,48
a0004e68:	02f12623          	sw	a5,44(sp)
a0004e6c:	08812783          	lw	a5,136(sp)
a0004e70:	02c12023          	sw	a2,32(sp)
a0004e74:	04f12023          	sw	a5,64(sp)
a0004e78:	00040793          	mv	a5,s0
a0004e7c:	0047a683          	lw	a3,4(a5)
a0004e80:	00478793          	addi	a5,a5,4
a0004e84:	00470713          	addi	a4,a4,4
a0004e88:	fed72e23          	sw	a3,-4(a4)
a0004e8c:	fef618e3          	bne	a2,a5,a0004e7c <bench_15pz_run+0x994>
a0004e90:	000c07b7          	lui	a5,0xc0
a0004e94:	00f12c23          	sw	a5,24(sp)
a0004e98:	f44ff06f          	j	a00045dc <bench_15pz_run+0xf4>
a0004e9c:	07410793          	addi	a5,sp,116
a0004ea0:	00078513          	mv	a0,a5
a0004ea4:	00ffb597          	auipc	a1,0xffb
a0004ea8:	4e458593          	addi	a1,a1,1252 # a1000388 <_ZL8PUZZLE_L>
a0004eac:	00078413          	mv	s0,a5
a0004eb0:	00f12223          	sw	a5,4(sp)
a0004eb4:	83cff0ef          	jal	a0003ef0 <_ZN8N_puzzleILi4EEC1EPi>
a0004eb8:	07412783          	lw	a5,116(sp)
a0004ebc:	08410613          	addi	a2,sp,132
a0004ec0:	03010713          	addi	a4,sp,48
a0004ec4:	02f12623          	sw	a5,44(sp)
a0004ec8:	08812783          	lw	a5,136(sp)
a0004ecc:	02c12023          	sw	a2,32(sp)
a0004ed0:	04f12023          	sw	a5,64(sp)
a0004ed4:	00040793          	mv	a5,s0
a0004ed8:	0047a683          	lw	a3,4(a5) # c0004 <_STACK_SIZE+0xb0004>
a0004edc:	00478793          	addi	a5,a5,4
a0004ee0:	00470713          	addi	a4,a4,4
a0004ee4:	fed72e23          	sw	a3,-4(a4)
a0004ee8:	fef618e3          	bne	a2,a5,a0004ed8 <bench_15pz_run+0x9f0>
a0004eec:	000047b7          	lui	a5,0x4
a0004ef0:	00f12c23          	sw	a5,24(sp)
a0004ef4:	ee8ff06f          	j	a00045dc <bench_15pz_run+0xf4>
a0004ef8:	03500613          	li	a2,53
a0004efc:	00002597          	auipc	a1,0x2
a0004f00:	5e858593          	addi	a1,a1,1512 # a00074e4 <rodata_start+0x3f8>
a0004f04:	00002517          	auipc	a0,0x2
a0004f08:	23850513          	addi	a0,a0,568 # a000713c <rodata_start+0x50>
a0004f0c:	551000ef          	jal	a0005c5c <printf>
a0004f10:	00100513          	li	a0,1
a0004f14:	211000ef          	jal	a0005924 <halt>
a0004f18:	05600613          	li	a2,86
a0004f1c:	00002597          	auipc	a1,0x2
a0004f20:	57858593          	addi	a1,a1,1400 # a0007494 <rodata_start+0x3a8>
a0004f24:	00002517          	auipc	a0,0x2
a0004f28:	21850513          	addi	a0,a0,536 # a000713c <rodata_start+0x50>
a0004f2c:	531000ef          	jal	a0005c5c <printf>
a0004f30:	00100513          	li	a0,1
a0004f34:	1f1000ef          	jal	a0005924 <halt>
a0004f38:	03300613          	li	a2,51
a0004f3c:	fc1ff06f          	j	a0004efc <bench_15pz_run+0xa14>

a0004f40 <bench_bf_prepare>:
a0004f40:	00ffb797          	auipc	a5,0xffb
a0004f44:	78c7a783          	lw	a5,1932(a5) # a10006cc <setting>
a0004f48:	0007a783          	lw	a5,0(a5)
a0004f4c:	ff010113          	addi	sp,sp,-16
a0004f50:	00112623          	sw	ra,12(sp)
a0004f54:	00812423          	sw	s0,8(sp)
a0004f58:	00004537          	lui	a0,0x4
a0004f5c:	00ffb417          	auipc	s0,0xffb
a0004f60:	7b440413          	addi	s0,s0,1972 # a1000710 <ARR_SIZE>
a0004f64:	00f42023          	sw	a5,0(s0)
a0004f68:	00ffb797          	auipc	a5,0xffb
a0004f6c:	7807ae23          	sw	zero,1948(a5) # a1000704 <SP>
a0004f70:	a90fd0ef          	jal	a0002200 <bench_alloc>
a0004f74:	00050793          	mv	a5,a0
a0004f78:	40000513          	li	a0,1024
a0004f7c:	00ffb717          	auipc	a4,0xffb
a0004f80:	78f72823          	sw	a5,1936(a4) # a100070c <PROGRAM>
a0004f84:	a7cfd0ef          	jal	a0002200 <bench_alloc>
a0004f88:	00050793          	mv	a5,a0
a0004f8c:	00002537          	lui	a0,0x2
a0004f90:	00ffb717          	auipc	a4,0xffb
a0004f94:	76f72c23          	sw	a5,1912(a4) # a1000708 <STACK>
a0004f98:	a68fd0ef          	jal	a0002200 <bench_alloc>
a0004f9c:	00042783          	lw	a5,0(s0)
a0004fa0:	00ffb717          	auipc	a4,0xffb
a0004fa4:	74a72c23          	sw	a0,1880(a4) # a10006f8 <data>
a0004fa8:	00178513          	addi	a0,a5,1
a0004fac:	00002797          	auipc	a5,0x2
a0004fb0:	58878793          	addi	a5,a5,1416 # a0007534 <rodata_start+0x448>
a0004fb4:	00ffb717          	auipc	a4,0xffb
a0004fb8:	74f72623          	sw	a5,1868(a4) # a1000700 <code>
a0004fbc:	a44fd0ef          	jal	a0002200 <bench_alloc>
a0004fc0:	00050793          	mv	a5,a0
a0004fc4:	00ffb717          	auipc	a4,0xffb
a0004fc8:	73870713          	addi	a4,a4,1848 # a10006fc <input>
a0004fcc:	00001537          	lui	a0,0x1
a0004fd0:	00f72023          	sw	a5,0(a4)
a0004fd4:	a2cfd0ef          	jal	a0002200 <bench_alloc>
a0004fd8:	00050793          	mv	a5,a0
a0004fdc:	00100513          	li	a0,1
a0004fe0:	00ffb717          	auipc	a4,0xffb
a0004fe4:	70f72a23          	sw	a5,1812(a4) # a10006f4 <output>
a0004fe8:	00ffb797          	auipc	a5,0xffb
a0004fec:	7007a423          	sw	zero,1800(a5) # a10006f0 <noutput>
a0004ff0:	ab8fd0ef          	jal	a00022a8 <bench_srand>
a0004ff4:	00042783          	lw	a5,0(s0)
a0004ff8:	04f05a63          	blez	a5,a000504c <bench_bf_prepare+0x10c>
a0004ffc:	00912223          	sw	s1,4(sp)
a0005000:	00000493          	li	s1,0
a0005004:	ab8fd0ef          	jal	a00022bc <bench_rand>
a0005008:	00ffb797          	auipc	a5,0xffb
a000500c:	6f478793          	addi	a5,a5,1780 # a10006fc <input>
a0005010:	0007a703          	lw	a4,0(a5)
a0005014:	03e00593          	li	a1,62
a0005018:	00970733          	add	a4,a4,s1
a000501c:	00e12023          	sw	a4,0(sp)
a0005020:	2a9000ef          	jal	a0005ac8 <__umodsi3>
a0005024:	00002797          	auipc	a5,0x2
a0005028:	5c478793          	addi	a5,a5,1476 # a00075e8 <rodata_start+0x4fc>
a000502c:	00a78533          	add	a0,a5,a0
a0005030:	00054583          	lbu	a1,0(a0) # 1000 <rodata_size+0x364>
a0005034:	00012703          	lw	a4,0(sp)
a0005038:	00042683          	lw	a3,0(s0)
a000503c:	00148493          	addi	s1,s1,1
a0005040:	00b70023          	sb	a1,0(a4)
a0005044:	fcd4c0e3          	blt	s1,a3,a0005004 <bench_bf_prepare+0xc4>
a0005048:	00412483          	lw	s1,4(sp)
a000504c:	00c12083          	lw	ra,12(sp)
a0005050:	00812403          	lw	s0,8(sp)
a0005054:	01010113          	addi	sp,sp,16
a0005058:	00008067          	ret

a000505c <bench_bf_run>:
a000505c:	00ffb797          	auipc	a5,0xffb
a0005060:	6a478793          	addi	a5,a5,1700 # a1000700 <code>
a0005064:	0007a683          	lw	a3,0(a5)
a0005068:	ff010113          	addi	sp,sp,-16
a000506c:	00ffb797          	auipc	a5,0xffb
a0005070:	69878793          	addi	a5,a5,1688 # a1000704 <SP>
a0005074:	0007a383          	lw	t2,0(a5)
a0005078:	00812623          	sw	s0,12(sp)
a000507c:	00912423          	sw	s1,8(sp)
a0005080:	0006c783          	lbu	a5,0(a3)
a0005084:	00712223          	sw	t2,4(sp)
a0005088:	00ffb617          	auipc	a2,0xffb
a000508c:	68462603          	lw	a2,1668(a2) # a100070c <PROGRAM>
a0005090:	3e078263          	beqz	a5,a0005474 <bench_bf_run+0x418>
a0005094:	00ffb497          	auipc	s1,0xffb
a0005098:	6744a483          	lw	s1,1652(s1) # a1000708 <STACK>
a000509c:	00168693          	addi	a3,a3,1
a00050a0:	00000293          	li	t0,0
a00050a4:	00000413          	li	s0,0
a00050a8:	00000713          	li	a4,0
a00050ac:	03200513          	li	a0,50
a00050b0:	00002597          	auipc	a1,0x2
a00050b4:	7f858593          	addi	a1,a1,2040 # a00078a8 <k+0x100>
a00050b8:	00912023          	sw	s1,0(sp)
a00050bc:	fd578793          	addi	a5,a5,-43
a00050c0:	0ff7f793          	zext.b	a5,a5
a00050c4:	00f56c63          	bltu	a0,a5,a00050dc <bench_bf_run+0x80>
a00050c8:	00279793          	slli	a5,a5,0x2
a00050cc:	00b787b3          	add	a5,a5,a1
a00050d0:	0007a783          	lw	a5,0(a5)
a00050d4:	00b787b3          	add	a5,a5,a1
a00050d8:	00078067          	jr	a5
a00050dc:	0006c783          	lbu	a5,0(a3)
a00050e0:	00068313          	mv	t1,a3
a00050e4:	30078463          	beqz	a5,a00053ec <bench_bf_run+0x390>
a00050e8:	00168693          	addi	a3,a3,1
a00050ec:	00100293          	li	t0,1
a00050f0:	fcdff06f          	j	a00050bc <bench_bf_run+0x60>
a00050f4:	36038063          	beqz	t2,a0005454 <bench_bf_run+0x3f8>
a00050f8:	00012303          	lw	t1,0(sp)
a00050fc:	fff38393          	addi	t2,t2,-1
a0005100:	00139793          	slli	a5,t2,0x1
a0005104:	00f307b3          	add	a5,t1,a5
a0005108:	0007d283          	lhu	t0,0(a5)
a000510c:	00271793          	slli	a5,a4,0x2
a0005110:	00f607b3          	add	a5,a2,a5
a0005114:	00229313          	slli	t1,t0,0x2
a0005118:	00800413          	li	s0,8
a000511c:	00879023          	sh	s0,0(a5)
a0005120:	00579123          	sh	t0,2(a5)
a0005124:	006607b3          	add	a5,a2,t1
a0005128:	00170313          	addi	t1,a4,1
a000512c:	00e79123          	sh	a4,2(a5)
a0005130:	01031713          	slli	a4,t1,0x10
a0005134:	00100413          	li	s0,1
a0005138:	01075713          	srli	a4,a4,0x10
a000513c:	0006c783          	lbu	a5,0(a3)
a0005140:	00068313          	mv	t1,a3
a0005144:	2a078463          	beqz	a5,a00053ec <bench_bf_run+0x390>
a0005148:	000012b7          	lui	t0,0x1
a000514c:	00168693          	addi	a3,a3,1
a0005150:	f8571ee3          	bne	a4,t0,a00050ec <bench_bf_run+0x90>
a0005154:	00ffb797          	auipc	a5,0xffb
a0005158:	5ac78793          	addi	a5,a5,1452 # a1000700 <code>
a000515c:	0067a023          	sw	t1,0(a5)
a0005160:	00040863          	beqz	s0,a0005170 <bench_bf_run+0x114>
a0005164:	00ffb797          	auipc	a5,0xffb
a0005168:	5a078793          	addi	a5,a5,1440 # a1000704 <SP>
a000516c:	0077a023          	sw	t2,0(a5)
a0005170:	00065783          	lhu	a5,0(a2)
a0005174:	00060713          	mv	a4,a2
a0005178:	00000693          	li	a3,0
a000517c:	00000513          	li	a0,0
a0005180:	00800313          	li	t1,8
a0005184:	00002597          	auipc	a1,0x2
a0005188:	7f058593          	addi	a1,a1,2032 # a0007974 <k+0x1cc>
a000518c:	000012b7          	lui	t0,0x1
a0005190:	18078e63          	beqz	a5,a000532c <bench_bf_run+0x2d0>
a0005194:	18f36c63          	bltu	t1,a5,a000532c <bench_bf_run+0x2d0>
a0005198:	00279793          	slli	a5,a5,0x2
a000519c:	00b787b3          	add	a5,a5,a1
a00051a0:	0007a783          	lw	a5,0(a5)
a00051a4:	00b787b3          	add	a5,a5,a1
a00051a8:	00078067          	jr	a5
a00051ac:	00271793          	slli	a5,a4,0x2
a00051b0:	00f607b3          	add	a5,a2,a5
a00051b4:	00700493          	li	s1,7
a00051b8:	00979023          	sh	s1,0(a5)
a00051bc:	20000793          	li	a5,512
a00051c0:	26f38663          	beq	t2,a5,a000542c <bench_bf_run+0x3d0>
a00051c4:	00012303          	lw	t1,0(sp)
a00051c8:	00139793          	slli	a5,t2,0x1
a00051cc:	00100413          	li	s0,1
a00051d0:	00f307b3          	add	a5,t1,a5
a00051d4:	00170313          	addi	t1,a4,1
a00051d8:	00e79023          	sh	a4,0(a5)
a00051dc:	01031713          	slli	a4,t1,0x10
a00051e0:	00138393          	addi	t2,t2,1
a00051e4:	01075713          	srli	a4,a4,0x10
a00051e8:	f55ff06f          	j	a000513c <bench_bf_run+0xe0>
a00051ec:	00271793          	slli	a5,a4,0x2
a00051f0:	00170713          	addi	a4,a4,1
a00051f4:	00f607b3          	add	a5,a2,a5
a00051f8:	00100313          	li	t1,1
a00051fc:	01071713          	slli	a4,a4,0x10
a0005200:	00679023          	sh	t1,0(a5)
a0005204:	01075713          	srli	a4,a4,0x10
a0005208:	f35ff06f          	j	a000513c <bench_bf_run+0xe0>
a000520c:	00271793          	slli	a5,a4,0x2
a0005210:	00170713          	addi	a4,a4,1
a0005214:	00f607b3          	add	a5,a2,a5
a0005218:	00200313          	li	t1,2
a000521c:	01071713          	slli	a4,a4,0x10
a0005220:	00679023          	sh	t1,0(a5)
a0005224:	01075713          	srli	a4,a4,0x10
a0005228:	f15ff06f          	j	a000513c <bench_bf_run+0xe0>
a000522c:	00271793          	slli	a5,a4,0x2
a0005230:	00170713          	addi	a4,a4,1
a0005234:	00f607b3          	add	a5,a2,a5
a0005238:	00500313          	li	t1,5
a000523c:	01071713          	slli	a4,a4,0x10
a0005240:	00679023          	sh	t1,0(a5)
a0005244:	01075713          	srli	a4,a4,0x10
a0005248:	ef5ff06f          	j	a000513c <bench_bf_run+0xe0>
a000524c:	00271793          	slli	a5,a4,0x2
a0005250:	00170713          	addi	a4,a4,1
a0005254:	00f607b3          	add	a5,a2,a5
a0005258:	00400313          	li	t1,4
a000525c:	01071713          	slli	a4,a4,0x10
a0005260:	00679023          	sh	t1,0(a5)
a0005264:	01075713          	srli	a4,a4,0x10
a0005268:	ed5ff06f          	j	a000513c <bench_bf_run+0xe0>
a000526c:	00271793          	slli	a5,a4,0x2
a0005270:	00170713          	addi	a4,a4,1
a0005274:	00f607b3          	add	a5,a2,a5
a0005278:	00600313          	li	t1,6
a000527c:	01071713          	slli	a4,a4,0x10
a0005280:	00679023          	sh	t1,0(a5)
a0005284:	01075713          	srli	a4,a4,0x10
a0005288:	eb5ff06f          	j	a000513c <bench_bf_run+0xe0>
a000528c:	00271793          	slli	a5,a4,0x2
a0005290:	00170713          	addi	a4,a4,1
a0005294:	00f607b3          	add	a5,a2,a5
a0005298:	00300313          	li	t1,3
a000529c:	01071713          	slli	a4,a4,0x10
a00052a0:	00679023          	sh	t1,0(a5)
a00052a4:	01075713          	srli	a4,a4,0x10
a00052a8:	e95ff06f          	j	a000513c <bench_bf_run+0xe0>
a00052ac:	00151393          	slli	t2,a0,0x1
a00052b0:	00ffb797          	auipc	a5,0xffb
a00052b4:	4487a783          	lw	a5,1096(a5) # a10006f8 <data>
a00052b8:	007787b3          	add	a5,a5,t2
a00052bc:	0007d783          	lhu	a5,0(a5)
a00052c0:	04078c63          	beqz	a5,a0005318 <bench_bf_run+0x2bc>
a00052c4:	00275683          	lhu	a3,2(a4)
a00052c8:	0500006f          	j	a0005318 <bench_bf_run+0x2bc>
a00052cc:	00151393          	slli	t2,a0,0x1
a00052d0:	00ffb797          	auipc	a5,0xffb
a00052d4:	4287a783          	lw	a5,1064(a5) # a10006f8 <data>
a00052d8:	007787b3          	add	a5,a5,t2
a00052dc:	0007d783          	lhu	a5,0(a5)
a00052e0:	02079c63          	bnez	a5,a0005318 <bench_bf_run+0x2bc>
a00052e4:	00275683          	lhu	a3,2(a4)
a00052e8:	0300006f          	j	a0005318 <bench_bf_run+0x2bc>
a00052ec:	00ffb397          	auipc	t2,0xffb
a00052f0:	41038393          	addi	t2,t2,1040 # a10006fc <input>
a00052f4:	0003a783          	lw	a5,0(t2)
a00052f8:	00151493          	slli	s1,a0,0x1
a00052fc:	00ffb717          	auipc	a4,0xffb
a0005300:	3fc72703          	lw	a4,1020(a4) # a10006f8 <data>
a0005304:	0007c403          	lbu	s0,0(a5)
a0005308:	00970733          	add	a4,a4,s1
a000530c:	00178793          	addi	a5,a5,1
a0005310:	00f3a023          	sw	a5,0(t2)
a0005314:	00871023          	sh	s0,0(a4)
a0005318:	00168693          	addi	a3,a3,1
a000531c:	00269713          	slli	a4,a3,0x2
a0005320:	00e60733          	add	a4,a2,a4
a0005324:	00075783          	lhu	a5,0(a4)
a0005328:	e60796e3          	bnez	a5,a0005194 <bench_bf_run+0x138>
a000532c:	00c12403          	lw	s0,12(sp)
a0005330:	00812483          	lw	s1,8(sp)
a0005334:	01010113          	addi	sp,sp,16
a0005338:	00008067          	ret
a000533c:	00ffb717          	auipc	a4,0xffb
a0005340:	3b470713          	addi	a4,a4,948 # a10006f0 <noutput>
a0005344:	00151393          	slli	t2,a0,0x1
a0005348:	00ffb797          	auipc	a5,0xffb
a000534c:	3b07a783          	lw	a5,944(a5) # a10006f8 <data>
a0005350:	00072483          	lw	s1,0(a4)
a0005354:	007787b3          	add	a5,a5,t2
a0005358:	0007d383          	lhu	t2,0(a5)
a000535c:	00ffb797          	auipc	a5,0xffb
a0005360:	3987a783          	lw	a5,920(a5) # a10006f4 <output>
a0005364:	00148413          	addi	s0,s1,1
a0005368:	009787b3          	add	a5,a5,s1
a000536c:	00872023          	sw	s0,0(a4)
a0005370:	00778023          	sb	t2,0(a5)
a0005374:	fa5ff06f          	j	a0005318 <bench_bf_run+0x2bc>
a0005378:	00151713          	slli	a4,a0,0x1
a000537c:	00ffb797          	auipc	a5,0xffb
a0005380:	37c7a783          	lw	a5,892(a5) # a10006f8 <data>
a0005384:	00e787b3          	add	a5,a5,a4
a0005388:	0007d703          	lhu	a4,0(a5)
a000538c:	fff70713          	addi	a4,a4,-1
a0005390:	00e79023          	sh	a4,0(a5)
a0005394:	f85ff06f          	j	a0005318 <bench_bf_run+0x2bc>
a0005398:	00151713          	slli	a4,a0,0x1
a000539c:	00ffb797          	auipc	a5,0xffb
a00053a0:	35c7a783          	lw	a5,860(a5) # a10006f8 <data>
a00053a4:	00e787b3          	add	a5,a5,a4
a00053a8:	0007d703          	lhu	a4,0(a5)
a00053ac:	00170713          	addi	a4,a4,1
a00053b0:	00e79023          	sh	a4,0(a5)
a00053b4:	f65ff06f          	j	a0005318 <bench_bf_run+0x2bc>
a00053b8:	fff50513          	addi	a0,a0,-1
a00053bc:	00168693          	addi	a3,a3,1
a00053c0:	00269713          	slli	a4,a3,0x2
a00053c4:	00e60733          	add	a4,a2,a4
a00053c8:	00075783          	lhu	a5,0(a4)
a00053cc:	f60780e3          	beqz	a5,a000532c <bench_bf_run+0x2d0>
a00053d0:	dc5562e3          	bltu	a0,t0,a0005194 <bench_bf_run+0x138>
a00053d4:	00c12403          	lw	s0,12(sp)
a00053d8:	00812483          	lw	s1,8(sp)
a00053dc:	01010113          	addi	sp,sp,16
a00053e0:	00008067          	ret
a00053e4:	00150513          	addi	a0,a0,1
a00053e8:	fd5ff06f          	j	a00053bc <bench_bf_run+0x360>
a00053ec:	00ffb797          	auipc	a5,0xffb
a00053f0:	31478793          	addi	a5,a5,788 # a1000700 <code>
a00053f4:	00d7a023          	sw	a3,0(a5)
a00053f8:	02040663          	beqz	s0,a0005424 <bench_bf_run+0x3c8>
a00053fc:	00ffb797          	auipc	a5,0xffb
a0005400:	30878793          	addi	a5,a5,776 # a1000704 <SP>
a0005404:	0077a023          	sw	t2,0(a5)
a0005408:	d60394e3          	bnez	t2,a0005170 <bench_bf_run+0x114>
a000540c:	000017b7          	lui	a5,0x1
a0005410:	d6f700e3          	beq	a4,a5,a0005170 <bench_bf_run+0x114>
a0005414:	00271713          	slli	a4,a4,0x2
a0005418:	00e60733          	add	a4,a2,a4
a000541c:	00071023          	sh	zero,0(a4)
a0005420:	d51ff06f          	j	a0005170 <bench_bf_run+0x114>
a0005424:	00412383          	lw	t2,4(sp)
a0005428:	fe1ff06f          	j	a0005408 <bench_bf_run+0x3ac>
a000542c:	00028863          	beqz	t0,a000543c <bench_bf_run+0x3e0>
a0005430:	00ffb797          	auipc	a5,0xffb
a0005434:	2d078793          	addi	a5,a5,720 # a1000700 <code>
a0005438:	0067a023          	sw	t1,0(a5)
a000543c:	d2040ae3          	beqz	s0,a0005170 <bench_bf_run+0x114>
a0005440:	20000793          	li	a5,512
a0005444:	00ffb717          	auipc	a4,0xffb
a0005448:	2c070713          	addi	a4,a4,704 # a1000704 <SP>
a000544c:	00f72023          	sw	a5,0(a4)
a0005450:	d21ff06f          	j	a0005170 <bench_bf_run+0x114>
a0005454:	00028863          	beqz	t0,a0005464 <bench_bf_run+0x408>
a0005458:	00ffb797          	auipc	a5,0xffb
a000545c:	2a878793          	addi	a5,a5,680 # a1000700 <code>
a0005460:	0067a023          	sw	t1,0(a5)
a0005464:	d00406e3          	beqz	s0,a0005170 <bench_bf_run+0x114>
a0005468:	00ffb797          	auipc	a5,0xffb
a000546c:	2807ae23          	sw	zero,668(a5) # a1000704 <SP>
a0005470:	d01ff06f          	j	a0005170 <bench_bf_run+0x114>
a0005474:	00412783          	lw	a5,4(sp)
a0005478:	00060713          	mv	a4,a2
a000547c:	ce079ae3          	bnez	a5,a0005170 <bench_bf_run+0x114>
a0005480:	00071023          	sh	zero,0(a4)
a0005484:	cedff06f          	j	a0005170 <bench_bf_run+0x114>

a0005488 <bench_bf_validate>:
a0005488:	ff410113          	addi	sp,sp,-12
a000548c:	00812223          	sw	s0,4(sp)
a0005490:	00ffb417          	auipc	s0,0xffb
a0005494:	26040413          	addi	s0,s0,608 # a10006f0 <noutput>
a0005498:	00042583          	lw	a1,0(s0)
a000549c:	00ffb517          	auipc	a0,0xffb
a00054a0:	25852503          	lw	a0,600(a0) # a10006f4 <output>
a00054a4:	00112423          	sw	ra,8(sp)
a00054a8:	00b505b3          	add	a1,a0,a1
a00054ac:	e61fc0ef          	jal	a000230c <checksum>
a00054b0:	00042683          	lw	a3,0(s0)
a00054b4:	00ffb797          	auipc	a5,0xffb
a00054b8:	25c7a783          	lw	a5,604(a5) # a1000710 <ARR_SIZE>
a00054bc:	00f68c63          	beq	a3,a5,a00054d4 <bench_bf_validate+0x4c>
a00054c0:	00812083          	lw	ra,8(sp)
a00054c4:	00412403          	lw	s0,4(sp)
a00054c8:	00000513          	li	a0,0
a00054cc:	00c10113          	addi	sp,sp,12
a00054d0:	00008067          	ret
a00054d4:	00ffb797          	auipc	a5,0xffb
a00054d8:	1f87a783          	lw	a5,504(a5) # a10006cc <setting>
a00054dc:	00c7a783          	lw	a5,12(a5)
a00054e0:	00812083          	lw	ra,8(sp)
a00054e4:	00412403          	lw	s0,4(sp)
a00054e8:	40a78533          	sub	a0,a5,a0
a00054ec:	00153513          	seqz	a0,a0
a00054f0:	00c10113          	addi	sp,sp,12
a00054f4:	00008067          	ret

a00054f8 <__am_timer_config>:
a00054f8:	00100793          	li	a5,1
a00054fc:	00f50023          	sb	a5,0(a0)
a0005500:	00f500a3          	sb	a5,1(a0)
a0005504:	00008067          	ret

a0005508 <__am_input_config>:
a0005508:	00100793          	li	a5,1
a000550c:	00f50023          	sb	a5,0(a0)
a0005510:	00008067          	ret

a0005514 <__am_uart_config>:
a0005514:	00050023          	sb	zero,0(a0)
a0005518:	00008067          	ret

a000551c <fail>:
a000551c:	ff410113          	addi	sp,sp,-12
a0005520:	00812223          	sw	s0,4(sp)
a0005524:	00112423          	sw	ra,8(sp)
a0005528:	00002417          	auipc	s0,0x2
a000552c:	10040413          	addi	s0,s0,256 # a0007628 <rodata_start+0x53c>
a0005530:	04100513          	li	a0,65
a0005534:	39c000ef          	jal	a00058d0 <putch>
a0005538:	00144503          	lbu	a0,1(s0)
a000553c:	00140413          	addi	s0,s0,1
a0005540:	fe051ae3          	bnez	a0,a0005534 <fail+0x18>
a0005544:	00002417          	auipc	s0,0x2
a0005548:	0f040413          	addi	s0,s0,240 # a0007634 <rodata_start+0x548>
a000554c:	06100513          	li	a0,97
a0005550:	380000ef          	jal	a00058d0 <putch>
a0005554:	00144503          	lbu	a0,1(s0)
a0005558:	00140413          	addi	s0,s0,1
a000555c:	fe051ae3          	bnez	a0,a0005550 <fail+0x34>
a0005560:	00002417          	auipc	s0,0x2
a0005564:	0f040413          	addi	s0,s0,240 # a0007650 <rodata_start+0x564>
a0005568:	02000513          	li	a0,32
a000556c:	364000ef          	jal	a00058d0 <putch>
a0005570:	00144503          	lbu	a0,1(s0)
a0005574:	00140413          	addi	s0,s0,1
a0005578:	fe051ae3          	bnez	a0,a000556c <fail+0x50>
a000557c:	00100513          	li	a0,1
a0005580:	3a4000ef          	jal	a0005924 <halt>

a0005584 <ioe_init>:
a0005584:	ff410113          	addi	sp,sp,-12
a0005588:	00112423          	sw	ra,8(sp)
a000558c:	00ffb797          	auipc	a5,0xffb
a0005590:	ebc78793          	addi	a5,a5,-324 # a1000448 <lut>
a0005594:	00ffb697          	auipc	a3,0xffb
a0005598:	0b468693          	addi	a3,a3,180 # a1000648 <seed>
a000559c:	00000617          	auipc	a2,0x0
a00055a0:	f8060613          	addi	a2,a2,-128 # a000551c <fail>
a00055a4:	00c0006f          	j	a00055b0 <ioe_init+0x2c>
a00055a8:	00478793          	addi	a5,a5,4
a00055ac:	00d78c63          	beq	a5,a3,a00055c4 <ioe_init+0x40>
a00055b0:	0007a703          	lw	a4,0(a5)
a00055b4:	fe071ae3          	bnez	a4,a00055a8 <ioe_init+0x24>
a00055b8:	00c7a023          	sw	a2,0(a5)
a00055bc:	00478793          	addi	a5,a5,4
a00055c0:	fed798e3          	bne	a5,a3,a00055b0 <ioe_init+0x2c>
a00055c4:	21c000ef          	jal	a00057e0 <__am_gpu_init>
a00055c8:	030000ef          	jal	a00055f8 <__am_timer_init>
a00055cc:	00812083          	lw	ra,8(sp)
a00055d0:	00100513          	li	a0,1
a00055d4:	00c10113          	addi	sp,sp,12
a00055d8:	00008067          	ret

a00055dc <ioe_read>:
a00055dc:	00251513          	slli	a0,a0,0x2
a00055e0:	00ffb797          	auipc	a5,0xffb
a00055e4:	e6878793          	addi	a5,a5,-408 # a1000448 <lut>
a00055e8:	00a787b3          	add	a5,a5,a0
a00055ec:	0007a783          	lw	a5,0(a5)
a00055f0:	00058513          	mv	a0,a1
a00055f4:	00078067          	jr	a5

a00055f8 <__am_timer_init>:
a00055f8:	00008067          	ret

a00055fc <__am_timer_uptime>:
a00055fc:	020007b7          	lui	a5,0x2000
a0005600:	020006b7          	lui	a3,0x2000
a0005604:	0047a703          	lw	a4,4(a5) # 2000004 <_STACK_SIZE+0x1ff0004>
a0005608:	0006a683          	lw	a3,0(a3) # 2000000 <_STACK_SIZE+0x1ff0000>
a000560c:	00e52223          	sw	a4,4(a0)
a0005610:	00d52023          	sw	a3,0(a0)
a0005614:	00008067          	ret

a0005618 <__am_timer_rtc>:
a0005618:	76c00793          	li	a5,1900
a000561c:	00052a23          	sw	zero,20(a0)
a0005620:	00052823          	sw	zero,16(a0)
a0005624:	00052623          	sw	zero,12(a0)
a0005628:	00052423          	sw	zero,8(a0)
a000562c:	00052223          	sw	zero,4(a0)
a0005630:	00f52023          	sw	a5,0(a0)
a0005634:	00008067          	ret

a0005638 <__am_uart_rx>:
a0005638:	10000737          	lui	a4,0x10000
a000563c:	00574783          	lbu	a5,5(a4) # 10000005 <_stack_pointer+0xffe005>
a0005640:	0ff00713          	li	a4,255
a0005644:	0017f793          	andi	a5,a5,1
a0005648:	00078863          	beqz	a5,a0005658 <__am_uart_rx+0x20>
a000564c:	100007b7          	lui	a5,0x10000
a0005650:	0007c703          	lbu	a4,0(a5) # 10000000 <_stack_pointer+0xffe000>
a0005654:	0ff77713          	zext.b	a4,a4
a0005658:	00e50023          	sb	a4,0(a0)
a000565c:	00008067          	ret

a0005660 <__am_input_keybrd>:
a0005660:	100116b7          	lui	a3,0x10011
a0005664:	0006c783          	lbu	a5,0(a3) # 10011000 <_stack_pointer+0x100f000>
a0005668:	0e000713          	li	a4,224
a000566c:	0ff7f793          	zext.b	a5,a5
a0005670:	00f52223          	sw	a5,4(a0)
a0005674:	04e78e63          	beq	a5,a4,a00056d0 <__am_input_keybrd+0x70>
a0005678:	0f000613          	li	a2,240
a000567c:	02c78463          	beq	a5,a2,a00056a4 <__am_input_keybrd+0x44>
a0005680:	00100693          	li	a3,1
a0005684:	00279793          	slli	a5,a5,0x2
a0005688:	00002717          	auipc	a4,0x2
a000568c:	36470713          	addi	a4,a4,868 # a00079ec <ps2_scancode_to_amkey>
a0005690:	00f707b3          	add	a5,a4,a5
a0005694:	0007a783          	lw	a5,0(a5)
a0005698:	00d50023          	sb	a3,0(a0)
a000569c:	00f52423          	sw	a5,8(a0)
a00056a0:	00008067          	ret
a00056a4:	0006c783          	lbu	a5,0(a3)
a00056a8:	00000693          	li	a3,0
a00056ac:	0ff7f793          	zext.b	a5,a5
a00056b0:	00f52223          	sw	a5,4(a0)
a00056b4:	fce798e3          	bne	a5,a4,a0005684 <__am_input_keybrd+0x24>
a00056b8:	100117b7          	lui	a5,0x10011
a00056bc:	0007c703          	lbu	a4,0(a5) # 10011000 <_stack_pointer+0x100f000>
a00056c0:	00000613          	li	a2,0
a00056c4:	0ff77713          	zext.b	a4,a4
a00056c8:	00e52223          	sw	a4,4(a0)
a00056cc:	01c0006f          	j	a00056e8 <__am_input_keybrd+0x88>
a00056d0:	0006c703          	lbu	a4,0(a3)
a00056d4:	0f000593          	li	a1,240
a00056d8:	00100613          	li	a2,1
a00056dc:	0ff77713          	zext.b	a4,a4
a00056e0:	00e52223          	sw	a4,4(a0)
a00056e4:	04b70063          	beq	a4,a1,a0005724 <__am_input_keybrd+0xc4>
a00056e8:	00c50023          	sb	a2,0(a0)
a00056ec:	07d00793          	li	a5,125
a00056f0:	fae7c8e3          	blt	a5,a4,a00056a0 <__am_input_keybrd+0x40>
a00056f4:	06800793          	li	a5,104
a00056f8:	04e7d263          	bge	a5,a4,a000573c <__am_input_keybrd+0xdc>
a00056fc:	f9770713          	addi	a4,a4,-105
a0005700:	01400793          	li	a5,20
a0005704:	f8e7eee3          	bltu	a5,a4,a00056a0 <__am_input_keybrd+0x40>
a0005708:	00002697          	auipc	a3,0x2
a000570c:	29068693          	addi	a3,a3,656 # a0007998 <k+0x1f0>
a0005710:	00271713          	slli	a4,a4,0x2
a0005714:	00d70733          	add	a4,a4,a3
a0005718:	00072783          	lw	a5,0(a4)
a000571c:	00d787b3          	add	a5,a5,a3
a0005720:	00078067          	jr	a5
a0005724:	0006c703          	lbu	a4,0(a3)
a0005728:	00000613          	li	a2,0
a000572c:	0ff77713          	zext.b	a4,a4
a0005730:	00e52223          	sw	a4,4(a0)
a0005734:	faf71ae3          	bne	a4,a5,a00056e8 <__am_input_keybrd+0x88>
a0005738:	f81ff06f          	j	a00056b8 <__am_input_keybrd+0x58>
a000573c:	01100793          	li	a5,17
a0005740:	08f70a63          	beq	a4,a5,a00057d4 <__am_input_keybrd+0x174>
a0005744:	01400793          	li	a5,20
a0005748:	00f71863          	bne	a4,a5,a0005758 <__am_input_keybrd+0xf8>
a000574c:	04800793          	li	a5,72
a0005750:	00f52423          	sw	a5,8(a0)
a0005754:	00008067          	ret
a0005758:	00008067          	ret
a000575c:	05000793          	li	a5,80
a0005760:	00f52423          	sw	a5,8(a0)
a0005764:	00008067          	ret
a0005768:	04b00793          	li	a5,75
a000576c:	00f52423          	sw	a5,8(a0)
a0005770:	00008067          	ret
a0005774:	04f00793          	li	a5,79
a0005778:	00f52423          	sw	a5,8(a0)
a000577c:	00008067          	ret
a0005780:	04d00793          	li	a5,77
a0005784:	00f52423          	sw	a5,8(a0)
a0005788:	00008067          	ret
a000578c:	04e00793          	li	a5,78
a0005790:	00f52423          	sw	a5,8(a0)
a0005794:	00008067          	ret
a0005798:	04a00793          	li	a5,74
a000579c:	00f52423          	sw	a5,8(a0)
a00057a0:	00008067          	ret
a00057a4:	04c00793          	li	a5,76
a00057a8:	00f52423          	sw	a5,8(a0)
a00057ac:	00008067          	ret
a00057b0:	04900793          	li	a5,73
a00057b4:	00f52423          	sw	a5,8(a0)
a00057b8:	00008067          	ret
a00057bc:	05200793          	li	a5,82
a00057c0:	00f52423          	sw	a5,8(a0)
a00057c4:	00008067          	ret
a00057c8:	05100793          	li	a5,81
a00057cc:	00f52423          	sw	a5,8(a0)
a00057d0:	00008067          	ret
a00057d4:	04700793          	li	a5,71
a00057d8:	00f52423          	sw	a5,8(a0)
a00057dc:	00008067          	ret

a00057e0 <__am_gpu_init>:
a00057e0:	00008067          	ret

a00057e4 <__am_gpu_config>:
a00057e4:	00002797          	auipc	a5,0x2
a00057e8:	44878793          	addi	a5,a5,1096 # a0007c2c <ps2_scancode_to_amkey+0x240>
a00057ec:	0007a603          	lw	a2,0(a5)
a00057f0:	0047a683          	lw	a3,4(a5)
a00057f4:	0087a703          	lw	a4,8(a5)
a00057f8:	00c7a783          	lw	a5,12(a5)
a00057fc:	00c52023          	sw	a2,0(a0)
a0005800:	00d52223          	sw	a3,4(a0)
a0005804:	00e52423          	sw	a4,8(a0)
a0005808:	00f52623          	sw	a5,12(a0)
a000580c:	00008067          	ret

a0005810 <__am_gpu_fbdraw>:
a0005810:	00452703          	lw	a4,4(a0)
a0005814:	ff010113          	addi	sp,sp,-16
a0005818:	00052683          	lw	a3,0(a0)
a000581c:	00812623          	sw	s0,12(sp)
a0005820:	00271793          	slli	a5,a4,0x2
a0005824:	01052403          	lw	s0,16(a0)
a0005828:	00e787b3          	add	a5,a5,a4
a000582c:	00779793          	slli	a5,a5,0x7
a0005830:	00852383          	lw	t2,8(a0)
a0005834:	00c52283          	lw	t0,12(a0)
a0005838:	00d787b3          	add	a5,a5,a3
a000583c:	06805e63          	blez	s0,a00058b8 <__am_gpu_fbdraw+0xa8>
a0005840:	28000713          	li	a4,640
a0005844:	40570733          	sub	a4,a4,t0
a0005848:	00912423          	sw	s1,8(sp)
a000584c:	00279793          	slli	a5,a5,0x2
a0005850:	00229493          	slli	s1,t0,0x2
a0005854:	00271713          	slli	a4,a4,0x2
a0005858:	00e12223          	sw	a4,4(sp)
a000585c:	407786b3          	sub	a3,a5,t2
a0005860:	00938633          	add	a2,t2,s1
a0005864:	00000313          	li	t1,0
a0005868:	00000513          	li	a0,0
a000586c:	210005b7          	lui	a1,0x21000
a0005870:	00231793          	slli	a5,t1,0x2
a0005874:	00f387b3          	add	a5,t2,a5
a0005878:	02505263          	blez	t0,a000589c <__am_gpu_fbdraw+0x8c>
a000587c:	00a12023          	sw	a0,0(sp)
a0005880:	0007a503          	lw	a0,0(a5)
a0005884:	00d78733          	add	a4,a5,a3
a0005888:	00e58733          	add	a4,a1,a4
a000588c:	00a72023          	sw	a0,0(a4)
a0005890:	00478793          	addi	a5,a5,4
a0005894:	fec796e3          	bne	a5,a2,a0005880 <__am_gpu_fbdraw+0x70>
a0005898:	00012503          	lw	a0,0(sp)
a000589c:	00412783          	lw	a5,4(sp)
a00058a0:	00150513          	addi	a0,a0,1
a00058a4:	00530333          	add	t1,t1,t0
a00058a8:	00f686b3          	add	a3,a3,a5
a00058ac:	00960633          	add	a2,a2,s1
a00058b0:	fca410e3          	bne	s0,a0,a0005870 <__am_gpu_fbdraw+0x60>
a00058b4:	00812483          	lw	s1,8(sp)
a00058b8:	00c12403          	lw	s0,12(sp)
a00058bc:	01010113          	addi	sp,sp,16
a00058c0:	00008067          	ret

a00058c4 <__am_gpu_status>:
a00058c4:	00100793          	li	a5,1
a00058c8:	00f50023          	sb	a5,0(a0)
a00058cc:	00008067          	ret

a00058d0 <putch>:
a00058d0:	00ffb697          	auipc	a3,0xffb
a00058d4:	e4468693          	addi	a3,a3,-444 # a1000714 <count>
a00058d8:	0006a603          	lw	a2,0(a3)
a00058dc:	10000737          	lui	a4,0x10000
a00058e0:	00f00793          	li	a5,15
a00058e4:	00570713          	addi	a4,a4,5 # 10000005 <_stack_pointer+0xffe005>
a00058e8:	02c7d263          	bge	a5,a2,a000590c <putch+0x3c>
a00058ec:	00074783          	lbu	a5,0(a4)
a00058f0:	0207f793          	andi	a5,a5,32
a00058f4:	fe078ce3          	beqz	a5,a00058ec <putch+0x1c>
a00058f8:	100007b7          	lui	a5,0x10000
a00058fc:	00a78023          	sb	a0,0(a5) # 10000000 <_stack_pointer+0xffe000>
a0005900:	00000793          	li	a5,0
a0005904:	00f6a023          	sw	a5,0(a3)
a0005908:	00008067          	ret
a000590c:	100007b7          	lui	a5,0x10000
a0005910:	00a78023          	sb	a0,0(a5) # 10000000 <_stack_pointer+0xffe000>
a0005914:	0006a783          	lw	a5,0(a3)
a0005918:	00178793          	addi	a5,a5,1
a000591c:	00f6a023          	sw	a5,0(a3)
a0005920:	00008067          	ret

a0005924 <halt>:
a0005924:	00050513          	mv	a0,a0
a0005928:	00100073          	ebreak
a000592c:	0000006f          	j	a000592c <halt+0x8>

a0005930 <_trm_init>:
a0005930:	ff410113          	addi	sp,sp,-12
a0005934:	00112423          	sw	ra,8(sp)
a0005938:	00812223          	sw	s0,4(sp)
a000593c:	00912023          	sw	s1,0(sp)
a0005940:	10000737          	lui	a4,0x10000
a0005944:	00200693          	li	a3,2
a0005948:	00d700a3          	sb	a3,1(a4) # 10000001 <_stack_pointer+0xffe001>
a000594c:	100007b7          	lui	a5,0x10000
a0005950:	f8300693          	li	a3,-125
a0005954:	00d781a3          	sb	a3,3(a5) # 10000003 <_stack_pointer+0xffe003>
a0005958:	000700a3          	sb	zero,1(a4)
a000595c:	00100693          	li	a3,1
a0005960:	10000737          	lui	a4,0x10000
a0005964:	00d70023          	sb	a3,0(a4) # 10000000 <_stack_pointer+0xffe000>
a0005968:	00300713          	li	a4,3
a000596c:	00e781a3          	sb	a4,3(a5)
a0005970:	f11022f3          	csrr	t0,mvendorid
a0005974:	f12024f3          	csrr	s1,marchid
a0005978:	10000737          	lui	a4,0x10000
a000597c:	01c00693          	li	a3,28
a0005980:	00ffb417          	auipc	s0,0xffb
a0005984:	d9440413          	addi	s0,s0,-620 # a1000714 <count>
a0005988:	00900313          	li	t1,9
a000598c:	00f00513          	li	a0,15
a0005990:	100003b7          	lui	t2,0x10000
a0005994:	00570713          	addi	a4,a4,5 # 10000005 <_stack_pointer+0xffe005>
a0005998:	ffc00593          	li	a1,-4
a000599c:	00d2d7b3          	srl	a5,t0,a3
a00059a0:	00f7f793          	andi	a5,a5,15
a00059a4:	03778613          	addi	a2,a5,55
a00059a8:	00f36463          	bltu	t1,a5,a00059b0 <_trm_init+0x80>
a00059ac:	03078613          	addi	a2,a5,48
a00059b0:	00042783          	lw	a5,0(s0)
a00059b4:	0af55a63          	bge	a0,a5,a0005a68 <_trm_init+0x138>
a00059b8:	00074783          	lbu	a5,0(a4)
a00059bc:	0207f793          	andi	a5,a5,32
a00059c0:	fe078ce3          	beqz	a5,a00059b8 <_trm_init+0x88>
a00059c4:	00c38023          	sb	a2,0(t2) # 10000000 <_stack_pointer+0xffe000>
a00059c8:	00000793          	li	a5,0
a00059cc:	00f42023          	sw	a5,0(s0)
a00059d0:	ffc68693          	addi	a3,a3,-4
a00059d4:	fcb694e3          	bne	a3,a1,a000599c <_trm_init+0x6c>
a00059d8:	00a00513          	li	a0,10
a00059dc:	ef5ff0ef          	jal	a00058d0 <putch>
a00059e0:	10000737          	lui	a4,0x10000
a00059e4:	01c00693          	li	a3,28
a00059e8:	00900513          	li	a0,9
a00059ec:	00f00593          	li	a1,15
a00059f0:	10000337          	lui	t1,0x10000
a00059f4:	00570713          	addi	a4,a4,5 # 10000005 <_stack_pointer+0xffe005>
a00059f8:	ffc00613          	li	a2,-4
a00059fc:	00d4d7b3          	srl	a5,s1,a3
a0005a00:	00f7f793          	andi	a5,a5,15
a0005a04:	03778293          	addi	t0,a5,55
a0005a08:	00f56463          	bltu	a0,a5,a0005a10 <_trm_init+0xe0>
a0005a0c:	03078293          	addi	t0,a5,48
a0005a10:	00042783          	lw	a5,0(s0)
a0005a14:	04f5d263          	bge	a1,a5,a0005a58 <_trm_init+0x128>
a0005a18:	00074783          	lbu	a5,0(a4)
a0005a1c:	0207f793          	andi	a5,a5,32
a0005a20:	fe078ce3          	beqz	a5,a0005a18 <_trm_init+0xe8>
a0005a24:	00530023          	sb	t0,0(t1) # 10000000 <_stack_pointer+0xffe000>
a0005a28:	00000793          	li	a5,0
a0005a2c:	00f42023          	sw	a5,0(s0)
a0005a30:	ffc68693          	addi	a3,a3,-4
a0005a34:	fcc694e3          	bne	a3,a2,a00059fc <_trm_init+0xcc>
a0005a38:	00a00513          	li	a0,10
a0005a3c:	e95ff0ef          	jal	a00058d0 <putch>
a0005a40:	00002517          	auipc	a0,0x2
a0005a44:	1fc50513          	addi	a0,a0,508 # a0007c3c <mainargs>
a0005a48:	ac8fc0ef          	jal	a0001d10 <main>
a0005a4c:	00050513          	mv	a0,a0
a0005a50:	00100073          	ebreak
a0005a54:	0000006f          	j	a0005a54 <_trm_init+0x124>
a0005a58:	00530023          	sb	t0,0(t1)
a0005a5c:	00042783          	lw	a5,0(s0)
a0005a60:	00178793          	addi	a5,a5,1
a0005a64:	fc9ff06f          	j	a0005a2c <_trm_init+0xfc>
a0005a68:	00c38023          	sb	a2,0(t2)
a0005a6c:	00042783          	lw	a5,0(s0)
a0005a70:	00178793          	addi	a5,a5,1
a0005a74:	f59ff06f          	j	a00059cc <_trm_init+0x9c>

a0005a78 <__divsi3>:
a0005a78:	06054063          	bltz	a0,a0005ad8 <__umodsi3+0x10>
a0005a7c:	0605c663          	bltz	a1,a0005ae8 <__umodsi3+0x20>

a0005a80 <__hidden___udivsi3>:
a0005a80:	00058613          	mv	a2,a1
a0005a84:	00050593          	mv	a1,a0
a0005a88:	fff00513          	li	a0,-1
a0005a8c:	02060c63          	beqz	a2,a0005ac4 <__hidden___udivsi3+0x44>
a0005a90:	00100693          	li	a3,1
a0005a94:	00b67a63          	bgeu	a2,a1,a0005aa8 <__hidden___udivsi3+0x28>
a0005a98:	00c05863          	blez	a2,a0005aa8 <__hidden___udivsi3+0x28>
a0005a9c:	00161613          	slli	a2,a2,0x1
a0005aa0:	00169693          	slli	a3,a3,0x1
a0005aa4:	feb66ae3          	bltu	a2,a1,a0005a98 <__hidden___udivsi3+0x18>
a0005aa8:	00000513          	li	a0,0
a0005aac:	00c5e663          	bltu	a1,a2,a0005ab8 <__hidden___udivsi3+0x38>
a0005ab0:	40c585b3          	sub	a1,a1,a2
a0005ab4:	00d56533          	or	a0,a0,a3
a0005ab8:	0016d693          	srli	a3,a3,0x1
a0005abc:	00165613          	srli	a2,a2,0x1
a0005ac0:	fe0696e3          	bnez	a3,a0005aac <__hidden___udivsi3+0x2c>
a0005ac4:	00008067          	ret

a0005ac8 <__umodsi3>:
a0005ac8:	00008293          	mv	t0,ra
a0005acc:	fb5ff0ef          	jal	a0005a80 <__hidden___udivsi3>
a0005ad0:	00058513          	mv	a0,a1
a0005ad4:	00028067          	jr	t0 # 1000 <rodata_size+0x364>
a0005ad8:	40a00533          	neg	a0,a0
a0005adc:	00b04863          	bgtz	a1,a0005aec <__umodsi3+0x24>
a0005ae0:	40b005b3          	neg	a1,a1
a0005ae4:	f9dff06f          	j	a0005a80 <__hidden___udivsi3>
a0005ae8:	40b005b3          	neg	a1,a1
a0005aec:	00008293          	mv	t0,ra
a0005af0:	f91ff0ef          	jal	a0005a80 <__hidden___udivsi3>
a0005af4:	40a00533          	neg	a0,a0
a0005af8:	00028067          	jr	t0

a0005afc <__modsi3>:
a0005afc:	00008293          	mv	t0,ra
a0005b00:	0005ca63          	bltz	a1,a0005b14 <__modsi3+0x18>
a0005b04:	00054c63          	bltz	a0,a0005b1c <__modsi3+0x20>
a0005b08:	f79ff0ef          	jal	a0005a80 <__hidden___udivsi3>
a0005b0c:	00058513          	mv	a0,a1
a0005b10:	00028067          	jr	t0
a0005b14:	40b005b3          	neg	a1,a1
a0005b18:	fe0558e3          	bgez	a0,a0005b08 <__modsi3+0xc>
a0005b1c:	40a00533          	neg	a0,a0
a0005b20:	f61ff0ef          	jal	a0005a80 <__hidden___udivsi3>
a0005b24:	40b00533          	neg	a0,a1
a0005b28:	00028067          	jr	t0

a0005b2c <__mulsi3>:
a0005b2c:	00050613          	mv	a2,a0
a0005b30:	00000513          	li	a0,0
a0005b34:	0015f693          	andi	a3,a1,1
a0005b38:	00068463          	beqz	a3,a0005b40 <__mulsi3+0x14>
a0005b3c:	00c50533          	add	a0,a0,a2
a0005b40:	0015d593          	srli	a1,a1,0x1
a0005b44:	00161613          	slli	a2,a2,0x1
a0005b48:	fe0596e3          	bnez	a1,a0005b34 <__mulsi3+0x8>
a0005b4c:	00008067          	ret

a0005b50 <__muldi3>:
a0005b50:	fe810113          	addi	sp,sp,-24
a0005b54:	00050313          	mv	t1,a0
a0005b58:	00060513          	mv	a0,a2
a0005b5c:	00058613          	mv	a2,a1
a0005b60:	00068293          	mv	t0,a3
a0005b64:	00112a23          	sw	ra,20(sp)
a0005b68:	00812823          	sw	s0,16(sp)
a0005b6c:	00912623          	sw	s1,12(sp)
a0005b70:	00030713          	mv	a4,t1
a0005b74:	00050693          	mv	a3,a0
a0005b78:	00000793          	li	a5,0
a0005b7c:	00000593          	li	a1,0
a0005b80:	00000393          	li	t2,0
a0005b84:	00612023          	sw	t1,0(sp)
a0005b88:	00c12223          	sw	a2,4(sp)
a0005b8c:	00a12423          	sw	a0,8(sp)
a0005b90:	00770633          	add	a2,a4,t2
a0005b94:	0016f313          	andi	t1,a3,1
a0005b98:	00f58433          	add	s0,a1,a5
a0005b9c:	01f75513          	srli	a0,a4,0x1f
a0005ba0:	0016d693          	srli	a3,a3,0x1
a0005ba4:	00e634b3          	sltu	s1,a2,a4
a0005ba8:	00179793          	slli	a5,a5,0x1
a0005bac:	00030663          	beqz	t1,a0005bb8 <__muldi3+0x68>
a0005bb0:	00060393          	mv	t2,a2
a0005bb4:	008485b3          	add	a1,s1,s0
a0005bb8:	00171713          	slli	a4,a4,0x1
a0005bbc:	00a7e7b3          	or	a5,a5,a0
a0005bc0:	fc0698e3          	bnez	a3,a0005b90 <__muldi3+0x40>
a0005bc4:	00412603          	lw	a2,4(sp)
a0005bc8:	00012303          	lw	t1,0(sp)
a0005bcc:	00812503          	lw	a0,8(sp)
a0005bd0:	00058793          	mv	a5,a1
a0005bd4:	00060863          	beqz	a2,a0005be4 <__muldi3+0x94>
a0005bd8:	00060593          	mv	a1,a2
a0005bdc:	f51ff0ef          	jal	a0005b2c <__mulsi3>
a0005be0:	00f507b3          	add	a5,a0,a5
a0005be4:	00028a63          	beqz	t0,a0005bf8 <__muldi3+0xa8>
a0005be8:	00030513          	mv	a0,t1
a0005bec:	00028593          	mv	a1,t0
a0005bf0:	f3dff0ef          	jal	a0005b2c <__mulsi3>
a0005bf4:	00f507b3          	add	a5,a0,a5
a0005bf8:	01412083          	lw	ra,20(sp)
a0005bfc:	01012403          	lw	s0,16(sp)
a0005c00:	00c12483          	lw	s1,12(sp)
a0005c04:	00038513          	mv	a0,t2
a0005c08:	00078593          	mv	a1,a5
a0005c0c:	01810113          	addi	sp,sp,24
a0005c10:	00008067          	ret

a0005c14 <strcmp>:
a0005c14:	00054783          	lbu	a5,0(a0)
a0005c18:	00079c63          	bnez	a5,a0005c30 <strcmp+0x1c>
a0005c1c:	0380006f          	j	a0005c54 <strcmp+0x40>
a0005c20:	02f71063          	bne	a4,a5,a0005c40 <strcmp+0x2c>
a0005c24:	00054783          	lbu	a5,0(a0)
a0005c28:	02078063          	beqz	a5,a0005c48 <strcmp+0x34>
a0005c2c:	00068593          	mv	a1,a3
a0005c30:	0005c703          	lbu	a4,0(a1) # 21000000 <_stack_pointer+0x11ffe000>
a0005c34:	00150513          	addi	a0,a0,1
a0005c38:	00158693          	addi	a3,a1,1
a0005c3c:	fe0712e3          	bnez	a4,a0005c20 <strcmp+0xc>
a0005c40:	40e78533          	sub	a0,a5,a4
a0005c44:	00008067          	ret
a0005c48:	0015c703          	lbu	a4,1(a1)
a0005c4c:	40e78533          	sub	a0,a5,a4
a0005c50:	00008067          	ret
a0005c54:	0005c703          	lbu	a4,0(a1)
a0005c58:	fe9ff06f          	j	a0005c40 <strcmp+0x2c>

a0005c5c <printf>:
a0005c5c:	fac10113          	addi	sp,sp,-84
a0005c60:	02812c23          	sw	s0,56(sp)
a0005c64:	04f12823          	sw	a5,80(sp)
a0005c68:	02112e23          	sw	ra,60(sp)
a0005c6c:	04b12023          	sw	a1,64(sp)
a0005c70:	04c12223          	sw	a2,68(sp)
a0005c74:	04d12423          	sw	a3,72(sp)
a0005c78:	04e12623          	sw	a4,76(sp)
a0005c7c:	00050413          	mv	s0,a0
a0005c80:	00054503          	lbu	a0,0(a0)
a0005c84:	04010793          	addi	a5,sp,64
a0005c88:	02f12023          	sw	a5,32(sp)
a0005c8c:	020500e3          	beqz	a0,a00064ac <printf+0x850>
a0005c90:	02912a23          	sw	s1,52(sp)
a0005c94:	00012023          	sw	zero,0(sp)
a0005c98:	0240006f          	j	a0005cbc <printf+0x60>
a0005c9c:	c35ff0ef          	jal	a00058d0 <putch>
a0005ca0:	00012783          	lw	a5,0(sp)
a0005ca4:	00040713          	mv	a4,s0
a0005ca8:	00178793          	addi	a5,a5,1
a0005cac:	00f12023          	sw	a5,0(sp)
a0005cb0:	00174503          	lbu	a0,1(a4)
a0005cb4:	00170413          	addi	s0,a4,1
a0005cb8:	0a050a63          	beqz	a0,a0005d6c <printf+0x110>
a0005cbc:	02500793          	li	a5,37
a0005cc0:	fcf51ee3          	bne	a0,a5,a0005c9c <printf+0x40>
a0005cc4:	00144583          	lbu	a1,1(s0)
a0005cc8:	03000793          	li	a5,48
a0005ccc:	00140713          	addi	a4,s0,1
a0005cd0:	00000313          	li	t1,0
a0005cd4:	00f59863          	bne	a1,a5,a0005ce4 <printf+0x88>
a0005cd8:	00244583          	lbu	a1,2(s0)
a0005cdc:	00240713          	addi	a4,s0,2
a0005ce0:	00100313          	li	t1,1
a0005ce4:	fd058613          	addi	a2,a1,-48
a0005ce8:	0ff67293          	zext.b	t0,a2
a0005cec:	00900693          	li	a3,9
a0005cf0:	00000793          	li	a5,0
a0005cf4:	00900513          	li	a0,9
a0005cf8:	0256e863          	bltu	a3,t0,a0005d28 <printf+0xcc>
a0005cfc:	00078693          	mv	a3,a5
a0005d00:	00174583          	lbu	a1,1(a4)
a0005d04:	00269793          	slli	a5,a3,0x2
a0005d08:	00d787b3          	add	a5,a5,a3
a0005d0c:	00179793          	slli	a5,a5,0x1
a0005d10:	00f606b3          	add	a3,a2,a5
a0005d14:	fd058613          	addi	a2,a1,-48
a0005d18:	0ff67793          	zext.b	a5,a2
a0005d1c:	00170713          	addi	a4,a4,1
a0005d20:	fef570e3          	bgeu	a0,a5,a0005d00 <printf+0xa4>
a0005d24:	00068793          	mv	a5,a3
a0005d28:	f9458593          	addi	a1,a1,-108
a0005d2c:	0015b593          	seqz	a1,a1
a0005d30:	00b70733          	add	a4,a4,a1
a0005d34:	00074603          	lbu	a2,0(a4)
a0005d38:	02500693          	li	a3,37
a0005d3c:	64d60263          	beq	a2,a3,a0006380 <printf+0x724>
a0005d40:	fa860693          	addi	a3,a2,-88
a0005d44:	0ff6f693          	zext.b	a3,a3
a0005d48:	02000593          	li	a1,32
a0005d4c:	02d5ec63          	bltu	a1,a3,a0005d84 <printf+0x128>
a0005d50:	00002597          	auipc	a1,0x2
a0005d54:	f2c58593          	addi	a1,a1,-212 # a0007c7c <mainargs+0x40>
a0005d58:	00269693          	slli	a3,a3,0x2
a0005d5c:	00b686b3          	add	a3,a3,a1
a0005d60:	0006a683          	lw	a3,0(a3)
a0005d64:	00b686b3          	add	a3,a3,a1
a0005d68:	00068067          	jr	a3
a0005d6c:	03c12083          	lw	ra,60(sp)
a0005d70:	03812403          	lw	s0,56(sp)
a0005d74:	00012503          	lw	a0,0(sp)
a0005d78:	03412483          	lw	s1,52(sp)
a0005d7c:	05410113          	addi	sp,sp,84
a0005d80:	00008067          	ret
a0005d84:	02500513          	li	a0,37
a0005d88:	00e12223          	sw	a4,4(sp)
a0005d8c:	b45ff0ef          	jal	a00058d0 <putch>
a0005d90:	00412703          	lw	a4,4(sp)
a0005d94:	00074503          	lbu	a0,0(a4)
a0005d98:	b39ff0ef          	jal	a00058d0 <putch>
a0005d9c:	00012783          	lw	a5,0(sp)
a0005da0:	00412703          	lw	a4,4(sp)
a0005da4:	00278793          	addi	a5,a5,2
a0005da8:	00f12023          	sw	a5,0(sp)
a0005dac:	f05ff06f          	j	a0005cb0 <printf+0x54>
a0005db0:	02012583          	lw	a1,32(sp)
a0005db4:	f8860613          	addi	a2,a2,-120
a0005db8:	04100693          	li	a3,65
a0005dbc:	00458513          	addi	a0,a1,4
a0005dc0:	02a12023          	sw	a0,32(sp)
a0005dc4:	0005a583          	lw	a1,0(a1)
a0005dc8:	60060e63          	beqz	a2,a00063e4 <printf+0x788>
a0005dcc:	0ff6f513          	zext.b	a0,a3
a0005dd0:	00000613          	li	a2,0
a0005dd4:	02410693          	addi	a3,sp,36
a0005dd8:	00900393          	li	t2,9
a0005ddc:	ff650413          	addi	s0,a0,-10
a0005de0:	00f00293          	li	t0,15
a0005de4:	01c0006f          	j	a0005e00 <printf+0x1a4>
a0005de8:	03008513          	addi	a0,ra,48
a0005dec:	00c680b3          	add	ra,a3,a2
a0005df0:	fea08fa3          	sb	a0,-1(ra)
a0005df4:	0045d513          	srli	a0,a1,0x4
a0005df8:	02b2f863          	bgeu	t0,a1,a0005e28 <printf+0x1cc>
a0005dfc:	00050593          	mv	a1,a0
a0005e00:	00f5f093          	andi	ra,a1,15
a0005e04:	00060493          	mv	s1,a2
a0005e08:	00160613          	addi	a2,a2,1
a0005e0c:	fc13fee3          	bgeu	t2,ra,a0005de8 <printf+0x18c>
a0005e10:	00808533          	add	a0,ra,s0
a0005e14:	0ff57513          	zext.b	a0,a0
a0005e18:	00c680b3          	add	ra,a3,a2
a0005e1c:	fea08fa3          	sb	a0,-1(ra)
a0005e20:	0045d513          	srli	a0,a1,0x4
a0005e24:	fcb2ece3          	bltu	t0,a1,a0005dfc <printf+0x1a0>
a0005e28:	40c78633          	sub	a2,a5,a2
a0005e2c:	04c05863          	blez	a2,a0005e7c <printf+0x220>
a0005e30:	02000793          	li	a5,32
a0005e34:	5c031463          	bnez	t1,a00063fc <printf+0x7a0>
a0005e38:	00000413          	li	s0,0
a0005e3c:	00912423          	sw	s1,8(sp)
a0005e40:	00f12223          	sw	a5,4(sp)
a0005e44:	00040493          	mv	s1,s0
a0005e48:	00e12623          	sw	a4,12(sp)
a0005e4c:	00060413          	mv	s0,a2
a0005e50:	00d12823          	sw	a3,16(sp)
a0005e54:	00412503          	lw	a0,4(sp)
a0005e58:	00148493          	addi	s1,s1,1
a0005e5c:	a75ff0ef          	jal	a00058d0 <putch>
a0005e60:	fe941ae3          	bne	s0,s1,a0005e54 <printf+0x1f8>
a0005e64:	00012783          	lw	a5,0(sp)
a0005e68:	00812483          	lw	s1,8(sp)
a0005e6c:	00c12703          	lw	a4,12(sp)
a0005e70:	01012683          	lw	a3,16(sp)
a0005e74:	008787b3          	add	a5,a5,s0
a0005e78:	00f12023          	sw	a5,0(sp)
a0005e7c:	00968433          	add	s0,a3,s1
a0005e80:	00912223          	sw	s1,4(sp)
a0005e84:	00e12423          	sw	a4,8(sp)
a0005e88:	00040493          	mv	s1,s0
a0005e8c:	00068413          	mv	s0,a3
a0005e90:	0004c503          	lbu	a0,0(s1)
a0005e94:	a3dff0ef          	jal	a00058d0 <putch>
a0005e98:	00048713          	mv	a4,s1
a0005e9c:	fff48493          	addi	s1,s1,-1
a0005ea0:	fee418e3          	bne	s0,a4,a0005e90 <printf+0x234>
a0005ea4:	00012783          	lw	a5,0(sp)
a0005ea8:	00412483          	lw	s1,4(sp)
a0005eac:	00812703          	lw	a4,8(sp)
a0005eb0:	00178793          	addi	a5,a5,1
a0005eb4:	009787b3          	add	a5,a5,s1
a0005eb8:	00f12023          	sw	a5,0(sp)
a0005ebc:	df5ff06f          	j	a0005cb0 <printf+0x54>
a0005ec0:	02012783          	lw	a5,32(sp)
a0005ec4:	00e12223          	sw	a4,4(sp)
a0005ec8:	0007c503          	lbu	a0,0(a5)
a0005ecc:	00478793          	addi	a5,a5,4
a0005ed0:	02f12023          	sw	a5,32(sp)
a0005ed4:	9fdff0ef          	jal	a00058d0 <putch>
a0005ed8:	00012783          	lw	a5,0(sp)
a0005edc:	00412703          	lw	a4,4(sp)
a0005ee0:	00178793          	addi	a5,a5,1
a0005ee4:	00f12023          	sw	a5,0(sp)
a0005ee8:	dc9ff06f          	j	a0005cb0 <printf+0x54>
a0005eec:	02012503          	lw	a0,32(sp)
a0005ef0:	00000613          	li	a2,0
a0005ef4:	02410693          	addi	a3,sp,36
a0005ef8:	00052583          	lw	a1,0(a0)
a0005efc:	00450513          	addi	a0,a0,4
a0005f00:	02a12023          	sw	a0,32(sp)
a0005f04:	00700093          	li	ra,7
a0005f08:	0075f513          	andi	a0,a1,7
a0005f0c:	00060293          	mv	t0,a2
a0005f10:	00160613          	addi	a2,a2,1
a0005f14:	00c68433          	add	s0,a3,a2
a0005f18:	03050513          	addi	a0,a0,48
a0005f1c:	00058393          	mv	t2,a1
a0005f20:	fea40fa3          	sb	a0,-1(s0)
a0005f24:	0035d593          	srli	a1,a1,0x3
a0005f28:	fe70e0e3          	bltu	ra,t2,a0005f08 <printf+0x2ac>
a0005f2c:	40c784b3          	sub	s1,a5,a2
a0005f30:	04905663          	blez	s1,a0005f7c <printf+0x320>
a0005f34:	02000413          	li	s0,32
a0005f38:	4a031e63          	bnez	t1,a00063f4 <printf+0x798>
a0005f3c:	0ff47793          	zext.b	a5,s0
a0005f40:	00f12223          	sw	a5,4(sp)
a0005f44:	00000413          	li	s0,0
a0005f48:	00e12423          	sw	a4,8(sp)
a0005f4c:	00512623          	sw	t0,12(sp)
a0005f50:	00d12823          	sw	a3,16(sp)
a0005f54:	00412503          	lw	a0,4(sp)
a0005f58:	00140413          	addi	s0,s0,1
a0005f5c:	975ff0ef          	jal	a00058d0 <putch>
a0005f60:	fe849ae3          	bne	s1,s0,a0005f54 <printf+0x2f8>
a0005f64:	00012783          	lw	a5,0(sp)
a0005f68:	00812703          	lw	a4,8(sp)
a0005f6c:	00c12283          	lw	t0,12(sp)
a0005f70:	01012683          	lw	a3,16(sp)
a0005f74:	009787b3          	add	a5,a5,s1
a0005f78:	00f12023          	sw	a5,0(sp)
a0005f7c:	00568433          	add	s0,a3,t0
a0005f80:	00e12223          	sw	a4,4(sp)
a0005f84:	00512423          	sw	t0,8(sp)
a0005f88:	00068493          	mv	s1,a3
a0005f8c:	00044503          	lbu	a0,0(s0)
a0005f90:	941ff0ef          	jal	a00058d0 <putch>
a0005f94:	00040713          	mv	a4,s0
a0005f98:	fff40413          	addi	s0,s0,-1
a0005f9c:	fee498e3          	bne	s1,a4,a0005f8c <printf+0x330>
a0005fa0:	00012783          	lw	a5,0(sp)
a0005fa4:	00812283          	lw	t0,8(sp)
a0005fa8:	00412703          	lw	a4,4(sp)
a0005fac:	00178793          	addi	a5,a5,1
a0005fb0:	00f287b3          	add	a5,t0,a5
a0005fb4:	00f12023          	sw	a5,0(sp)
a0005fb8:	cf9ff06f          	j	a0005cb0 <printf+0x54>
a0005fbc:	02012683          	lw	a3,32(sp)
a0005fc0:	00000593          	li	a1,0
a0005fc4:	0006a483          	lw	s1,0(a3)
a0005fc8:	00468693          	addi	a3,a3,4
a0005fcc:	02d12023          	sw	a3,32(sp)
a0005fd0:	4204ca63          	bltz	s1,a0006404 <printf+0x7a8>
a0005fd4:	00000293          	li	t0,0
a0005fd8:	02410693          	addi	a3,sp,36
a0005fdc:	00048413          	mv	s0,s1
a0005fe0:	00f12823          	sw	a5,16(sp)
a0005fe4:	00028493          	mv	s1,t0
a0005fe8:	00e12a23          	sw	a4,20(sp)
a0005fec:	00612c23          	sw	t1,24(sp)
a0005ff0:	00b12e23          	sw	a1,28(sp)
a0005ff4:	00d12423          	sw	a3,8(sp)
a0005ff8:	00812783          	lw	a5,8(sp)
a0005ffc:	00912623          	sw	s1,12(sp)
a0006000:	00148493          	addi	s1,s1,1
a0006004:	009786b3          	add	a3,a5,s1
a0006008:	00a00593          	li	a1,10
a000600c:	00040513          	mv	a0,s0
a0006010:	00d12223          	sw	a3,4(sp)
a0006014:	ab5ff0ef          	jal	a0005ac8 <__umodsi3>
a0006018:	00412683          	lw	a3,4(sp)
a000601c:	03050713          	addi	a4,a0,48
a0006020:	00a00593          	li	a1,10
a0006024:	00040513          	mv	a0,s0
a0006028:	fee68fa3          	sb	a4,-1(a3)
a000602c:	00812223          	sw	s0,4(sp)
a0006030:	a51ff0ef          	jal	a0005a80 <__hidden___udivsi3>
a0006034:	00412703          	lw	a4,4(sp)
a0006038:	00900793          	li	a5,9
a000603c:	00050413          	mv	s0,a0
a0006040:	fae7ece3          	bltu	a5,a4,a0005ff8 <printf+0x39c>
a0006044:	01c12583          	lw	a1,28(sp)
a0006048:	01012783          	lw	a5,16(sp)
a000604c:	01412703          	lw	a4,20(sp)
a0006050:	01812303          	lw	t1,24(sp)
a0006054:	00812683          	lw	a3,8(sp)
a0006058:	00048293          	mv	t0,s1
a000605c:	32059863          	bnez	a1,a000638c <printf+0x730>
a0006060:	409784b3          	sub	s1,a5,s1
a0006064:	3c030463          	beqz	t1,a000642c <printf+0x7d0>
a0006068:	44905e63          	blez	s1,a00064c4 <printf+0x868>
a000606c:	00000793          	li	a5,0
a0006070:	00078413          	mv	s0,a5
a0006074:	00e12223          	sw	a4,4(sp)
a0006078:	00b12423          	sw	a1,8(sp)
a000607c:	00d12823          	sw	a3,16(sp)
a0006080:	03000513          	li	a0,48
a0006084:	00140413          	addi	s0,s0,1
a0006088:	849ff0ef          	jal	a00058d0 <putch>
a000608c:	fe849ae3          	bne	s1,s0,a0006080 <printf+0x424>
a0006090:	01012683          	lw	a3,16(sp)
a0006094:	00012783          	lw	a5,0(sp)
a0006098:	00c12603          	lw	a2,12(sp)
a000609c:	00812583          	lw	a1,8(sp)
a00060a0:	00f487b3          	add	a5,s1,a5
a00060a4:	00c684b3          	add	s1,a3,a2
a00060a8:	02310693          	addi	a3,sp,35
a00060ac:	00412703          	lw	a4,4(sp)
a00060b0:	00b686b3          	add	a3,a3,a1
a00060b4:	04b64063          	blt	a2,a1,a00060f4 <printf+0x498>
a00060b8:	00068413          	mv	s0,a3
a00060bc:	00f12023          	sw	a5,0(sp)
a00060c0:	00e12223          	sw	a4,4(sp)
a00060c4:	00b12423          	sw	a1,8(sp)
a00060c8:	0004c503          	lbu	a0,0(s1)
a00060cc:	fff48493          	addi	s1,s1,-1
a00060d0:	801ff0ef          	jal	a00058d0 <putch>
a00060d4:	fe941ae3          	bne	s0,s1,a00060c8 <printf+0x46c>
a00060d8:	00812583          	lw	a1,8(sp)
a00060dc:	00c12603          	lw	a2,12(sp)
a00060e0:	00012783          	lw	a5,0(sp)
a00060e4:	0015c693          	xori	a3,a1,1
a00060e8:	00412703          	lw	a4,4(sp)
a00060ec:	00c686b3          	add	a3,a3,a2
a00060f0:	00f687b3          	add	a5,a3,a5
a00060f4:	00f12023          	sw	a5,0(sp)
a00060f8:	bb9ff06f          	j	a0005cb0 <printf+0x54>
a00060fc:	02012583          	lw	a1,32(sp)
a0006100:	00000493          	li	s1,0
a0006104:	02410693          	addi	a3,sp,36
a0006108:	0005a603          	lw	a2,0(a1)
a000610c:	00458593          	addi	a1,a1,4
a0006110:	00048413          	mv	s0,s1
a0006114:	02b12023          	sw	a1,32(sp)
a0006118:	00060493          	mv	s1,a2
a000611c:	00f12823          	sw	a5,16(sp)
a0006120:	00e12a23          	sw	a4,20(sp)
a0006124:	00612c23          	sw	t1,24(sp)
a0006128:	00d12623          	sw	a3,12(sp)
a000612c:	00c12783          	lw	a5,12(sp)
a0006130:	00040693          	mv	a3,s0
a0006134:	00140413          	addi	s0,s0,1
a0006138:	00878333          	add	t1,a5,s0
a000613c:	00a00593          	li	a1,10
a0006140:	00048513          	mv	a0,s1
a0006144:	00d12423          	sw	a3,8(sp)
a0006148:	00612223          	sw	t1,4(sp)
a000614c:	97dff0ef          	jal	a0005ac8 <__umodsi3>
a0006150:	00412303          	lw	t1,4(sp)
a0006154:	03050793          	addi	a5,a0,48
a0006158:	00a00593          	li	a1,10
a000615c:	00048513          	mv	a0,s1
a0006160:	fef30fa3          	sb	a5,-1(t1)
a0006164:	00912223          	sw	s1,4(sp)
a0006168:	919ff0ef          	jal	a0005a80 <__hidden___udivsi3>
a000616c:	00412783          	lw	a5,4(sp)
a0006170:	00900713          	li	a4,9
a0006174:	00812683          	lw	a3,8(sp)
a0006178:	00050493          	mv	s1,a0
a000617c:	faf768e3          	bltu	a4,a5,a000612c <printf+0x4d0>
a0006180:	01012783          	lw	a5,16(sp)
a0006184:	00040493          	mv	s1,s0
a0006188:	01412703          	lw	a4,20(sp)
a000618c:	40978633          	sub	a2,a5,s1
a0006190:	00068413          	mv	s0,a3
a0006194:	01812303          	lw	t1,24(sp)
a0006198:	00c12683          	lw	a3,12(sp)
a000619c:	04c05863          	blez	a2,a00061ec <printf+0x590>
a00061a0:	02000793          	li	a5,32
a00061a4:	24031463          	bnez	t1,a00063ec <printf+0x790>
a00061a8:	00000493          	li	s1,0
a00061ac:	00812423          	sw	s0,8(sp)
a00061b0:	00f12223          	sw	a5,4(sp)
a00061b4:	00048413          	mv	s0,s1
a00061b8:	00e12623          	sw	a4,12(sp)
a00061bc:	00060493          	mv	s1,a2
a00061c0:	00d12823          	sw	a3,16(sp)
a00061c4:	00412503          	lw	a0,4(sp)
a00061c8:	00140413          	addi	s0,s0,1
a00061cc:	f04ff0ef          	jal	a00058d0 <putch>
a00061d0:	fe849ae3          	bne	s1,s0,a00061c4 <printf+0x568>
a00061d4:	00012783          	lw	a5,0(sp)
a00061d8:	00812403          	lw	s0,8(sp)
a00061dc:	00c12703          	lw	a4,12(sp)
a00061e0:	01012683          	lw	a3,16(sp)
a00061e4:	009787b3          	add	a5,a5,s1
a00061e8:	00f12023          	sw	a5,0(sp)
a00061ec:	008684b3          	add	s1,a3,s0
a00061f0:	00812223          	sw	s0,4(sp)
a00061f4:	00e12423          	sw	a4,8(sp)
a00061f8:	00048413          	mv	s0,s1
a00061fc:	00068493          	mv	s1,a3
a0006200:	00044503          	lbu	a0,0(s0)
a0006204:	eccff0ef          	jal	a00058d0 <putch>
a0006208:	00040713          	mv	a4,s0
a000620c:	fff40413          	addi	s0,s0,-1
a0006210:	fee498e3          	bne	s1,a4,a0006200 <printf+0x5a4>
a0006214:	00012783          	lw	a5,0(sp)
a0006218:	00412403          	lw	s0,4(sp)
a000621c:	00812703          	lw	a4,8(sp)
a0006220:	00178793          	addi	a5,a5,1
a0006224:	00f407b3          	add	a5,s0,a5
a0006228:	00f12023          	sw	a5,0(sp)
a000622c:	a85ff06f          	j	a0005cb0 <printf+0x54>
a0006230:	02012683          	lw	a3,32(sp)
a0006234:	0006a483          	lw	s1,0(a3)
a0006238:	00468693          	addi	a3,a3,4
a000623c:	02d12023          	sw	a3,32(sp)
a0006240:	0004c503          	lbu	a0,0(s1)
a0006244:	28050463          	beqz	a0,a00064cc <printf+0x870>
a0006248:	00000693          	li	a3,0
a000624c:	00168693          	addi	a3,a3,1
a0006250:	00d48633          	add	a2,s1,a3
a0006254:	00064603          	lbu	a2,0(a2)
a0006258:	fe061ae3          	bnez	a2,a000624c <printf+0x5f0>
a000625c:	40d787b3          	sub	a5,a5,a3
a0006260:	04f05263          	blez	a5,a00062a4 <printf+0x648>
a0006264:	00000413          	li	s0,0
a0006268:	00912223          	sw	s1,4(sp)
a000626c:	00e12423          	sw	a4,8(sp)
a0006270:	00040493          	mv	s1,s0
a0006274:	00078413          	mv	s0,a5
a0006278:	02000513          	li	a0,32
a000627c:	00148493          	addi	s1,s1,1
a0006280:	e50ff0ef          	jal	a00058d0 <putch>
a0006284:	fe84cae3          	blt	s1,s0,a0006278 <printf+0x61c>
a0006288:	00412483          	lw	s1,4(sp)
a000628c:	00012683          	lw	a3,0(sp)
a0006290:	00812703          	lw	a4,8(sp)
a0006294:	0004c503          	lbu	a0,0(s1)
a0006298:	00d407b3          	add	a5,s0,a3
a000629c:	00f12023          	sw	a5,0(sp)
a00062a0:	a00508e3          	beqz	a0,a0005cb0 <printf+0x54>
a00062a4:	00048413          	mv	s0,s1
a00062a8:	00e12223          	sw	a4,4(sp)
a00062ac:	00140413          	addi	s0,s0,1
a00062b0:	e20ff0ef          	jal	a00058d0 <putch>
a00062b4:	00044503          	lbu	a0,0(s0)
a00062b8:	fe051ae3          	bnez	a0,a00062ac <printf+0x650>
a00062bc:	00012783          	lw	a5,0(sp)
a00062c0:	40940433          	sub	s0,s0,s1
a00062c4:	00412703          	lw	a4,4(sp)
a00062c8:	00f407b3          	add	a5,s0,a5
a00062cc:	00f12023          	sw	a5,0(sp)
a00062d0:	9e1ff06f          	j	a0005cb0 <printf+0x54>
a00062d4:	02012783          	lw	a5,32(sp)
a00062d8:	03000513          	li	a0,48
a00062dc:	00e12223          	sw	a4,4(sp)
a00062e0:	00478693          	addi	a3,a5,4
a00062e4:	0007a403          	lw	s0,0(a5)
a00062e8:	02d12023          	sw	a3,32(sp)
a00062ec:	de4ff0ef          	jal	a00058d0 <putch>
a00062f0:	07800513          	li	a0,120
a00062f4:	ddcff0ef          	jal	a00058d0 <putch>
a00062f8:	00412703          	lw	a4,4(sp)
a00062fc:	10040a63          	beqz	s0,a0006410 <printf+0x7b4>
a0006300:	00040793          	mv	a5,s0
a0006304:	00000493          	li	s1,0
a0006308:	02410693          	addi	a3,sp,36
a000630c:	00900313          	li	t1,9
a0006310:	0080006f          	j	a0006318 <printf+0x6bc>
a0006314:	00060493          	mv	s1,a2
a0006318:	00f7f513          	andi	a0,a5,15
a000631c:	05750593          	addi	a1,a0,87
a0006320:	00a36463          	bltu	t1,a0,a0006328 <printf+0x6cc>
a0006324:	03050593          	addi	a1,a0,48
a0006328:	00148613          	addi	a2,s1,1
a000632c:	00c68533          	add	a0,a3,a2
a0006330:	feb50fa3          	sb	a1,-1(a0)
a0006334:	0047d793          	srli	a5,a5,0x4
a0006338:	fc079ee3          	bnez	a5,a0006314 <printf+0x6b8>
a000633c:	00968433          	add	s0,a3,s1
a0006340:	00912223          	sw	s1,4(sp)
a0006344:	00e12423          	sw	a4,8(sp)
a0006348:	00040493          	mv	s1,s0
a000634c:	00068413          	mv	s0,a3
a0006350:	0004c503          	lbu	a0,0(s1)
a0006354:	d7cff0ef          	jal	a00058d0 <putch>
a0006358:	00048713          	mv	a4,s1
a000635c:	fff48493          	addi	s1,s1,-1
a0006360:	fee418e3          	bne	s0,a4,a0006350 <printf+0x6f4>
a0006364:	00012783          	lw	a5,0(sp)
a0006368:	00412483          	lw	s1,4(sp)
a000636c:	00812703          	lw	a4,8(sp)
a0006370:	00378793          	addi	a5,a5,3
a0006374:	009787b3          	add	a5,a5,s1
a0006378:	00f12023          	sw	a5,0(sp)
a000637c:	935ff06f          	j	a0005cb0 <printf+0x54>
a0006380:	00e12223          	sw	a4,4(sp)
a0006384:	02500513          	li	a0,37
a0006388:	b4dff06f          	j	a0005ed4 <printf+0x278>
a000638c:	00c12603          	lw	a2,12(sp)
a0006390:	02010393          	addi	t2,sp,32
a0006394:	02d00513          	li	a0,45
a0006398:	00260493          	addi	s1,a2,2
a000639c:	01428613          	addi	a2,t0,20
a00063a0:	00760633          	add	a2,a2,t2
a00063a4:	fea60823          	sb	a0,-16(a2)
a00063a8:	409784b3          	sub	s1,a5,s1
a00063ac:	08030263          	beqz	t1,a0006430 <printf+0x7d4>
a00063b0:	0a905e63          	blez	s1,a000646c <printf+0x810>
a00063b4:	00012783          	lw	a5,0(sp)
a00063b8:	02d00513          	li	a0,45
a00063bc:	00d12823          	sw	a3,16(sp)
a00063c0:	00178793          	addi	a5,a5,1
a00063c4:	00b12423          	sw	a1,8(sp)
a00063c8:	00e12223          	sw	a4,4(sp)
a00063cc:	00f12023          	sw	a5,0(sp)
a00063d0:	d00ff0ef          	jal	a00058d0 <putch>
a00063d4:	01012683          	lw	a3,16(sp)
a00063d8:	00812583          	lw	a1,8(sp)
a00063dc:	00412703          	lw	a4,4(sp)
a00063e0:	c8dff06f          	j	a000606c <printf+0x410>
a00063e4:	06100693          	li	a3,97
a00063e8:	9e5ff06f          	j	a0005dcc <printf+0x170>
a00063ec:	03000793          	li	a5,48
a00063f0:	db9ff06f          	j	a00061a8 <printf+0x54c>
a00063f4:	03000413          	li	s0,48
a00063f8:	b45ff06f          	j	a0005f3c <printf+0x2e0>
a00063fc:	03000793          	li	a5,48
a0006400:	a39ff06f          	j	a0005e38 <printf+0x1dc>
a0006404:	409004b3          	neg	s1,s1
a0006408:	00100593          	li	a1,1
a000640c:	bc9ff06f          	j	a0005fd4 <printf+0x378>
a0006410:	03000513          	li	a0,48
a0006414:	cbcff0ef          	jal	a00058d0 <putch>
a0006418:	00012783          	lw	a5,0(sp)
a000641c:	00412703          	lw	a4,4(sp)
a0006420:	00378793          	addi	a5,a5,3
a0006424:	00f12023          	sw	a5,0(sp)
a0006428:	889ff06f          	j	a0005cb0 <printf+0x54>
a000642c:	00c12283          	lw	t0,12(sp)
a0006430:	00000413          	li	s0,0
a0006434:	02905c63          	blez	s1,a000646c <printf+0x810>
a0006438:	00512223          	sw	t0,4(sp)
a000643c:	00e12423          	sw	a4,8(sp)
a0006440:	00d12623          	sw	a3,12(sp)
a0006444:	02000513          	li	a0,32
a0006448:	00140413          	addi	s0,s0,1
a000644c:	c84ff0ef          	jal	a00058d0 <putch>
a0006450:	fe849ae3          	bne	s1,s0,a0006444 <printf+0x7e8>
a0006454:	00012783          	lw	a5,0(sp)
a0006458:	00412283          	lw	t0,4(sp)
a000645c:	00812703          	lw	a4,8(sp)
a0006460:	00c12683          	lw	a3,12(sp)
a0006464:	009787b3          	add	a5,a5,s1
a0006468:	00f12023          	sw	a5,0(sp)
a000646c:	00568433          	add	s0,a3,t0
a0006470:	00512223          	sw	t0,4(sp)
a0006474:	00e12423          	sw	a4,8(sp)
a0006478:	00068493          	mv	s1,a3
a000647c:	00044503          	lbu	a0,0(s0)
a0006480:	c50ff0ef          	jal	a00058d0 <putch>
a0006484:	00040713          	mv	a4,s0
a0006488:	fff40413          	addi	s0,s0,-1
a000648c:	fee498e3          	bne	s1,a4,a000647c <printf+0x820>
a0006490:	00012783          	lw	a5,0(sp)
a0006494:	00412283          	lw	t0,4(sp)
a0006498:	00812703          	lw	a4,8(sp)
a000649c:	00178793          	addi	a5,a5,1
a00064a0:	005787b3          	add	a5,a5,t0
a00064a4:	00f12023          	sw	a5,0(sp)
a00064a8:	809ff06f          	j	a0005cb0 <printf+0x54>
a00064ac:	03c12083          	lw	ra,60(sp)
a00064b0:	03812403          	lw	s0,56(sp)
a00064b4:	00012023          	sw	zero,0(sp)
a00064b8:	00012503          	lw	a0,0(sp)
a00064bc:	05410113          	addi	sp,sp,84
a00064c0:	00008067          	ret
a00064c4:	00c12283          	lw	t0,12(sp)
a00064c8:	fa5ff06f          	j	a000646c <printf+0x810>
a00064cc:	d8f04ce3          	bgtz	a5,a0006264 <printf+0x608>
a00064d0:	fe0ff06f          	j	a0005cb0 <printf+0x54>

a00064d4 <vsprintf>:
a00064d4:	fb810113          	addi	sp,sp,-72
a00064d8:	04112223          	sw	ra,68(sp)
a00064dc:	02912e23          	sw	s1,60(sp)
a00064e0:	0005c703          	lbu	a4,0(a1)
a00064e4:	54070a63          	beqz	a4,a0006a38 <vsprintf+0x564>
a00064e8:	04812023          	sw	s0,64(sp)
a00064ec:	00050293          	mv	t0,a0
a00064f0:	00a12623          	sw	a0,12(sp)
a00064f4:	00900413          	li	s0,9
a00064f8:	00060513          	mv	a0,a2
a00064fc:	01c0006f          	j	a0006518 <vsprintf+0x44>
a0006500:	00e28023          	sb	a4,0(t0)
a0006504:	00058693          	mv	a3,a1
a0006508:	00128293          	addi	t0,t0,1
a000650c:	0016c703          	lbu	a4,1(a3)
a0006510:	00168593          	addi	a1,a3,1
a0006514:	0a070663          	beqz	a4,a00065c0 <vsprintf+0xec>
a0006518:	02500793          	li	a5,37
a000651c:	fef712e3          	bne	a4,a5,a0006500 <vsprintf+0x2c>
a0006520:	0015c603          	lbu	a2,1(a1)
a0006524:	03000793          	li	a5,48
a0006528:	00158693          	addi	a3,a1,1
a000652c:	00000393          	li	t2,0
a0006530:	00f61863          	bne	a2,a5,a0006540 <vsprintf+0x6c>
a0006534:	0025c603          	lbu	a2,2(a1)
a0006538:	00258693          	addi	a3,a1,2
a000653c:	00100393          	li	t2,1
a0006540:	fd060713          	addi	a4,a2,-48
a0006544:	0ff77593          	zext.b	a1,a4
a0006548:	00000793          	li	a5,0
a000654c:	02b46863          	bltu	s0,a1,a000657c <vsprintf+0xa8>
a0006550:	00078593          	mv	a1,a5
a0006554:	0016c603          	lbu	a2,1(a3)
a0006558:	00259793          	slli	a5,a1,0x2
a000655c:	00b787b3          	add	a5,a5,a1
a0006560:	00179793          	slli	a5,a5,0x1
a0006564:	00f705b3          	add	a1,a4,a5
a0006568:	fd060713          	addi	a4,a2,-48
a000656c:	0ff77793          	zext.b	a5,a4
a0006570:	00168693          	addi	a3,a3,1
a0006574:	fef470e3          	bgeu	s0,a5,a0006554 <vsprintf+0x80>
a0006578:	00058793          	mv	a5,a1
a000657c:	f9460613          	addi	a2,a2,-108
a0006580:	00163613          	seqz	a2,a2
a0006584:	00c686b3          	add	a3,a3,a2
a0006588:	0006c603          	lbu	a2,0(a3)
a000658c:	02500713          	li	a4,37
a0006590:	48e60c63          	beq	a2,a4,a0006a28 <vsprintf+0x554>
a0006594:	fa860713          	addi	a4,a2,-88
a0006598:	0ff77713          	zext.b	a4,a4
a000659c:	02000593          	li	a1,32
a00065a0:	04e5e063          	bltu	a1,a4,a00065e0 <vsprintf+0x10c>
a00065a4:	00001597          	auipc	a1,0x1
a00065a8:	75c58593          	addi	a1,a1,1884 # a0007d00 <mainargs+0xc4>
a00065ac:	00271713          	slli	a4,a4,0x2
a00065b0:	00b70733          	add	a4,a4,a1
a00065b4:	00072703          	lw	a4,0(a4)
a00065b8:	00b70733          	add	a4,a4,a1
a00065bc:	00070067          	jr	a4
a00065c0:	04012403          	lw	s0,64(sp)
a00065c4:	00028023          	sb	zero,0(t0)
a00065c8:	00c12483          	lw	s1,12(sp)
a00065cc:	04412083          	lw	ra,68(sp)
a00065d0:	40928533          	sub	a0,t0,s1
a00065d4:	03c12483          	lw	s1,60(sp)
a00065d8:	04810113          	addi	sp,sp,72
a00065dc:	00008067          	ret
a00065e0:	02500793          	li	a5,37
a00065e4:	00f28023          	sb	a5,0(t0)
a00065e8:	0006c783          	lbu	a5,0(a3)
a00065ec:	00228293          	addi	t0,t0,2
a00065f0:	fef28fa3          	sb	a5,-1(t0)
a00065f4:	f19ff06f          	j	a000650c <vsprintf+0x38>
a00065f8:	00450593          	addi	a1,a0,4
a00065fc:	f8860713          	addi	a4,a2,-120
a0006600:	00b12023          	sw	a1,0(sp)
a0006604:	00052603          	lw	a2,0(a0)
a0006608:	04100593          	li	a1,65
a000660c:	00071463          	bnez	a4,a0006614 <vsprintf+0x140>
a0006610:	06100593          	li	a1,97
a0006614:	ff658593          	addi	a1,a1,-10
a0006618:	00f12423          	sw	a5,8(sp)
a000661c:	00000713          	li	a4,0
a0006620:	02c10493          	addi	s1,sp,44
a0006624:	00900313          	li	t1,9
a0006628:	00512223          	sw	t0,4(sp)
a000662c:	00058793          	mv	a5,a1
a0006630:	0200006f          	j	a0006650 <vsprintf+0x17c>
a0006634:	03028593          	addi	a1,t0,48
a0006638:	00e482b3          	add	t0,s1,a4
a000663c:	feb28fa3          	sb	a1,-1(t0)
a0006640:	00f00293          	li	t0,15
a0006644:	00465593          	srli	a1,a2,0x4
a0006648:	02c2fa63          	bgeu	t0,a2,a000667c <vsprintf+0x1a8>
a000664c:	00058613          	mv	a2,a1
a0006650:	00f67293          	andi	t0,a2,15
a0006654:	00070513          	mv	a0,a4
a0006658:	00170713          	addi	a4,a4,1
a000665c:	fc537ce3          	bgeu	t1,t0,a0006634 <vsprintf+0x160>
a0006660:	00f285b3          	add	a1,t0,a5
a0006664:	0ff5f593          	zext.b	a1,a1
a0006668:	00e482b3          	add	t0,s1,a4
a000666c:	feb28fa3          	sb	a1,-1(t0)
a0006670:	00f00293          	li	t0,15
a0006674:	00465593          	srli	a1,a2,0x4
a0006678:	fcc2eae3          	bltu	t0,a2,a000664c <vsprintf+0x178>
a000667c:	00812783          	lw	a5,8(sp)
a0006680:	00412283          	lw	t0,4(sp)
a0006684:	40e787b3          	sub	a5,a5,a4
a0006688:	4cf05463          	blez	a5,a0006b50 <vsprintf+0x67c>
a000668c:	02000713          	li	a4,32
a0006690:	00038463          	beqz	t2,a0006698 <vsprintf+0x1c4>
a0006694:	03000713          	li	a4,48
a0006698:	00f287b3          	add	a5,t0,a5
a000669c:	00128293          	addi	t0,t0,1
a00066a0:	fee28fa3          	sb	a4,-1(t0)
a00066a4:	fe579ce3          	bne	a5,t0,a000669c <vsprintf+0x1c8>
a00066a8:	00a48733          	add	a4,s1,a0
a00066ac:	00078613          	mv	a2,a5
a00066b0:	00074303          	lbu	t1,0(a4)
a00066b4:	00070593          	mv	a1,a4
a00066b8:	00160613          	addi	a2,a2,1
a00066bc:	fe660fa3          	sb	t1,-1(a2)
a00066c0:	fff70713          	addi	a4,a4,-1
a00066c4:	feb496e3          	bne	s1,a1,a00066b0 <vsprintf+0x1dc>
a00066c8:	00150493          	addi	s1,a0,1
a00066cc:	009782b3          	add	t0,a5,s1
a00066d0:	00012503          	lw	a0,0(sp)
a00066d4:	e39ff06f          	j	a000650c <vsprintf+0x38>
a00066d8:	00052783          	lw	a5,0(a0)
a00066dc:	00128293          	addi	t0,t0,1
a00066e0:	00450513          	addi	a0,a0,4
a00066e4:	fef28fa3          	sb	a5,-1(t0)
a00066e8:	e25ff06f          	j	a000650c <vsprintf+0x38>
a00066ec:	00052703          	lw	a4,0(a0)
a00066f0:	00450613          	addi	a2,a0,4
a00066f4:	00c12a23          	sw	a2,20(sp)
a00066f8:	00000593          	li	a1,0
a00066fc:	00075663          	bgez	a4,a0006708 <vsprintf+0x234>
a0006700:	40e00733          	neg	a4,a4
a0006704:	00100593          	li	a1,1
a0006708:	02c10493          	addi	s1,sp,44
a000670c:	00912423          	sw	s1,8(sp)
a0006710:	00000613          	li	a2,0
a0006714:	00512c23          	sw	t0,24(sp)
a0006718:	00f12e23          	sw	a5,28(sp)
a000671c:	02d12023          	sw	a3,32(sp)
a0006720:	02712223          	sw	t2,36(sp)
a0006724:	02b12423          	sw	a1,40(sp)
a0006728:	00070493          	mv	s1,a4
a000672c:	00812783          	lw	a5,8(sp)
a0006730:	00c12823          	sw	a2,16(sp)
a0006734:	00160613          	addi	a2,a2,1
a0006738:	00c786b3          	add	a3,a5,a2
a000673c:	00a00593          	li	a1,10
a0006740:	00048513          	mv	a0,s1
a0006744:	00c12223          	sw	a2,4(sp)
a0006748:	00d12023          	sw	a3,0(sp)
a000674c:	b7cff0ef          	jal	a0005ac8 <__umodsi3>
a0006750:	00012683          	lw	a3,0(sp)
a0006754:	03050793          	addi	a5,a0,48
a0006758:	00a00593          	li	a1,10
a000675c:	00048513          	mv	a0,s1
a0006760:	fef68fa3          	sb	a5,-1(a3)
a0006764:	00912023          	sw	s1,0(sp)
a0006768:	b18ff0ef          	jal	a0005a80 <__hidden___udivsi3>
a000676c:	00012783          	lw	a5,0(sp)
a0006770:	00900713          	li	a4,9
a0006774:	00412603          	lw	a2,4(sp)
a0006778:	00050493          	mv	s1,a0
a000677c:	faf768e3          	bltu	a4,a5,a000672c <vsprintf+0x258>
a0006780:	02812583          	lw	a1,40(sp)
a0006784:	01812283          	lw	t0,24(sp)
a0006788:	01c12783          	lw	a5,28(sp)
a000678c:	02012683          	lw	a3,32(sp)
a0006790:	02412383          	lw	t2,36(sp)
a0006794:	00812483          	lw	s1,8(sp)
a0006798:	2a059e63          	bnez	a1,a0006a54 <vsprintf+0x580>
a000679c:	40c78733          	sub	a4,a5,a2
a00067a0:	38038863          	beqz	t2,a0006b30 <vsprintf+0x65c>
a00067a4:	38e05063          	blez	a4,a0006b24 <vsprintf+0x650>
a00067a8:	00e28733          	add	a4,t0,a4
a00067ac:	03000793          	li	a5,48
a00067b0:	00128293          	addi	t0,t0,1
a00067b4:	fef28fa3          	sb	a5,-1(t0)
a00067b8:	fe571ce3          	bne	a4,t0,a00067b0 <vsprintf+0x2dc>
a00067bc:	01012603          	lw	a2,16(sp)
a00067c0:	02b64463          	blt	a2,a1,a00067e8 <vsprintf+0x314>
a00067c4:	0015c793          	xori	a5,a1,1
a00067c8:	00c787b3          	add	a5,a5,a2
a00067cc:	00c485b3          	add	a1,s1,a2
a00067d0:	00f702b3          	add	t0,a4,a5
a00067d4:	0005c783          	lbu	a5,0(a1)
a00067d8:	00170713          	addi	a4,a4,1
a00067dc:	fff58593          	addi	a1,a1,-1
a00067e0:	fef70fa3          	sb	a5,-1(a4)
a00067e4:	fee298e3          	bne	t0,a4,a00067d4 <vsprintf+0x300>
a00067e8:	01412503          	lw	a0,20(sp)
a00067ec:	d21ff06f          	j	a000650c <vsprintf+0x38>
a00067f0:	00052603          	lw	a2,0(a0)
a00067f4:	00450593          	addi	a1,a0,4
a00067f8:	00000713          	li	a4,0
a00067fc:	02c10493          	addi	s1,sp,44
a0006800:	00512023          	sw	t0,0(sp)
a0006804:	00f12223          	sw	a5,4(sp)
a0006808:	00767793          	andi	a5,a2,7
a000680c:	00070513          	mv	a0,a4
a0006810:	00170713          	addi	a4,a4,1
a0006814:	03078793          	addi	a5,a5,48
a0006818:	00e482b3          	add	t0,s1,a4
a000681c:	00060313          	mv	t1,a2
a0006820:	fef28fa3          	sb	a5,-1(t0)
a0006824:	00700793          	li	a5,7
a0006828:	00365613          	srli	a2,a2,0x3
a000682c:	fc67eee3          	bltu	a5,t1,a0006808 <vsprintf+0x334>
a0006830:	00412783          	lw	a5,4(sp)
a0006834:	00012283          	lw	t0,0(sp)
a0006838:	40e787b3          	sub	a5,a5,a4
a000683c:	30f05e63          	blez	a5,a0006b58 <vsprintf+0x684>
a0006840:	02000713          	li	a4,32
a0006844:	00038463          	beqz	t2,a000684c <vsprintf+0x378>
a0006848:	03000713          	li	a4,48
a000684c:	00f287b3          	add	a5,t0,a5
a0006850:	00128293          	addi	t0,t0,1
a0006854:	fee28fa3          	sb	a4,-1(t0)
a0006858:	fe579ce3          	bne	a5,t0,a0006850 <vsprintf+0x37c>
a000685c:	00a48733          	add	a4,s1,a0
a0006860:	00078613          	mv	a2,a5
a0006864:	00074283          	lbu	t0,0(a4)
a0006868:	00070313          	mv	t1,a4
a000686c:	00160613          	addi	a2,a2,1
a0006870:	fe560fa3          	sb	t0,-1(a2)
a0006874:	fff70713          	addi	a4,a4,-1
a0006878:	fe6496e3          	bne	s1,t1,a0006864 <vsprintf+0x390>
a000687c:	00150513          	addi	a0,a0,1
a0006880:	00a782b3          	add	t0,a5,a0
a0006884:	00058513          	mv	a0,a1
a0006888:	c85ff06f          	j	a000650c <vsprintf+0x38>
a000688c:	00052783          	lw	a5,0(a0)
a0006890:	03000713          	li	a4,48
a0006894:	07800613          	li	a2,120
a0006898:	00e28023          	sb	a4,0(t0)
a000689c:	00c280a3          	sb	a2,1(t0)
a00068a0:	00450393          	addi	t2,a0,4
a00068a4:	1e079463          	bnez	a5,a0006a8c <vsprintf+0x5b8>
a00068a8:	00e28123          	sb	a4,2(t0)
a00068ac:	00038513          	mv	a0,t2
a00068b0:	00328293          	addi	t0,t0,3
a00068b4:	c59ff06f          	j	a000650c <vsprintf+0x38>
a00068b8:	00052603          	lw	a2,0(a0)
a00068bc:	00450513          	addi	a0,a0,4
a00068c0:	00064703          	lbu	a4,0(a2)
a00068c4:	2a070263          	beqz	a4,a0006b68 <vsprintf+0x694>
a00068c8:	00000593          	li	a1,0
a00068cc:	00158593          	addi	a1,a1,1
a00068d0:	00b60333          	add	t1,a2,a1
a00068d4:	00034303          	lbu	t1,0(t1)
a00068d8:	fe031ae3          	bnez	t1,a00068cc <vsprintf+0x3f8>
a00068dc:	40b787b3          	sub	a5,a5,a1
a00068e0:	02f05463          	blez	a5,a0006908 <vsprintf+0x434>
a00068e4:	00000713          	li	a4,0
a00068e8:	02000313          	li	t1,32
a00068ec:	00e285b3          	add	a1,t0,a4
a00068f0:	00658023          	sb	t1,0(a1)
a00068f4:	00170713          	addi	a4,a4,1
a00068f8:	fef74ae3          	blt	a4,a5,a00068ec <vsprintf+0x418>
a00068fc:	00064703          	lbu	a4,0(a2)
a0006900:	00f282b3          	add	t0,t0,a5
a0006904:	c00704e3          	beqz	a4,a000650c <vsprintf+0x38>
a0006908:	00e28023          	sb	a4,0(t0)
a000690c:	00164703          	lbu	a4,1(a2)
a0006910:	00160613          	addi	a2,a2,1
a0006914:	00128293          	addi	t0,t0,1
a0006918:	be070ae3          	beqz	a4,a000650c <vsprintf+0x38>
a000691c:	00e28023          	sb	a4,0(t0)
a0006920:	00164703          	lbu	a4,1(a2)
a0006924:	00160613          	addi	a2,a2,1
a0006928:	00128293          	addi	t0,t0,1
a000692c:	fc071ee3          	bnez	a4,a0006908 <vsprintf+0x434>
a0006930:	bddff06f          	j	a000650c <vsprintf+0x38>
a0006934:	00052703          	lw	a4,0(a0)
a0006938:	02c10493          	addi	s1,sp,44
a000693c:	00450593          	addi	a1,a0,4
a0006940:	00912823          	sw	s1,16(sp)
a0006944:	00000613          	li	a2,0
a0006948:	00512a23          	sw	t0,20(sp)
a000694c:	00f12c23          	sw	a5,24(sp)
a0006950:	00d12e23          	sw	a3,28(sp)
a0006954:	02712023          	sw	t2,32(sp)
a0006958:	02b12223          	sw	a1,36(sp)
a000695c:	00070493          	mv	s1,a4
a0006960:	01012783          	lw	a5,16(sp)
a0006964:	00060313          	mv	t1,a2
a0006968:	00160613          	addi	a2,a2,1
a000696c:	00c786b3          	add	a3,a5,a2
a0006970:	00a00593          	li	a1,10
a0006974:	00048513          	mv	a0,s1
a0006978:	00612423          	sw	t1,8(sp)
a000697c:	00c12223          	sw	a2,4(sp)
a0006980:	00d12023          	sw	a3,0(sp)
a0006984:	944ff0ef          	jal	a0005ac8 <__umodsi3>
a0006988:	00012683          	lw	a3,0(sp)
a000698c:	03050793          	addi	a5,a0,48
a0006990:	00a00593          	li	a1,10
a0006994:	00048513          	mv	a0,s1
a0006998:	fef68fa3          	sb	a5,-1(a3)
a000699c:	00912023          	sw	s1,0(sp)
a00069a0:	8e0ff0ef          	jal	a0005a80 <__hidden___udivsi3>
a00069a4:	00012783          	lw	a5,0(sp)
a00069a8:	00900713          	li	a4,9
a00069ac:	00412603          	lw	a2,4(sp)
a00069b0:	00812303          	lw	t1,8(sp)
a00069b4:	00050493          	mv	s1,a0
a00069b8:	faf764e3          	bltu	a4,a5,a0006960 <vsprintf+0x48c>
a00069bc:	01812783          	lw	a5,24(sp)
a00069c0:	01412283          	lw	t0,20(sp)
a00069c4:	01c12683          	lw	a3,28(sp)
a00069c8:	40c787b3          	sub	a5,a5,a2
a00069cc:	02012383          	lw	t2,32(sp)
a00069d0:	02412583          	lw	a1,36(sp)
a00069d4:	01012483          	lw	s1,16(sp)
a00069d8:	18f05463          	blez	a5,a0006b60 <vsprintf+0x68c>
a00069dc:	02000713          	li	a4,32
a00069e0:	00038463          	beqz	t2,a00069e8 <vsprintf+0x514>
a00069e4:	03000713          	li	a4,48
a00069e8:	00f287b3          	add	a5,t0,a5
a00069ec:	00128293          	addi	t0,t0,1
a00069f0:	fee28fa3          	sb	a4,-1(t0)
a00069f4:	fef29ce3          	bne	t0,a5,a00069ec <vsprintf+0x518>
a00069f8:	00648733          	add	a4,s1,t1
a00069fc:	00078613          	mv	a2,a5
a0006a00:	00074283          	lbu	t0,0(a4)
a0006a04:	00070513          	mv	a0,a4
a0006a08:	00160613          	addi	a2,a2,1
a0006a0c:	fe560fa3          	sb	t0,-1(a2)
a0006a10:	fff70713          	addi	a4,a4,-1
a0006a14:	fea496e3          	bne	s1,a0,a0006a00 <vsprintf+0x52c>
a0006a18:	00130313          	addi	t1,t1,1
a0006a1c:	006782b3          	add	t0,a5,t1
a0006a20:	00058513          	mv	a0,a1
a0006a24:	ae9ff06f          	j	a000650c <vsprintf+0x38>
a0006a28:	02500793          	li	a5,37
a0006a2c:	00f28023          	sb	a5,0(t0)
a0006a30:	00128293          	addi	t0,t0,1
a0006a34:	ad9ff06f          	j	a000650c <vsprintf+0x38>
a0006a38:	00050293          	mv	t0,a0
a0006a3c:	00028023          	sb	zero,0(t0)
a0006a40:	04412083          	lw	ra,68(sp)
a0006a44:	03c12483          	lw	s1,60(sp)
a0006a48:	00000513          	li	a0,0
a0006a4c:	04810113          	addi	sp,sp,72
a0006a50:	00008067          	ret
a0006a54:	01012703          	lw	a4,16(sp)
a0006a58:	02c10313          	addi	t1,sp,44
a0006a5c:	01060513          	addi	a0,a2,16
a0006a60:	00650533          	add	a0,a0,t1
a0006a64:	02d00313          	li	t1,45
a0006a68:	00270713          	addi	a4,a4,2
a0006a6c:	fe650823          	sb	t1,-16(a0)
a0006a70:	40e78733          	sub	a4,a5,a4
a0006a74:	0c038063          	beqz	t2,a0006b34 <vsprintf+0x660>
a0006a78:	06e05c63          	blez	a4,a0006af0 <vsprintf+0x61c>
a0006a7c:	02d00793          	li	a5,45
a0006a80:	00f28023          	sb	a5,0(t0)
a0006a84:	00128293          	addi	t0,t0,1
a0006a88:	d21ff06f          	j	a00067a8 <vsprintf+0x2d4>
a0006a8c:	00000513          	li	a0,0
a0006a90:	02c10493          	addi	s1,sp,44
a0006a94:	00900313          	li	t1,9
a0006a98:	0080006f          	j	a0006aa0 <vsprintf+0x5cc>
a0006a9c:	00070513          	mv	a0,a4
a0006aa0:	00f7f593          	andi	a1,a5,15
a0006aa4:	05758613          	addi	a2,a1,87
a0006aa8:	00b36463          	bltu	t1,a1,a0006ab0 <vsprintf+0x5dc>
a0006aac:	03058613          	addi	a2,a1,48
a0006ab0:	00150713          	addi	a4,a0,1
a0006ab4:	00e485b3          	add	a1,s1,a4
a0006ab8:	fec58fa3          	sb	a2,-1(a1)
a0006abc:	0047d793          	srli	a5,a5,0x4
a0006ac0:	fc079ee3          	bnez	a5,a0006a9c <vsprintf+0x5c8>
a0006ac4:	00350613          	addi	a2,a0,3
a0006ac8:	00228713          	addi	a4,t0,2
a0006acc:	00a487b3          	add	a5,s1,a0
a0006ad0:	00c282b3          	add	t0,t0,a2
a0006ad4:	0007c603          	lbu	a2,0(a5)
a0006ad8:	00170713          	addi	a4,a4,1
a0006adc:	fff78793          	addi	a5,a5,-1
a0006ae0:	fec70fa3          	sb	a2,-1(a4)
a0006ae4:	fe5718e3          	bne	a4,t0,a0006ad4 <vsprintf+0x600>
a0006ae8:	00038513          	mv	a0,t2
a0006aec:	a21ff06f          	j	a000650c <vsprintf+0x38>
a0006af0:	00028593          	mv	a1,t0
a0006af4:	00c487b3          	add	a5,s1,a2
a0006af8:	00058713          	mv	a4,a1
a0006afc:	0007c303          	lbu	t1,0(a5)
a0006b00:	00078513          	mv	a0,a5
a0006b04:	00170713          	addi	a4,a4,1
a0006b08:	fe670fa3          	sb	t1,-1(a4)
a0006b0c:	fff78793          	addi	a5,a5,-1
a0006b10:	fea496e3          	bne	s1,a0,a0006afc <vsprintf+0x628>
a0006b14:	00160613          	addi	a2,a2,1
a0006b18:	01412503          	lw	a0,20(sp)
a0006b1c:	00c582b3          	add	t0,a1,a2
a0006b20:	9edff06f          	j	a000650c <vsprintf+0x38>
a0006b24:	01012603          	lw	a2,16(sp)
a0006b28:	00028593          	mv	a1,t0
a0006b2c:	fc9ff06f          	j	a0006af4 <vsprintf+0x620>
a0006b30:	01012603          	lw	a2,16(sp)
a0006b34:	00e285b3          	add	a1,t0,a4
a0006b38:	02000793          	li	a5,32
a0006b3c:	fae05ae3          	blez	a4,a0006af0 <vsprintf+0x61c>
a0006b40:	00128293          	addi	t0,t0,1
a0006b44:	fef28fa3          	sb	a5,-1(t0)
a0006b48:	feb29ce3          	bne	t0,a1,a0006b40 <vsprintf+0x66c>
a0006b4c:	fa9ff06f          	j	a0006af4 <vsprintf+0x620>
a0006b50:	00028793          	mv	a5,t0
a0006b54:	b55ff06f          	j	a00066a8 <vsprintf+0x1d4>
a0006b58:	00028793          	mv	a5,t0
a0006b5c:	d01ff06f          	j	a000685c <vsprintf+0x388>
a0006b60:	00028793          	mv	a5,t0
a0006b64:	e95ff06f          	j	a00069f8 <vsprintf+0x524>
a0006b68:	d6f04ee3          	bgtz	a5,a00068e4 <vsprintf+0x410>
a0006b6c:	9a1ff06f          	j	a000650c <vsprintf+0x38>

a0006b70 <sprintf>:
a0006b70:	fe010113          	addi	sp,sp,-32
a0006b74:	01010313          	addi	t1,sp,16
a0006b78:	00c12823          	sw	a2,16(sp)
a0006b7c:	00030613          	mv	a2,t1
a0006b80:	00112623          	sw	ra,12(sp)
a0006b84:	00d12a23          	sw	a3,20(sp)
a0006b88:	00e12c23          	sw	a4,24(sp)
a0006b8c:	00f12e23          	sw	a5,28(sp)
a0006b90:	00612023          	sw	t1,0(sp)
a0006b94:	941ff0ef          	jal	a00064d4 <vsprintf>
a0006b98:	00c12083          	lw	ra,12(sp)
a0006b9c:	02010113          	addi	sp,sp,32
a0006ba0:	00008067          	ret

a0006ba4 <__udivmoddi4>:
a0006ba4:	fdc10113          	addi	sp,sp,-36
a0006ba8:	00812e23          	sw	s0,28(sp)
a0006bac:	02112023          	sw	ra,32(sp)
a0006bb0:	00060413          	mv	s0,a2
a0006bb4:	00050293          	mv	t0,a0
a0006bb8:	00070613          	mv	a2,a4
a0006bbc:	04059663          	bnez	a1,a0006c08 <__udivmoddi4+0x64>
a0006bc0:	20069e63          	bnez	a3,a0006ddc <__udivmoddi4+0x238>
a0006bc4:	00e12023          	sw	a4,0(sp)
a0006bc8:	02070063          	beqz	a4,a0006be8 <__udivmoddi4+0x44>
a0006bcc:	00040593          	mv	a1,s0
a0006bd0:	00a12223          	sw	a0,4(sp)
a0006bd4:	ef5fe0ef          	jal	a0005ac8 <__umodsi3>
a0006bd8:	00012603          	lw	a2,0(sp)
a0006bdc:	00412283          	lw	t0,4(sp)
a0006be0:	00a62023          	sw	a0,0(a2)
a0006be4:	00062223          	sw	zero,4(a2)
a0006be8:	00040593          	mv	a1,s0
a0006bec:	00028513          	mv	a0,t0
a0006bf0:	e91fe0ef          	jal	a0005a80 <__hidden___udivsi3>
a0006bf4:	00000593          	li	a1,0
a0006bf8:	02012083          	lw	ra,32(sp)
a0006bfc:	01c12403          	lw	s0,28(sp)
a0006c00:	02410113          	addi	sp,sp,36
a0006c04:	00008067          	ret
a0006c08:	00912c23          	sw	s1,24(sp)
a0006c0c:	00058313          	mv	t1,a1
a0006c10:	00040493          	mv	s1,s0
a0006c14:	08041a63          	bnez	s0,a0006ca8 <__udivmoddi4+0x104>
a0006c18:	22068e63          	beqz	a3,a0006e54 <__udivmoddi4+0x2b0>
a0006c1c:	2c050663          	beqz	a0,a0006ee8 <__udivmoddi4+0x344>
a0006c20:	fff68793          	addi	a5,a3,-1
a0006c24:	00d7f5b3          	and	a1,a5,a3
a0006c28:	32058063          	beqz	a1,a0006f48 <__udivmoddi4+0x3a4>
a0006c2c:	00a12823          	sw	a0,16(sp)
a0006c30:	00068513          	mv	a0,a3
a0006c34:	00612a23          	sw	t1,20(sp)
a0006c38:	00c12623          	sw	a2,12(sp)
a0006c3c:	00612023          	sw	t1,0(sp)
a0006c40:	00d12423          	sw	a3,8(sp)
a0006c44:	3a0000ef          	jal	a0006fe4 <__clzsi2>
a0006c48:	00012703          	lw	a4,0(sp)
a0006c4c:	00050793          	mv	a5,a0
a0006c50:	00f12023          	sw	a5,0(sp)
a0006c54:	00070513          	mv	a0,a4
a0006c58:	00e12223          	sw	a4,4(sp)
a0006c5c:	388000ef          	jal	a0006fe4 <__clzsi2>
a0006c60:	00012783          	lw	a5,0(sp)
a0006c64:	00412703          	lw	a4,4(sp)
a0006c68:	00812683          	lw	a3,8(sp)
a0006c6c:	40a78533          	sub	a0,a5,a0
a0006c70:	01e00793          	li	a5,30
a0006c74:	00c12603          	lw	a2,12(sp)
a0006c78:	01012283          	lw	t0,16(sp)
a0006c7c:	01412303          	lw	t1,20(sp)
a0006c80:	1ca7ec63          	bltu	a5,a0,a0006e58 <__udivmoddi4+0x2b4>
a0006c84:	00150393          	addi	t2,a0,1
a0006c88:	02000513          	li	a0,32
a0006c8c:	40750533          	sub	a0,a0,t2
a0006c90:	00a71333          	sll	t1,a4,a0
a0006c94:	0072d5b3          	srl	a1,t0,t2
a0006c98:	007757b3          	srl	a5,a4,t2
a0006c9c:	00a29533          	sll	a0,t0,a0
a0006ca0:	00b36733          	or	a4,t1,a1
a0006ca4:	0800006f          	j	a0006d24 <__udivmoddi4+0x180>
a0006ca8:	14068663          	beqz	a3,a0006df4 <__udivmoddi4+0x250>
a0006cac:	00a12423          	sw	a0,8(sp)
a0006cb0:	00068513          	mv	a0,a3
a0006cb4:	00c12223          	sw	a2,4(sp)
a0006cb8:	00b12623          	sw	a1,12(sp)
a0006cbc:	00b12023          	sw	a1,0(sp)
a0006cc0:	00d12823          	sw	a3,16(sp)
a0006cc4:	320000ef          	jal	a0006fe4 <__clzsi2>
a0006cc8:	00012703          	lw	a4,0(sp)
a0006ccc:	00050493          	mv	s1,a0
a0006cd0:	00070513          	mv	a0,a4
a0006cd4:	310000ef          	jal	a0006fe4 <__clzsi2>
a0006cd8:	40a48533          	sub	a0,s1,a0
a0006cdc:	01f00793          	li	a5,31
a0006ce0:	00412603          	lw	a2,4(sp)
a0006ce4:	00812283          	lw	t0,8(sp)
a0006ce8:	00c12303          	lw	t1,12(sp)
a0006cec:	16a7e663          	bltu	a5,a0,a0006e58 <__udivmoddi4+0x2b4>
a0006cf0:	00150393          	addi	t2,a0,1
a0006cf4:	02000793          	li	a5,32
a0006cf8:	00012703          	lw	a4,0(sp)
a0006cfc:	01012683          	lw	a3,16(sp)
a0006d00:	00028513          	mv	a0,t0
a0006d04:	26f38a63          	beq	t2,a5,a0006f78 <__udivmoddi4+0x3d4>
a0006d08:	407785b3          	sub	a1,a5,t2
a0006d0c:	0072d333          	srl	t1,t0,t2
a0006d10:	00b712b3          	sll	t0,a4,a1
a0006d14:	007757b3          	srl	a5,a4,t2
a0006d18:	00b51533          	sll	a0,a0,a1
a0006d1c:	0062e733          	or	a4,t0,t1
a0006d20:	00000493          	li	s1,0
a0006d24:	00c12223          	sw	a2,4(sp)
a0006d28:	00068613          	mv	a2,a3
a0006d2c:	00012023          	sw	zero,0(sp)
a0006d30:	00078693          	mv	a3,a5
a0006d34:	00060793          	mv	a5,a2
a0006d38:	01f55593          	srli	a1,a0,0x1f
a0006d3c:	00171613          	slli	a2,a4,0x1
a0006d40:	00b66633          	or	a2,a2,a1
a0006d44:	01f75713          	srli	a4,a4,0x1f
a0006d48:	00169693          	slli	a3,a3,0x1
a0006d4c:	00e6e6b3          	or	a3,a3,a4
a0006d50:	40c40733          	sub	a4,s0,a2
a0006d54:	40d78333          	sub	t1,a5,a3
a0006d58:	00e435b3          	sltu	a1,s0,a4
a0006d5c:	40b305b3          	sub	a1,t1,a1
a0006d60:	00173713          	seqz	a4,a4
a0006d64:	40e585b3          	sub	a1,a1,a4
a0006d68:	41f5d313          	srai	t1,a1,0x1f
a0006d6c:	00837733          	and	a4,t1,s0
a0006d70:	00f37333          	and	t1,t1,a5
a0006d74:	406686b3          	sub	a3,a3,t1
a0006d78:	00012303          	lw	t1,0(sp)
a0006d7c:	40e60733          	sub	a4,a2,a4
a0006d80:	01f5d593          	srli	a1,a1,0x1f
a0006d84:	01f4d293          	srli	t0,s1,0x1f
a0006d88:	00151513          	slli	a0,a0,0x1
a0006d8c:	00149493          	slli	s1,s1,0x1
a0006d90:	00e63633          	sltu	a2,a2,a4
a0006d94:	fff38393          	addi	t2,t2,-1
a0006d98:	00b12023          	sw	a1,0(sp)
a0006d9c:	0064e4b3          	or	s1,s1,t1
a0006da0:	00556533          	or	a0,a0,t0
a0006da4:	40c686b3          	sub	a3,a3,a2
a0006da8:	f80398e3          	bnez	t2,a0006d38 <__udivmoddi4+0x194>
a0006dac:	00412603          	lw	a2,4(sp)
a0006db0:	00060663          	beqz	a2,a0006dbc <__udivmoddi4+0x218>
a0006db4:	00e62023          	sw	a4,0(a2)
a0006db8:	00d62223          	sw	a3,4(a2)
a0006dbc:	00012703          	lw	a4,0(sp)
a0006dc0:	01f4d313          	srli	t1,s1,0x1f
a0006dc4:	00151793          	slli	a5,a0,0x1
a0006dc8:	00149513          	slli	a0,s1,0x1
a0006dcc:	00e56533          	or	a0,a0,a4
a0006dd0:	01812483          	lw	s1,24(sp)
a0006dd4:	00f365b3          	or	a1,t1,a5
a0006dd8:	e21ff06f          	j	a0006bf8 <__udivmoddi4+0x54>
a0006ddc:	00070663          	beqz	a4,a0006de8 <__udivmoddi4+0x244>
a0006de0:	00a62023          	sw	a0,0(a2)
a0006de4:	00072223          	sw	zero,4(a4)
a0006de8:	00000513          	li	a0,0
a0006dec:	00000593          	li	a1,0
a0006df0:	e09ff06f          	j	a0006bf8 <__udivmoddi4+0x54>
a0006df4:	fff40593          	addi	a1,s0,-1
a0006df8:	0085f533          	and	a0,a1,s0
a0006dfc:	06051863          	bnez	a0,a0006e6c <__udivmoddi4+0x2c8>
a0006e00:	00060863          	beqz	a2,a0006e10 <__udivmoddi4+0x26c>
a0006e04:	0055f5b3          	and	a1,a1,t0
a0006e08:	00b62023          	sw	a1,0(a2)
a0006e0c:	00062223          	sw	zero,4(a2)
a0006e10:	00100793          	li	a5,1
a0006e14:	10f40e63          	beq	s0,a5,a0006f30 <__udivmoddi4+0x38c>
a0006e18:	00040513          	mv	a0,s0
a0006e1c:	00612223          	sw	t1,4(sp)
a0006e20:	00512023          	sw	t0,0(sp)
a0006e24:	250000ef          	jal	a0007074 <__ctzsi2>
a0006e28:	00412303          	lw	t1,4(sp)
a0006e2c:	00012283          	lw	t0,0(sp)
a0006e30:	02000713          	li	a4,32
a0006e34:	40a70733          	sub	a4,a4,a0
a0006e38:	00050793          	mv	a5,a0
a0006e3c:	00e31733          	sll	a4,t1,a4
a0006e40:	00a2d2b3          	srl	t0,t0,a0
a0006e44:	01812483          	lw	s1,24(sp)
a0006e48:	00576533          	or	a0,a4,t0
a0006e4c:	00f355b3          	srl	a1,t1,a5
a0006e50:	da9ff06f          	j	a0006bf8 <__udivmoddi4+0x54>
a0006e54:	00100073          	ebreak
a0006e58:	0e060463          	beqz	a2,a0006f40 <__udivmoddi4+0x39c>
a0006e5c:	01812483          	lw	s1,24(sp)
a0006e60:	00562023          	sw	t0,0(a2)
a0006e64:	00662223          	sw	t1,4(a2)
a0006e68:	f81ff06f          	j	a0006de8 <__udivmoddi4+0x244>
a0006e6c:	00040513          	mv	a0,s0
a0006e70:	00d12823          	sw	a3,16(sp)
a0006e74:	00512623          	sw	t0,12(sp)
a0006e78:	00c12423          	sw	a2,8(sp)
a0006e7c:	00612023          	sw	t1,0(sp)
a0006e80:	00d12223          	sw	a3,4(sp)
a0006e84:	160000ef          	jal	a0006fe4 <__clzsi2>
a0006e88:	00012703          	lw	a4,0(sp)
a0006e8c:	00050493          	mv	s1,a0
a0006e90:	00070513          	mv	a0,a4
a0006e94:	150000ef          	jal	a0006fe4 <__clzsi2>
a0006e98:	00c12283          	lw	t0,12(sp)
a0006e9c:	40a485b3          	sub	a1,s1,a0
a0006ea0:	02158393          	addi	t2,a1,33
a0006ea4:	02000313          	li	t1,32
a0006ea8:	00012703          	lw	a4,0(sp)
a0006eac:	00412783          	lw	a5,4(sp)
a0006eb0:	00812603          	lw	a2,8(sp)
a0006eb4:	01012683          	lw	a3,16(sp)
a0006eb8:	00028513          	mv	a0,t0
a0006ebc:	00000493          	li	s1,0
a0006ec0:	e66382e3          	beq	t2,t1,a0006d24 <__udivmoddi4+0x180>
a0006ec4:	01f00293          	li	t0,31
a0006ec8:	0a72ee63          	bltu	t0,t2,a0006f84 <__udivmoddi4+0x3e0>
a0006ecc:	40730333          	sub	t1,t1,t2
a0006ed0:	007555b3          	srl	a1,a0,t2
a0006ed4:	007757b3          	srl	a5,a4,t2
a0006ed8:	00671733          	sll	a4,a4,t1
a0006edc:	00b76733          	or	a4,a4,a1
a0006ee0:	00651533          	sll	a0,a0,t1
a0006ee4:	e41ff06f          	j	a0006d24 <__udivmoddi4+0x180>
a0006ee8:	00c12023          	sw	a2,0(sp)
a0006eec:	02060663          	beqz	a2,a0006f18 <__udivmoddi4+0x374>
a0006ef0:	00068593          	mv	a1,a3
a0006ef4:	00030513          	mv	a0,t1
a0006ef8:	00d12423          	sw	a3,8(sp)
a0006efc:	00612223          	sw	t1,4(sp)
a0006f00:	bc9fe0ef          	jal	a0005ac8 <__umodsi3>
a0006f04:	00012603          	lw	a2,0(sp)
a0006f08:	00812683          	lw	a3,8(sp)
a0006f0c:	00412303          	lw	t1,4(sp)
a0006f10:	00062023          	sw	zero,0(a2)
a0006f14:	00a62223          	sw	a0,4(a2)
a0006f18:	00068593          	mv	a1,a3
a0006f1c:	00030513          	mv	a0,t1
a0006f20:	b61fe0ef          	jal	a0005a80 <__hidden___udivsi3>
a0006f24:	00000593          	li	a1,0
a0006f28:	01812483          	lw	s1,24(sp)
a0006f2c:	ccdff06f          	j	a0006bf8 <__udivmoddi4+0x54>
a0006f30:	01812483          	lw	s1,24(sp)
a0006f34:	00028513          	mv	a0,t0
a0006f38:	00030593          	mv	a1,t1
a0006f3c:	cbdff06f          	j	a0006bf8 <__udivmoddi4+0x54>
a0006f40:	01812483          	lw	s1,24(sp)
a0006f44:	ea5ff06f          	j	a0006de8 <__udivmoddi4+0x244>
a0006f48:	00060863          	beqz	a2,a0006f58 <__udivmoddi4+0x3b4>
a0006f4c:	0067f7b3          	and	a5,a5,t1
a0006f50:	00a62023          	sw	a0,0(a2)
a0006f54:	00f62223          	sw	a5,4(a2)
a0006f58:	00068513          	mv	a0,a3
a0006f5c:	00612023          	sw	t1,0(sp)
a0006f60:	114000ef          	jal	a0007074 <__ctzsi2>
a0006f64:	00012303          	lw	t1,0(sp)
a0006f68:	01812483          	lw	s1,24(sp)
a0006f6c:	00000593          	li	a1,0
a0006f70:	00a35533          	srl	a0,t1,a0
a0006f74:	c85ff06f          	j	a0006bf8 <__udivmoddi4+0x54>
a0006f78:	00000793          	li	a5,0
a0006f7c:	00000493          	li	s1,0
a0006f80:	da5ff06f          	j	a0006d24 <__udivmoddi4+0x180>
a0006f84:	04000493          	li	s1,64
a0006f88:	407484b3          	sub	s1,s1,t2
a0006f8c:	00158593          	addi	a1,a1,1
a0006f90:	009712b3          	sll	t0,a4,s1
a0006f94:	00b55333          	srl	t1,a0,a1
a0006f98:	009514b3          	sll	s1,a0,s1
a0006f9c:	00b75733          	srl	a4,a4,a1
a0006fa0:	0062e533          	or	a0,t0,t1
a0006fa4:	d81ff06f          	j	a0006d24 <__udivmoddi4+0x180>

a0006fa8 <__udivdi3>:
a0006fa8:	00000713          	li	a4,0
a0006fac:	bf9ff06f          	j	a0006ba4 <__udivmoddi4>

a0006fb0 <__umoddi3>:
a0006fb0:	fe810113          	addi	sp,sp,-24
a0006fb4:	00812823          	sw	s0,16(sp)
a0006fb8:	00710413          	addi	s0,sp,7
a0006fbc:	ff847413          	andi	s0,s0,-8
a0006fc0:	00040713          	mv	a4,s0
a0006fc4:	00112a23          	sw	ra,20(sp)
a0006fc8:	bddff0ef          	jal	a0006ba4 <__udivmoddi4>
a0006fcc:	00042503          	lw	a0,0(s0)
a0006fd0:	00442583          	lw	a1,4(s0)
a0006fd4:	01412083          	lw	ra,20(sp)
a0006fd8:	01012403          	lw	s0,16(sp)
a0006fdc:	01810113          	addi	sp,sp,24
a0006fe0:	00008067          	ret

a0006fe4 <__clzsi2>:
a0006fe4:	000105b7          	lui	a1,0x10
a0006fe8:	00b535b3          	sltu	a1,a0,a1
a0006fec:	00459593          	slli	a1,a1,0x4
a0006ff0:	01000793          	li	a5,16
a0006ff4:	40b787b3          	sub	a5,a5,a1
a0006ff8:	00010737          	lui	a4,0x10
a0006ffc:	00f557b3          	srl	a5,a0,a5
a0007000:	f0070713          	addi	a4,a4,-256 # ff00 <text_size+0x8e14>
a0007004:	00e7f733          	and	a4,a5,a4
a0007008:	00173713          	seqz	a4,a4
a000700c:	00371713          	slli	a4,a4,0x3
a0007010:	00800693          	li	a3,8
a0007014:	40e686b3          	sub	a3,a3,a4
a0007018:	00d7d7b3          	srl	a5,a5,a3
a000701c:	0f07f693          	andi	a3,a5,240
a0007020:	0016b693          	seqz	a3,a3
a0007024:	00269693          	slli	a3,a3,0x2
a0007028:	00400613          	li	a2,4
a000702c:	40d60633          	sub	a2,a2,a3
a0007030:	00c7d7b3          	srl	a5,a5,a2
a0007034:	00c7f613          	andi	a2,a5,12
a0007038:	00163613          	seqz	a2,a2
a000703c:	00200513          	li	a0,2
a0007040:	00161613          	slli	a2,a2,0x1
a0007044:	40c50333          	sub	t1,a0,a2
a0007048:	0067d7b3          	srl	a5,a5,t1
a000704c:	0017d313          	srli	t1,a5,0x1
a0007050:	00b70733          	add	a4,a4,a1
a0007054:	00137593          	andi	a1,t1,1
a0007058:	00e686b3          	add	a3,a3,a4
a000705c:	40f50533          	sub	a0,a0,a5
a0007060:	00058463          	beqz	a1,a0007068 <__clzsi2+0x84>
a0007064:	00000513          	li	a0,0
a0007068:	00d606b3          	add	a3,a2,a3
a000706c:	00d50533          	add	a0,a0,a3
a0007070:	00008067          	ret

a0007074 <__ctzsi2>:
a0007074:	01051593          	slli	a1,a0,0x10
a0007078:	0105d593          	srli	a1,a1,0x10
a000707c:	0015b593          	seqz	a1,a1
a0007080:	00459593          	slli	a1,a1,0x4
a0007084:	00b557b3          	srl	a5,a0,a1
a0007088:	0ff7f613          	zext.b	a2,a5
a000708c:	00163613          	seqz	a2,a2
a0007090:	00361613          	slli	a2,a2,0x3
a0007094:	00c7d7b3          	srl	a5,a5,a2
a0007098:	00f7f693          	andi	a3,a5,15
a000709c:	0016b693          	seqz	a3,a3
a00070a0:	00269693          	slli	a3,a3,0x2
a00070a4:	00d7d7b3          	srl	a5,a5,a3
a00070a8:	0037f713          	andi	a4,a5,3
a00070ac:	00173713          	seqz	a4,a4
a00070b0:	00171713          	slli	a4,a4,0x1
a00070b4:	00e7d7b3          	srl	a5,a5,a4
a00070b8:	0017d513          	srli	a0,a5,0x1
a00070bc:	fff7c793          	not	a5,a5
a00070c0:	00b60633          	add	a2,a2,a1
a00070c4:	0017f793          	andi	a5,a5,1
a00070c8:	00157593          	andi	a1,a0,1
a00070cc:	00200513          	li	a0,2
a00070d0:	40b50533          	sub	a0,a0,a1
a00070d4:	00c686b3          	add	a3,a3,a2
a00070d8:	40f007b3          	neg	a5,a5
a00070dc:	00f577b3          	and	a5,a0,a5
a00070e0:	00d70533          	add	a0,a4,a3
a00070e4:	00a78533          	add	a0,a5,a0
a00070e8:	00008067          	ret
